ARM GAS  C:\Users\pasan savindu\AppData\Local\Temp\ccGYOE7t.s 			page 1


   1              		.syntax unified
   2              		.cpu cortex-m3
   3              		.fpu softvfp
   4              		.eabi_attribute 20, 1
   5              		.eabi_attribute 21, 1
   6              		.eabi_attribute 23, 3
   7              		.eabi_attribute 24, 1
   8              		.eabi_attribute 25, 1
   9              		.eabi_attribute 26, 1
  10              		.eabi_attribute 30, 1
  11              		.eabi_attribute 34, 1
  12              		.eabi_attribute 18, 4
  13              		.thumb
  14              		.syntax unified
  15              		.file	"Counter_Color.c"
  16              		.text
  17              	.Ltext0:
  18              		.cfi_sections	.debug_frame
  19              		.section	.text.Counter_Color_Enable,"ax",%progbits
  20              		.align	2
  21              		.global	Counter_Color_Enable
  22              		.thumb
  23              		.thumb_func
  24              		.type	Counter_Color_Enable, %function
  25              	Counter_Color_Enable:
  26              	.LFB1:
  27              		.file 1 "Generated_Source\\PSoC5\\Counter_Color.c"
   1:Generated_Source\PSoC5/Counter_Color.c **** /*******************************************************************************
   2:Generated_Source\PSoC5/Counter_Color.c **** * File Name: Counter_Color.c  
   3:Generated_Source\PSoC5/Counter_Color.c **** * Version 3.0
   4:Generated_Source\PSoC5/Counter_Color.c **** *
   5:Generated_Source\PSoC5/Counter_Color.c **** *  Description:
   6:Generated_Source\PSoC5/Counter_Color.c **** *     The Counter component consists of a 8, 16, 24 or 32-bit counter with
   7:Generated_Source\PSoC5/Counter_Color.c **** *     a selectable period between 2 and 2^Width - 1.  
   8:Generated_Source\PSoC5/Counter_Color.c **** *
   9:Generated_Source\PSoC5/Counter_Color.c **** *   Note:
  10:Generated_Source\PSoC5/Counter_Color.c **** *     None
  11:Generated_Source\PSoC5/Counter_Color.c **** *
  12:Generated_Source\PSoC5/Counter_Color.c **** ********************************************************************************
  13:Generated_Source\PSoC5/Counter_Color.c **** * Copyright 2008-2012, Cypress Semiconductor Corporation.  All rights reserved.
  14:Generated_Source\PSoC5/Counter_Color.c **** * You may use this file only in accordance with the license, terms, conditions, 
  15:Generated_Source\PSoC5/Counter_Color.c **** * disclaimers, and limitations in the end user license agreement accompanying 
  16:Generated_Source\PSoC5/Counter_Color.c **** * the software package with which this file was provided.
  17:Generated_Source\PSoC5/Counter_Color.c **** *******************************************************************************/
  18:Generated_Source\PSoC5/Counter_Color.c **** 
  19:Generated_Source\PSoC5/Counter_Color.c **** #include "Counter_Color.h"
  20:Generated_Source\PSoC5/Counter_Color.c **** 
  21:Generated_Source\PSoC5/Counter_Color.c **** uint8 Counter_Color_initVar = 0u;
  22:Generated_Source\PSoC5/Counter_Color.c **** 
  23:Generated_Source\PSoC5/Counter_Color.c **** 
  24:Generated_Source\PSoC5/Counter_Color.c **** /*******************************************************************************
  25:Generated_Source\PSoC5/Counter_Color.c **** * Function Name: Counter_Color_Init
  26:Generated_Source\PSoC5/Counter_Color.c **** ********************************************************************************
  27:Generated_Source\PSoC5/Counter_Color.c **** * Summary:
  28:Generated_Source\PSoC5/Counter_Color.c **** *     Initialize to the schematic state
  29:Generated_Source\PSoC5/Counter_Color.c **** * 
  30:Generated_Source\PSoC5/Counter_Color.c **** * Parameters:  
ARM GAS  C:\Users\pasan savindu\AppData\Local\Temp\ccGYOE7t.s 			page 2


  31:Generated_Source\PSoC5/Counter_Color.c **** *  void  
  32:Generated_Source\PSoC5/Counter_Color.c **** *
  33:Generated_Source\PSoC5/Counter_Color.c **** * Return: 
  34:Generated_Source\PSoC5/Counter_Color.c **** *  void
  35:Generated_Source\PSoC5/Counter_Color.c **** *
  36:Generated_Source\PSoC5/Counter_Color.c **** *******************************************************************************/
  37:Generated_Source\PSoC5/Counter_Color.c **** void Counter_Color_Init(void) 
  38:Generated_Source\PSoC5/Counter_Color.c **** {
  39:Generated_Source\PSoC5/Counter_Color.c ****         #if (!Counter_Color_UsingFixedFunction && !Counter_Color_ControlRegRemoved)
  40:Generated_Source\PSoC5/Counter_Color.c ****             uint8 ctrl;
  41:Generated_Source\PSoC5/Counter_Color.c ****         #endif /* (!Counter_Color_UsingFixedFunction && !Counter_Color_ControlRegRemoved) */
  42:Generated_Source\PSoC5/Counter_Color.c ****         
  43:Generated_Source\PSoC5/Counter_Color.c ****         #if(!Counter_Color_UsingFixedFunction) 
  44:Generated_Source\PSoC5/Counter_Color.c ****             /* Interrupt State Backup for Critical Region*/
  45:Generated_Source\PSoC5/Counter_Color.c ****             uint8 Counter_Color_interruptState;
  46:Generated_Source\PSoC5/Counter_Color.c ****         #endif /* (!Counter_Color_UsingFixedFunction) */
  47:Generated_Source\PSoC5/Counter_Color.c ****         
  48:Generated_Source\PSoC5/Counter_Color.c ****         #if (Counter_Color_UsingFixedFunction)
  49:Generated_Source\PSoC5/Counter_Color.c ****             /* Clear all bits but the enable bit (if it's already set for Timer operation */
  50:Generated_Source\PSoC5/Counter_Color.c ****             Counter_Color_CONTROL &= Counter_Color_CTRL_ENABLE;
  51:Generated_Source\PSoC5/Counter_Color.c ****             
  52:Generated_Source\PSoC5/Counter_Color.c ****             /* Clear the mode bits for continuous run mode */
  53:Generated_Source\PSoC5/Counter_Color.c ****             #if (CY_PSOC5A)
  54:Generated_Source\PSoC5/Counter_Color.c ****                 Counter_Color_CONTROL2 &= ((uint8)(~Counter_Color_CTRL_MODE_MASK));
  55:Generated_Source\PSoC5/Counter_Color.c ****             #endif /* (CY_PSOC5A) */
  56:Generated_Source\PSoC5/Counter_Color.c ****             #if (CY_PSOC3 || CY_PSOC5LP)
  57:Generated_Source\PSoC5/Counter_Color.c ****                 Counter_Color_CONTROL3 &= ((uint8)(~Counter_Color_CTRL_MODE_MASK));                
  58:Generated_Source\PSoC5/Counter_Color.c ****             #endif /* (CY_PSOC3 || CY_PSOC5LP) */
  59:Generated_Source\PSoC5/Counter_Color.c ****             /* Check if One Shot mode is enabled i.e. RunMode !=0*/
  60:Generated_Source\PSoC5/Counter_Color.c ****             #if (Counter_Color_RunModeUsed != 0x0u)
  61:Generated_Source\PSoC5/Counter_Color.c ****                 /* Set 3rd bit of Control register to enable one shot mode */
  62:Generated_Source\PSoC5/Counter_Color.c ****                 Counter_Color_CONTROL |= Counter_Color_ONESHOT;
  63:Generated_Source\PSoC5/Counter_Color.c ****             #endif /* (Counter_Color_RunModeUsed != 0x0u) */
  64:Generated_Source\PSoC5/Counter_Color.c ****             
  65:Generated_Source\PSoC5/Counter_Color.c ****             /* Set the IRQ to use the status register interrupts */
  66:Generated_Source\PSoC5/Counter_Color.c ****             Counter_Color_CONTROL2 |= Counter_Color_CTRL2_IRQ_SEL;
  67:Generated_Source\PSoC5/Counter_Color.c ****             
  68:Generated_Source\PSoC5/Counter_Color.c ****             /* Clear and Set SYNCTC and SYNCCMP bits of RT1 register */
  69:Generated_Source\PSoC5/Counter_Color.c ****             Counter_Color_RT1 &= ((uint8)(~Counter_Color_RT1_MASK));
  70:Generated_Source\PSoC5/Counter_Color.c ****             Counter_Color_RT1 |= Counter_Color_SYNC;     
  71:Generated_Source\PSoC5/Counter_Color.c ****                     
  72:Generated_Source\PSoC5/Counter_Color.c ****             /*Enable DSI Sync all all inputs of the Timer*/
  73:Generated_Source\PSoC5/Counter_Color.c ****             Counter_Color_RT1 &= ((uint8)(~Counter_Color_SYNCDSI_MASK));
  74:Generated_Source\PSoC5/Counter_Color.c ****             Counter_Color_RT1 |= Counter_Color_SYNCDSI_EN;
  75:Generated_Source\PSoC5/Counter_Color.c **** 
  76:Generated_Source\PSoC5/Counter_Color.c ****         #else
  77:Generated_Source\PSoC5/Counter_Color.c ****             #if(!Counter_Color_ControlRegRemoved)
  78:Generated_Source\PSoC5/Counter_Color.c ****             /* Set the default compare mode defined in the parameter */
  79:Generated_Source\PSoC5/Counter_Color.c ****             ctrl = Counter_Color_CONTROL & ((uint8)(~Counter_Color_CTRL_CMPMODE_MASK));
  80:Generated_Source\PSoC5/Counter_Color.c ****             Counter_Color_CONTROL = ctrl | Counter_Color_DEFAULT_COMPARE_MODE;
  81:Generated_Source\PSoC5/Counter_Color.c ****             
  82:Generated_Source\PSoC5/Counter_Color.c ****             /* Set the default capture mode defined in the parameter */
  83:Generated_Source\PSoC5/Counter_Color.c ****             ctrl = Counter_Color_CONTROL & ((uint8)(~Counter_Color_CTRL_CAPMODE_MASK));
  84:Generated_Source\PSoC5/Counter_Color.c ****             
  85:Generated_Source\PSoC5/Counter_Color.c ****             #if( 0 != Counter_Color_CAPTURE_MODE_CONF)
  86:Generated_Source\PSoC5/Counter_Color.c ****                 Counter_Color_CONTROL = ctrl | Counter_Color_DEFAULT_CAPTURE_MODE;
  87:Generated_Source\PSoC5/Counter_Color.c ****             #else
ARM GAS  C:\Users\pasan savindu\AppData\Local\Temp\ccGYOE7t.s 			page 3


  88:Generated_Source\PSoC5/Counter_Color.c ****                 Counter_Color_CONTROL = ctrl;
  89:Generated_Source\PSoC5/Counter_Color.c ****             #endif /* 0 != Counter_Color_CAPTURE_MODE */ 
  90:Generated_Source\PSoC5/Counter_Color.c ****             
  91:Generated_Source\PSoC5/Counter_Color.c ****             #endif /* (!Counter_Color_ControlRegRemoved) */
  92:Generated_Source\PSoC5/Counter_Color.c ****         #endif /* (Counter_Color_UsingFixedFunction) */
  93:Generated_Source\PSoC5/Counter_Color.c ****         
  94:Generated_Source\PSoC5/Counter_Color.c ****         /* Clear all data in the FIFO's */
  95:Generated_Source\PSoC5/Counter_Color.c ****         #if (!Counter_Color_UsingFixedFunction)
  96:Generated_Source\PSoC5/Counter_Color.c ****             Counter_Color_ClearFIFO();
  97:Generated_Source\PSoC5/Counter_Color.c ****         #endif /* (!Counter_Color_UsingFixedFunction) */
  98:Generated_Source\PSoC5/Counter_Color.c ****         
  99:Generated_Source\PSoC5/Counter_Color.c ****         /* Set Initial values from Configuration */
 100:Generated_Source\PSoC5/Counter_Color.c ****         Counter_Color_WritePeriod(Counter_Color_INIT_PERIOD_VALUE);
 101:Generated_Source\PSoC5/Counter_Color.c ****         #if (!(Counter_Color_UsingFixedFunction && (CY_PSOC5A)))
 102:Generated_Source\PSoC5/Counter_Color.c ****             Counter_Color_WriteCounter(Counter_Color_INIT_COUNTER_VALUE);
 103:Generated_Source\PSoC5/Counter_Color.c ****         #endif /* (!(Counter_Color_UsingFixedFunction && (CY_PSOC5A))) */
 104:Generated_Source\PSoC5/Counter_Color.c ****         Counter_Color_SetInterruptMode(Counter_Color_INIT_INTERRUPTS_MASK);
 105:Generated_Source\PSoC5/Counter_Color.c ****         
 106:Generated_Source\PSoC5/Counter_Color.c ****         #if (!Counter_Color_UsingFixedFunction)
 107:Generated_Source\PSoC5/Counter_Color.c ****             /* Read the status register to clear the unwanted interrupts */
 108:Generated_Source\PSoC5/Counter_Color.c ****             (void)Counter_Color_ReadStatusRegister();
 109:Generated_Source\PSoC5/Counter_Color.c ****             /* Set the compare value (only available to non-fixed function implementation */
 110:Generated_Source\PSoC5/Counter_Color.c ****             Counter_Color_WriteCompare(Counter_Color_INIT_COMPARE_VALUE);
 111:Generated_Source\PSoC5/Counter_Color.c ****             /* Use the interrupt output of the status register for IRQ output */
 112:Generated_Source\PSoC5/Counter_Color.c ****             
 113:Generated_Source\PSoC5/Counter_Color.c ****             /* CyEnterCriticalRegion and CyExitCriticalRegion are used to mark following region cri
 114:Generated_Source\PSoC5/Counter_Color.c ****             /* Enter Critical Region*/
 115:Generated_Source\PSoC5/Counter_Color.c ****             Counter_Color_interruptState = CyEnterCriticalSection();
 116:Generated_Source\PSoC5/Counter_Color.c ****             
 117:Generated_Source\PSoC5/Counter_Color.c ****             Counter_Color_STATUS_AUX_CTRL |= Counter_Color_STATUS_ACTL_INT_EN_MASK;
 118:Generated_Source\PSoC5/Counter_Color.c ****             
 119:Generated_Source\PSoC5/Counter_Color.c ****             /* Exit Critical Region*/
 120:Generated_Source\PSoC5/Counter_Color.c ****             CyExitCriticalSection(Counter_Color_interruptState);
 121:Generated_Source\PSoC5/Counter_Color.c ****             
 122:Generated_Source\PSoC5/Counter_Color.c ****         #endif /* (!Counter_Color_UsingFixedFunction) */
 123:Generated_Source\PSoC5/Counter_Color.c **** }
 124:Generated_Source\PSoC5/Counter_Color.c **** 
 125:Generated_Source\PSoC5/Counter_Color.c **** 
 126:Generated_Source\PSoC5/Counter_Color.c **** /*******************************************************************************
 127:Generated_Source\PSoC5/Counter_Color.c **** * Function Name: Counter_Color_Enable
 128:Generated_Source\PSoC5/Counter_Color.c **** ********************************************************************************
 129:Generated_Source\PSoC5/Counter_Color.c **** * Summary:
 130:Generated_Source\PSoC5/Counter_Color.c **** *     Enable the Counter
 131:Generated_Source\PSoC5/Counter_Color.c **** * 
 132:Generated_Source\PSoC5/Counter_Color.c **** * Parameters:  
 133:Generated_Source\PSoC5/Counter_Color.c **** *  void  
 134:Generated_Source\PSoC5/Counter_Color.c **** *
 135:Generated_Source\PSoC5/Counter_Color.c **** * Return: 
 136:Generated_Source\PSoC5/Counter_Color.c **** *  void
 137:Generated_Source\PSoC5/Counter_Color.c **** *
 138:Generated_Source\PSoC5/Counter_Color.c **** * Side Effects: 
 139:Generated_Source\PSoC5/Counter_Color.c **** *   If the Enable mode is set to Hardware only then this function has no effect 
 140:Generated_Source\PSoC5/Counter_Color.c **** *   on the operation of the counter.
 141:Generated_Source\PSoC5/Counter_Color.c **** *
 142:Generated_Source\PSoC5/Counter_Color.c **** *******************************************************************************/
 143:Generated_Source\PSoC5/Counter_Color.c **** void Counter_Color_Enable(void) 
 144:Generated_Source\PSoC5/Counter_Color.c **** {
ARM GAS  C:\Users\pasan savindu\AppData\Local\Temp\ccGYOE7t.s 			page 4


  28              		.loc 1 144 0
  29              		.cfi_startproc
  30              		@ args = 0, pretend = 0, frame = 0
  31              		@ frame_needed = 0, uses_anonymous_args = 0
  32              		@ link register save eliminated.
 145:Generated_Source\PSoC5/Counter_Color.c ****     /* Globally Enable the Fixed Function Block chosen */
 146:Generated_Source\PSoC5/Counter_Color.c ****     #if (Counter_Color_UsingFixedFunction)
 147:Generated_Source\PSoC5/Counter_Color.c ****         Counter_Color_GLOBAL_ENABLE |= Counter_Color_BLOCK_EN_MASK;
 148:Generated_Source\PSoC5/Counter_Color.c ****         Counter_Color_GLOBAL_STBY_ENABLE |= Counter_Color_BLOCK_STBY_EN_MASK;
 149:Generated_Source\PSoC5/Counter_Color.c ****     #endif /* (Counter_Color_UsingFixedFunction) */  
 150:Generated_Source\PSoC5/Counter_Color.c ****         
 151:Generated_Source\PSoC5/Counter_Color.c ****     /* Enable the counter from the control register  */
 152:Generated_Source\PSoC5/Counter_Color.c ****     /* If Fixed Function then make sure Mode is set correctly */
 153:Generated_Source\PSoC5/Counter_Color.c ****     /* else make sure reset is clear */
 154:Generated_Source\PSoC5/Counter_Color.c ****     #if(!Counter_Color_ControlRegRemoved || Counter_Color_UsingFixedFunction)
 155:Generated_Source\PSoC5/Counter_Color.c ****         Counter_Color_CONTROL |= Counter_Color_CTRL_ENABLE;                
  33              		.loc 1 155 0
  34 0000 024A     		ldr	r2, .L2
  35 0002 1378     		ldrb	r3, [r2]	@ zero_extendqisi2
  36 0004 43F08003 		orr	r3, r3, #128
  37 0008 1370     		strb	r3, [r2]
  38 000a 7047     		bx	lr
  39              	.L3:
  40              		.align	2
  41              	.L2:
  42 000c 74650040 		.word	1073767796
  43              		.cfi_endproc
  44              	.LFE1:
  45              		.size	Counter_Color_Enable, .-Counter_Color_Enable
  46              		.section	.text.Counter_Color_Stop,"ax",%progbits
  47              		.align	2
  48              		.global	Counter_Color_Stop
  49              		.thumb
  50              		.thumb_func
  51              		.type	Counter_Color_Stop, %function
  52              	Counter_Color_Stop:
  53              	.LFB3:
 156:Generated_Source\PSoC5/Counter_Color.c ****     #endif /* (!Counter_Color_ControlRegRemoved || Counter_Color_UsingFixedFunction) */
 157:Generated_Source\PSoC5/Counter_Color.c ****     
 158:Generated_Source\PSoC5/Counter_Color.c **** }
 159:Generated_Source\PSoC5/Counter_Color.c **** 
 160:Generated_Source\PSoC5/Counter_Color.c **** 
 161:Generated_Source\PSoC5/Counter_Color.c **** /*******************************************************************************
 162:Generated_Source\PSoC5/Counter_Color.c **** * Function Name: Counter_Color_Start
 163:Generated_Source\PSoC5/Counter_Color.c **** ********************************************************************************
 164:Generated_Source\PSoC5/Counter_Color.c **** * Summary:
 165:Generated_Source\PSoC5/Counter_Color.c **** *  Enables the counter for operation 
 166:Generated_Source\PSoC5/Counter_Color.c **** *
 167:Generated_Source\PSoC5/Counter_Color.c **** * Parameters:  
 168:Generated_Source\PSoC5/Counter_Color.c **** *  void  
 169:Generated_Source\PSoC5/Counter_Color.c **** *
 170:Generated_Source\PSoC5/Counter_Color.c **** * Return: 
 171:Generated_Source\PSoC5/Counter_Color.c **** *  void
 172:Generated_Source\PSoC5/Counter_Color.c **** *
 173:Generated_Source\PSoC5/Counter_Color.c **** * Global variables:
 174:Generated_Source\PSoC5/Counter_Color.c **** *  Counter_Color_initVar: Is modified when this function is called for the  
 175:Generated_Source\PSoC5/Counter_Color.c **** *   first time. Is used to ensure that initialization happens only once.
ARM GAS  C:\Users\pasan savindu\AppData\Local\Temp\ccGYOE7t.s 			page 5


 176:Generated_Source\PSoC5/Counter_Color.c **** *
 177:Generated_Source\PSoC5/Counter_Color.c **** *******************************************************************************/
 178:Generated_Source\PSoC5/Counter_Color.c **** void Counter_Color_Start(void) 
 179:Generated_Source\PSoC5/Counter_Color.c **** {
 180:Generated_Source\PSoC5/Counter_Color.c ****     if(Counter_Color_initVar == 0u)
 181:Generated_Source\PSoC5/Counter_Color.c ****     {
 182:Generated_Source\PSoC5/Counter_Color.c ****         Counter_Color_Init();
 183:Generated_Source\PSoC5/Counter_Color.c ****         
 184:Generated_Source\PSoC5/Counter_Color.c ****         Counter_Color_initVar = 1u; /* Clear this bit for Initialization */        
 185:Generated_Source\PSoC5/Counter_Color.c ****     }
 186:Generated_Source\PSoC5/Counter_Color.c ****     
 187:Generated_Source\PSoC5/Counter_Color.c ****     /* Enable the Counter */
 188:Generated_Source\PSoC5/Counter_Color.c ****     Counter_Color_Enable();        
 189:Generated_Source\PSoC5/Counter_Color.c **** }
 190:Generated_Source\PSoC5/Counter_Color.c **** 
 191:Generated_Source\PSoC5/Counter_Color.c **** 
 192:Generated_Source\PSoC5/Counter_Color.c **** /*******************************************************************************
 193:Generated_Source\PSoC5/Counter_Color.c **** * Function Name: Counter_Color_Stop
 194:Generated_Source\PSoC5/Counter_Color.c **** ********************************************************************************
 195:Generated_Source\PSoC5/Counter_Color.c **** * Summary:
 196:Generated_Source\PSoC5/Counter_Color.c **** * Halts the counter, but does not change any modes or disable interrupts.
 197:Generated_Source\PSoC5/Counter_Color.c **** *
 198:Generated_Source\PSoC5/Counter_Color.c **** * Parameters:  
 199:Generated_Source\PSoC5/Counter_Color.c **** *  void  
 200:Generated_Source\PSoC5/Counter_Color.c **** *
 201:Generated_Source\PSoC5/Counter_Color.c **** * Return: 
 202:Generated_Source\PSoC5/Counter_Color.c **** *  void
 203:Generated_Source\PSoC5/Counter_Color.c **** *
 204:Generated_Source\PSoC5/Counter_Color.c **** * Side Effects: If the Enable mode is set to Hardware only then this function
 205:Generated_Source\PSoC5/Counter_Color.c **** *               has no effect on the operation of the counter.
 206:Generated_Source\PSoC5/Counter_Color.c **** *
 207:Generated_Source\PSoC5/Counter_Color.c **** *******************************************************************************/
 208:Generated_Source\PSoC5/Counter_Color.c **** void Counter_Color_Stop(void) 
 209:Generated_Source\PSoC5/Counter_Color.c **** {
  54              		.loc 1 209 0
  55              		.cfi_startproc
  56              		@ args = 0, pretend = 0, frame = 0
  57              		@ frame_needed = 0, uses_anonymous_args = 0
  58              		@ link register save eliminated.
 210:Generated_Source\PSoC5/Counter_Color.c ****     /* Disable Counter */
 211:Generated_Source\PSoC5/Counter_Color.c ****     #if(!Counter_Color_ControlRegRemoved || Counter_Color_UsingFixedFunction)
 212:Generated_Source\PSoC5/Counter_Color.c ****         Counter_Color_CONTROL &= ((uint8)(~Counter_Color_CTRL_ENABLE));        
  59              		.loc 1 212 0
  60 0000 024A     		ldr	r2, .L5
  61 0002 1378     		ldrb	r3, [r2]	@ zero_extendqisi2
  62 0004 03F07F03 		and	r3, r3, #127
  63 0008 1370     		strb	r3, [r2]
  64 000a 7047     		bx	lr
  65              	.L6:
  66              		.align	2
  67              	.L5:
  68 000c 74650040 		.word	1073767796
  69              		.cfi_endproc
  70              	.LFE3:
  71              		.size	Counter_Color_Stop, .-Counter_Color_Stop
  72              		.section	.text.Counter_Color_SetInterruptMode,"ax",%progbits
  73              		.align	2
ARM GAS  C:\Users\pasan savindu\AppData\Local\Temp\ccGYOE7t.s 			page 6


  74              		.global	Counter_Color_SetInterruptMode
  75              		.thumb
  76              		.thumb_func
  77              		.type	Counter_Color_SetInterruptMode, %function
  78              	Counter_Color_SetInterruptMode:
  79              	.LFB4:
 213:Generated_Source\PSoC5/Counter_Color.c ****     #endif /* (!Counter_Color_ControlRegRemoved || Counter_Color_UsingFixedFunction) */
 214:Generated_Source\PSoC5/Counter_Color.c ****     
 215:Generated_Source\PSoC5/Counter_Color.c ****     /* Globally disable the Fixed Function Block chosen */
 216:Generated_Source\PSoC5/Counter_Color.c ****     #if (Counter_Color_UsingFixedFunction)
 217:Generated_Source\PSoC5/Counter_Color.c ****         Counter_Color_GLOBAL_ENABLE &= ((uint8)(~Counter_Color_BLOCK_EN_MASK));
 218:Generated_Source\PSoC5/Counter_Color.c ****         Counter_Color_GLOBAL_STBY_ENABLE &= ((uint8)(~Counter_Color_BLOCK_STBY_EN_MASK));
 219:Generated_Source\PSoC5/Counter_Color.c ****     #endif /* (Counter_Color_UsingFixedFunction) */
 220:Generated_Source\PSoC5/Counter_Color.c **** }
 221:Generated_Source\PSoC5/Counter_Color.c **** 
 222:Generated_Source\PSoC5/Counter_Color.c **** 
 223:Generated_Source\PSoC5/Counter_Color.c **** /*******************************************************************************
 224:Generated_Source\PSoC5/Counter_Color.c **** * Function Name: Counter_Color_SetInterruptMode
 225:Generated_Source\PSoC5/Counter_Color.c **** ********************************************************************************
 226:Generated_Source\PSoC5/Counter_Color.c **** * Summary:
 227:Generated_Source\PSoC5/Counter_Color.c **** * Configures which interrupt sources are enabled to generate the final interrupt
 228:Generated_Source\PSoC5/Counter_Color.c **** *
 229:Generated_Source\PSoC5/Counter_Color.c **** * Parameters:  
 230:Generated_Source\PSoC5/Counter_Color.c **** *  InterruptsMask: This parameter is an or'd collection of the status bits
 231:Generated_Source\PSoC5/Counter_Color.c **** *                   which will be allowed to generate the counters interrupt.   
 232:Generated_Source\PSoC5/Counter_Color.c **** *
 233:Generated_Source\PSoC5/Counter_Color.c **** * Return: 
 234:Generated_Source\PSoC5/Counter_Color.c **** *  void
 235:Generated_Source\PSoC5/Counter_Color.c **** *
 236:Generated_Source\PSoC5/Counter_Color.c **** *******************************************************************************/
 237:Generated_Source\PSoC5/Counter_Color.c **** void Counter_Color_SetInterruptMode(uint8 interruptsMask) 
 238:Generated_Source\PSoC5/Counter_Color.c **** {
  80              		.loc 1 238 0
  81              		.cfi_startproc
  82              		@ args = 0, pretend = 0, frame = 0
  83              		@ frame_needed = 0, uses_anonymous_args = 0
  84              		@ link register save eliminated.
  85              	.LVL0:
 239:Generated_Source\PSoC5/Counter_Color.c ****     Counter_Color_STATUS_MASK = interruptsMask;
  86              		.loc 1 239 0
  87 0000 014B     		ldr	r3, .L8
  88 0002 1870     		strb	r0, [r3]
  89 0004 7047     		bx	lr
  90              	.L9:
  91 0006 00BF     		.align	2
  92              	.L8:
  93 0008 82640040 		.word	1073767554
  94              		.cfi_endproc
  95              	.LFE4:
  96              		.size	Counter_Color_SetInterruptMode, .-Counter_Color_SetInterruptMode
  97              		.section	.text.Counter_Color_ReadStatusRegister,"ax",%progbits
  98              		.align	2
  99              		.global	Counter_Color_ReadStatusRegister
 100              		.thumb
 101              		.thumb_func
 102              		.type	Counter_Color_ReadStatusRegister, %function
 103              	Counter_Color_ReadStatusRegister:
ARM GAS  C:\Users\pasan savindu\AppData\Local\Temp\ccGYOE7t.s 			page 7


 104              	.LFB5:
 240:Generated_Source\PSoC5/Counter_Color.c **** }
 241:Generated_Source\PSoC5/Counter_Color.c **** 
 242:Generated_Source\PSoC5/Counter_Color.c **** 
 243:Generated_Source\PSoC5/Counter_Color.c **** /*******************************************************************************
 244:Generated_Source\PSoC5/Counter_Color.c **** * Function Name: Counter_Color_ReadStatusRegister
 245:Generated_Source\PSoC5/Counter_Color.c **** ********************************************************************************
 246:Generated_Source\PSoC5/Counter_Color.c **** * Summary:
 247:Generated_Source\PSoC5/Counter_Color.c **** *   Reads the status register and returns it's state. This function should use
 248:Generated_Source\PSoC5/Counter_Color.c **** *       defined types for the bit-field information as the bits in this
 249:Generated_Source\PSoC5/Counter_Color.c **** *       register may be permuteable.
 250:Generated_Source\PSoC5/Counter_Color.c **** *
 251:Generated_Source\PSoC5/Counter_Color.c **** * Parameters:  
 252:Generated_Source\PSoC5/Counter_Color.c **** *  void
 253:Generated_Source\PSoC5/Counter_Color.c **** *
 254:Generated_Source\PSoC5/Counter_Color.c **** * Return: 
 255:Generated_Source\PSoC5/Counter_Color.c **** *  (uint8) The contents of the status register
 256:Generated_Source\PSoC5/Counter_Color.c **** *
 257:Generated_Source\PSoC5/Counter_Color.c **** * Side Effects:
 258:Generated_Source\PSoC5/Counter_Color.c **** *   Status register bits may be clear on read. 
 259:Generated_Source\PSoC5/Counter_Color.c **** *
 260:Generated_Source\PSoC5/Counter_Color.c **** *******************************************************************************/
 261:Generated_Source\PSoC5/Counter_Color.c **** uint8   Counter_Color_ReadStatusRegister(void) 
 262:Generated_Source\PSoC5/Counter_Color.c **** {
 105              		.loc 1 262 0
 106              		.cfi_startproc
 107              		@ args = 0, pretend = 0, frame = 0
 108              		@ frame_needed = 0, uses_anonymous_args = 0
 109              		@ link register save eliminated.
 263:Generated_Source\PSoC5/Counter_Color.c ****     return Counter_Color_STATUS;
 110              		.loc 1 263 0
 111 0000 014B     		ldr	r3, .L11
 112 0002 1878     		ldrb	r0, [r3]	@ zero_extendqisi2
 264:Generated_Source\PSoC5/Counter_Color.c **** }
 113              		.loc 1 264 0
 114 0004 7047     		bx	lr
 115              	.L12:
 116 0006 00BF     		.align	2
 117              	.L11:
 118 0008 62640040 		.word	1073767522
 119              		.cfi_endproc
 120              	.LFE5:
 121              		.size	Counter_Color_ReadStatusRegister, .-Counter_Color_ReadStatusRegister
 122              		.section	.text.Counter_Color_ReadControlRegister,"ax",%progbits
 123              		.align	2
 124              		.global	Counter_Color_ReadControlRegister
 125              		.thumb
 126              		.thumb_func
 127              		.type	Counter_Color_ReadControlRegister, %function
 128              	Counter_Color_ReadControlRegister:
 129              	.LFB6:
 265:Generated_Source\PSoC5/Counter_Color.c **** 
 266:Generated_Source\PSoC5/Counter_Color.c **** 
 267:Generated_Source\PSoC5/Counter_Color.c **** #if(!Counter_Color_ControlRegRemoved)
 268:Generated_Source\PSoC5/Counter_Color.c **** /*******************************************************************************
 269:Generated_Source\PSoC5/Counter_Color.c **** * Function Name: Counter_Color_ReadControlRegister
 270:Generated_Source\PSoC5/Counter_Color.c **** ********************************************************************************
ARM GAS  C:\Users\pasan savindu\AppData\Local\Temp\ccGYOE7t.s 			page 8


 271:Generated_Source\PSoC5/Counter_Color.c **** * Summary:
 272:Generated_Source\PSoC5/Counter_Color.c **** *   Reads the control register and returns it's state. This function should use
 273:Generated_Source\PSoC5/Counter_Color.c **** *       defined types for the bit-field information as the bits in this
 274:Generated_Source\PSoC5/Counter_Color.c **** *       register may be permuteable.
 275:Generated_Source\PSoC5/Counter_Color.c **** *
 276:Generated_Source\PSoC5/Counter_Color.c **** * Parameters:  
 277:Generated_Source\PSoC5/Counter_Color.c **** *  void
 278:Generated_Source\PSoC5/Counter_Color.c **** *
 279:Generated_Source\PSoC5/Counter_Color.c **** * Return: 
 280:Generated_Source\PSoC5/Counter_Color.c **** *  (uint8) The contents of the control register
 281:Generated_Source\PSoC5/Counter_Color.c **** *
 282:Generated_Source\PSoC5/Counter_Color.c **** *******************************************************************************/
 283:Generated_Source\PSoC5/Counter_Color.c **** uint8   Counter_Color_ReadControlRegister(void) 
 284:Generated_Source\PSoC5/Counter_Color.c **** {
 130              		.loc 1 284 0
 131              		.cfi_startproc
 132              		@ args = 0, pretend = 0, frame = 0
 133              		@ frame_needed = 0, uses_anonymous_args = 0
 134              		@ link register save eliminated.
 285:Generated_Source\PSoC5/Counter_Color.c ****     return Counter_Color_CONTROL;
 135              		.loc 1 285 0
 136 0000 014B     		ldr	r3, .L14
 137 0002 1878     		ldrb	r0, [r3]	@ zero_extendqisi2
 286:Generated_Source\PSoC5/Counter_Color.c **** }
 138              		.loc 1 286 0
 139 0004 7047     		bx	lr
 140              	.L15:
 141 0006 00BF     		.align	2
 142              	.L14:
 143 0008 74650040 		.word	1073767796
 144              		.cfi_endproc
 145              	.LFE6:
 146              		.size	Counter_Color_ReadControlRegister, .-Counter_Color_ReadControlRegister
 147              		.section	.text.Counter_Color_WriteControlRegister,"ax",%progbits
 148              		.align	2
 149              		.global	Counter_Color_WriteControlRegister
 150              		.thumb
 151              		.thumb_func
 152              		.type	Counter_Color_WriteControlRegister, %function
 153              	Counter_Color_WriteControlRegister:
 154              	.LFB7:
 287:Generated_Source\PSoC5/Counter_Color.c **** 
 288:Generated_Source\PSoC5/Counter_Color.c **** 
 289:Generated_Source\PSoC5/Counter_Color.c **** /*******************************************************************************
 290:Generated_Source\PSoC5/Counter_Color.c **** * Function Name: Counter_Color_WriteControlRegister
 291:Generated_Source\PSoC5/Counter_Color.c **** ********************************************************************************
 292:Generated_Source\PSoC5/Counter_Color.c **** * Summary:
 293:Generated_Source\PSoC5/Counter_Color.c **** *   Sets the bit-field of the control register.  This function should use
 294:Generated_Source\PSoC5/Counter_Color.c **** *       defined types for the bit-field information as the bits in this
 295:Generated_Source\PSoC5/Counter_Color.c **** *       register may be permuteable.
 296:Generated_Source\PSoC5/Counter_Color.c **** *
 297:Generated_Source\PSoC5/Counter_Color.c **** * Parameters:  
 298:Generated_Source\PSoC5/Counter_Color.c **** *  void
 299:Generated_Source\PSoC5/Counter_Color.c **** *
 300:Generated_Source\PSoC5/Counter_Color.c **** * Return: 
 301:Generated_Source\PSoC5/Counter_Color.c **** *  (uint8) The contents of the control register
 302:Generated_Source\PSoC5/Counter_Color.c **** *
ARM GAS  C:\Users\pasan savindu\AppData\Local\Temp\ccGYOE7t.s 			page 9


 303:Generated_Source\PSoC5/Counter_Color.c **** *******************************************************************************/
 304:Generated_Source\PSoC5/Counter_Color.c **** void    Counter_Color_WriteControlRegister(uint8 control) 
 305:Generated_Source\PSoC5/Counter_Color.c **** {
 155              		.loc 1 305 0
 156              		.cfi_startproc
 157              		@ args = 0, pretend = 0, frame = 0
 158              		@ frame_needed = 0, uses_anonymous_args = 0
 159              		@ link register save eliminated.
 160              	.LVL1:
 306:Generated_Source\PSoC5/Counter_Color.c ****     Counter_Color_CONTROL = control;
 161              		.loc 1 306 0
 162 0000 014B     		ldr	r3, .L17
 163 0002 1870     		strb	r0, [r3]
 164 0004 7047     		bx	lr
 165              	.L18:
 166 0006 00BF     		.align	2
 167              	.L17:
 168 0008 74650040 		.word	1073767796
 169              		.cfi_endproc
 170              	.LFE7:
 171              		.size	Counter_Color_WriteControlRegister, .-Counter_Color_WriteControlRegister
 172              		.section	.text.Counter_Color_WriteCounter,"ax",%progbits
 173              		.align	2
 174              		.global	Counter_Color_WriteCounter
 175              		.thumb
 176              		.thumb_func
 177              		.type	Counter_Color_WriteCounter, %function
 178              	Counter_Color_WriteCounter:
 179              	.LFB8:
 307:Generated_Source\PSoC5/Counter_Color.c **** }
 308:Generated_Source\PSoC5/Counter_Color.c **** 
 309:Generated_Source\PSoC5/Counter_Color.c **** #endif  /* (!Counter_Color_ControlRegRemoved) */
 310:Generated_Source\PSoC5/Counter_Color.c **** 
 311:Generated_Source\PSoC5/Counter_Color.c **** 
 312:Generated_Source\PSoC5/Counter_Color.c **** #if (!(Counter_Color_UsingFixedFunction && (CY_PSOC5A)))
 313:Generated_Source\PSoC5/Counter_Color.c **** /*******************************************************************************
 314:Generated_Source\PSoC5/Counter_Color.c **** * Function Name: Counter_Color_WriteCounter
 315:Generated_Source\PSoC5/Counter_Color.c **** ********************************************************************************
 316:Generated_Source\PSoC5/Counter_Color.c **** * Summary:
 317:Generated_Source\PSoC5/Counter_Color.c **** *   This funtion is used to set the counter to a specific value
 318:Generated_Source\PSoC5/Counter_Color.c **** *
 319:Generated_Source\PSoC5/Counter_Color.c **** * Parameters:  
 320:Generated_Source\PSoC5/Counter_Color.c **** *  counter:  New counter value. 
 321:Generated_Source\PSoC5/Counter_Color.c **** *
 322:Generated_Source\PSoC5/Counter_Color.c **** * Return: 
 323:Generated_Source\PSoC5/Counter_Color.c **** *  void 
 324:Generated_Source\PSoC5/Counter_Color.c **** *
 325:Generated_Source\PSoC5/Counter_Color.c **** *******************************************************************************/
 326:Generated_Source\PSoC5/Counter_Color.c **** void Counter_Color_WriteCounter(uint32 counter) \
 327:Generated_Source\PSoC5/Counter_Color.c ****                                    
 328:Generated_Source\PSoC5/Counter_Color.c **** {
 180              		.loc 1 328 0
 181              		.cfi_startproc
 182              		@ args = 0, pretend = 0, frame = 0
 183              		@ frame_needed = 0, uses_anonymous_args = 0
 184              	.LVL2:
 185 0000 08B5     		push	{r3, lr}
ARM GAS  C:\Users\pasan savindu\AppData\Local\Temp\ccGYOE7t.s 			page 10


 186              		.cfi_def_cfa_offset 8
 187              		.cfi_offset 3, -8
 188              		.cfi_offset 14, -4
 329:Generated_Source\PSoC5/Counter_Color.c ****     #if(Counter_Color_UsingFixedFunction)
 330:Generated_Source\PSoC5/Counter_Color.c ****         /* assert if block is already enabled */
 331:Generated_Source\PSoC5/Counter_Color.c ****         CYASSERT (0u == (Counter_Color_GLOBAL_ENABLE & Counter_Color_BLOCK_EN_MASK));
 332:Generated_Source\PSoC5/Counter_Color.c ****         /* If block is disabled, enable it and then write the counter */
 333:Generated_Source\PSoC5/Counter_Color.c ****         Counter_Color_GLOBAL_ENABLE |= Counter_Color_BLOCK_EN_MASK;
 334:Generated_Source\PSoC5/Counter_Color.c ****         CY_SET_REG16(Counter_Color_COUNTER_LSB_PTR, (uint16)counter);
 335:Generated_Source\PSoC5/Counter_Color.c ****         Counter_Color_GLOBAL_ENABLE &= ((uint8)(~Counter_Color_BLOCK_EN_MASK));
 336:Generated_Source\PSoC5/Counter_Color.c ****     #else
 337:Generated_Source\PSoC5/Counter_Color.c ****         CY_SET_REG24(Counter_Color_COUNTER_LSB_PTR, counter);
 189              		.loc 1 337 0
 190 0002 0146     		mov	r1, r0
 191 0004 0148     		ldr	r0, .L21
 192              	.LVL3:
 193 0006 FFF7FEFF 		bl	CySetReg24
 194              	.LVL4:
 195 000a 08BD     		pop	{r3, pc}
 196              	.L22:
 197              		.align	2
 198              	.L21:
 199 000c 04640040 		.word	1073767428
 200              		.cfi_endproc
 201              	.LFE8:
 202              		.size	Counter_Color_WriteCounter, .-Counter_Color_WriteCounter
 203              		.section	.text.Counter_Color_ReadCounter,"ax",%progbits
 204              		.align	2
 205              		.global	Counter_Color_ReadCounter
 206              		.thumb
 207              		.thumb_func
 208              		.type	Counter_Color_ReadCounter, %function
 209              	Counter_Color_ReadCounter:
 210              	.LFB9:
 338:Generated_Source\PSoC5/Counter_Color.c ****     #endif /* (Counter_Color_UsingFixedFunction) */
 339:Generated_Source\PSoC5/Counter_Color.c **** }
 340:Generated_Source\PSoC5/Counter_Color.c **** #endif /* (!(Counter_Color_UsingFixedFunction && (CY_PSOC5A))) */
 341:Generated_Source\PSoC5/Counter_Color.c **** 
 342:Generated_Source\PSoC5/Counter_Color.c **** 
 343:Generated_Source\PSoC5/Counter_Color.c **** /*******************************************************************************
 344:Generated_Source\PSoC5/Counter_Color.c **** * Function Name: Counter_Color_ReadCounter
 345:Generated_Source\PSoC5/Counter_Color.c **** ********************************************************************************
 346:Generated_Source\PSoC5/Counter_Color.c **** * Summary:
 347:Generated_Source\PSoC5/Counter_Color.c **** * Returns the current value of the counter.  It doesn't matter
 348:Generated_Source\PSoC5/Counter_Color.c **** * if the counter is enabled or running.
 349:Generated_Source\PSoC5/Counter_Color.c **** *
 350:Generated_Source\PSoC5/Counter_Color.c **** * Parameters:  
 351:Generated_Source\PSoC5/Counter_Color.c **** *  void:  
 352:Generated_Source\PSoC5/Counter_Color.c **** *
 353:Generated_Source\PSoC5/Counter_Color.c **** * Return: 
 354:Generated_Source\PSoC5/Counter_Color.c **** *  (uint32) The present value of the counter.
 355:Generated_Source\PSoC5/Counter_Color.c **** *
 356:Generated_Source\PSoC5/Counter_Color.c **** *******************************************************************************/
 357:Generated_Source\PSoC5/Counter_Color.c **** uint32 Counter_Color_ReadCounter(void) 
 358:Generated_Source\PSoC5/Counter_Color.c **** {
 211              		.loc 1 358 0
 212              		.cfi_startproc
ARM GAS  C:\Users\pasan savindu\AppData\Local\Temp\ccGYOE7t.s 			page 11


 213              		@ args = 0, pretend = 0, frame = 0
 214              		@ frame_needed = 0, uses_anonymous_args = 0
 215              		@ link register save eliminated.
 359:Generated_Source\PSoC5/Counter_Color.c ****     /* Force capture by reading Accumulator */
 360:Generated_Source\PSoC5/Counter_Color.c ****     /* Must first do a software capture to be able to read the counter */
 361:Generated_Source\PSoC5/Counter_Color.c ****     /* It is up to the user code to make sure there isn't already captured data in the FIFO */
 362:Generated_Source\PSoC5/Counter_Color.c ****     #if(Counter_Color_UsingFixedFunction)
 363:Generated_Source\PSoC5/Counter_Color.c **** 		(void)CY_GET_REG16(Counter_Color_COUNTER_LSB_PTR);
 364:Generated_Source\PSoC5/Counter_Color.c **** 	#else
 365:Generated_Source\PSoC5/Counter_Color.c **** 		(void)CY_GET_REG8(Counter_Color_COUNTER_LSB_PTR_8BIT);
 216              		.loc 1 365 0
 217 0000 034B     		ldr	r3, .L24
 218 0002 1B78     		ldrb	r3, [r3]	@ zero_extendqisi2
 366:Generated_Source\PSoC5/Counter_Color.c **** 	#endif/* (Counter_Color_UsingFixedFunction) */
 367:Generated_Source\PSoC5/Counter_Color.c ****     
 368:Generated_Source\PSoC5/Counter_Color.c ****     /* Read the data from the FIFO (or capture register for Fixed Function)*/
 369:Generated_Source\PSoC5/Counter_Color.c ****     #if(Counter_Color_UsingFixedFunction)
 370:Generated_Source\PSoC5/Counter_Color.c ****         return ((uint32)CY_GET_REG16(Counter_Color_STATICCOUNT_LSB_PTR));
 371:Generated_Source\PSoC5/Counter_Color.c ****     #else
 372:Generated_Source\PSoC5/Counter_Color.c ****         return (CY_GET_REG24(Counter_Color_STATICCOUNT_LSB_PTR));
 219              		.loc 1 372 0
 220 0004 034B     		ldr	r3, .L24+4
 221 0006 1868     		ldr	r0, [r3]
 373:Generated_Source\PSoC5/Counter_Color.c ****     #endif /* (Counter_Color_UsingFixedFunction) */
 374:Generated_Source\PSoC5/Counter_Color.c **** }
 222              		.loc 1 374 0
 223 0008 20F07F40 		bic	r0, r0, #-16777216
 224 000c 7047     		bx	lr
 225              	.L25:
 226 000e 00BF     		.align	2
 227              	.L24:
 228 0010 04640040 		.word	1073767428
 229 0014 44640040 		.word	1073767492
 230              		.cfi_endproc
 231              	.LFE9:
 232              		.size	Counter_Color_ReadCounter, .-Counter_Color_ReadCounter
 233              		.section	.text.Counter_Color_ReadCapture,"ax",%progbits
 234              		.align	2
 235              		.global	Counter_Color_ReadCapture
 236              		.thumb
 237              		.thumb_func
 238              		.type	Counter_Color_ReadCapture, %function
 239              	Counter_Color_ReadCapture:
 240              	.LFB10:
 375:Generated_Source\PSoC5/Counter_Color.c **** 
 376:Generated_Source\PSoC5/Counter_Color.c **** 
 377:Generated_Source\PSoC5/Counter_Color.c **** /*******************************************************************************
 378:Generated_Source\PSoC5/Counter_Color.c **** * Function Name: Counter_Color_ReadCapture
 379:Generated_Source\PSoC5/Counter_Color.c **** ********************************************************************************
 380:Generated_Source\PSoC5/Counter_Color.c **** * Summary:
 381:Generated_Source\PSoC5/Counter_Color.c **** *   This function returns the last value captured.
 382:Generated_Source\PSoC5/Counter_Color.c **** *
 383:Generated_Source\PSoC5/Counter_Color.c **** * Parameters:  
 384:Generated_Source\PSoC5/Counter_Color.c **** *  void
 385:Generated_Source\PSoC5/Counter_Color.c **** *
 386:Generated_Source\PSoC5/Counter_Color.c **** * Return: 
 387:Generated_Source\PSoC5/Counter_Color.c **** *  (uint32) Present Capture value.
ARM GAS  C:\Users\pasan savindu\AppData\Local\Temp\ccGYOE7t.s 			page 12


 388:Generated_Source\PSoC5/Counter_Color.c **** *
 389:Generated_Source\PSoC5/Counter_Color.c **** *******************************************************************************/
 390:Generated_Source\PSoC5/Counter_Color.c **** uint32 Counter_Color_ReadCapture(void) 
 391:Generated_Source\PSoC5/Counter_Color.c **** {
 241              		.loc 1 391 0
 242              		.cfi_startproc
 243              		@ args = 0, pretend = 0, frame = 0
 244              		@ frame_needed = 0, uses_anonymous_args = 0
 245              		@ link register save eliminated.
 392:Generated_Source\PSoC5/Counter_Color.c ****     #if(Counter_Color_UsingFixedFunction)
 393:Generated_Source\PSoC5/Counter_Color.c ****         return ((uint32)CY_GET_REG16(Counter_Color_STATICCOUNT_LSB_PTR));
 394:Generated_Source\PSoC5/Counter_Color.c ****     #else
 395:Generated_Source\PSoC5/Counter_Color.c ****         return (CY_GET_REG24(Counter_Color_STATICCOUNT_LSB_PTR));
 246              		.loc 1 395 0
 247 0000 024B     		ldr	r3, .L27
 248 0002 1868     		ldr	r0, [r3]
 396:Generated_Source\PSoC5/Counter_Color.c ****     #endif /* (Counter_Color_UsingFixedFunction) */
 397:Generated_Source\PSoC5/Counter_Color.c **** }
 249              		.loc 1 397 0
 250 0004 20F07F40 		bic	r0, r0, #-16777216
 251 0008 7047     		bx	lr
 252              	.L28:
 253 000a 00BF     		.align	2
 254              	.L27:
 255 000c 44640040 		.word	1073767492
 256              		.cfi_endproc
 257              	.LFE10:
 258              		.size	Counter_Color_ReadCapture, .-Counter_Color_ReadCapture
 259              		.section	.text.Counter_Color_WritePeriod,"ax",%progbits
 260              		.align	2
 261              		.global	Counter_Color_WritePeriod
 262              		.thumb
 263              		.thumb_func
 264              		.type	Counter_Color_WritePeriod, %function
 265              	Counter_Color_WritePeriod:
 266              	.LFB11:
 398:Generated_Source\PSoC5/Counter_Color.c **** 
 399:Generated_Source\PSoC5/Counter_Color.c **** 
 400:Generated_Source\PSoC5/Counter_Color.c **** /*******************************************************************************
 401:Generated_Source\PSoC5/Counter_Color.c **** * Function Name: Counter_Color_WritePeriod
 402:Generated_Source\PSoC5/Counter_Color.c **** ********************************************************************************
 403:Generated_Source\PSoC5/Counter_Color.c **** * Summary:
 404:Generated_Source\PSoC5/Counter_Color.c **** * Changes the period of the counter.  The new period 
 405:Generated_Source\PSoC5/Counter_Color.c **** * will be loaded the next time terminal count is detected.
 406:Generated_Source\PSoC5/Counter_Color.c **** *
 407:Generated_Source\PSoC5/Counter_Color.c **** * Parameters:  
 408:Generated_Source\PSoC5/Counter_Color.c **** *  period: (uint32) A value of 0 will result in
 409:Generated_Source\PSoC5/Counter_Color.c **** *         the counter remaining at zero.  
 410:Generated_Source\PSoC5/Counter_Color.c **** *
 411:Generated_Source\PSoC5/Counter_Color.c **** * Return: 
 412:Generated_Source\PSoC5/Counter_Color.c **** *  void
 413:Generated_Source\PSoC5/Counter_Color.c **** *
 414:Generated_Source\PSoC5/Counter_Color.c **** *******************************************************************************/
 415:Generated_Source\PSoC5/Counter_Color.c **** void Counter_Color_WritePeriod(uint32 period) 
 416:Generated_Source\PSoC5/Counter_Color.c **** {
 267              		.loc 1 416 0
 268              		.cfi_startproc
ARM GAS  C:\Users\pasan savindu\AppData\Local\Temp\ccGYOE7t.s 			page 13


 269              		@ args = 0, pretend = 0, frame = 0
 270              		@ frame_needed = 0, uses_anonymous_args = 0
 271              	.LVL5:
 272 0000 08B5     		push	{r3, lr}
 273              		.cfi_def_cfa_offset 8
 274              		.cfi_offset 3, -8
 275              		.cfi_offset 14, -4
 417:Generated_Source\PSoC5/Counter_Color.c ****     #if(Counter_Color_UsingFixedFunction)
 418:Generated_Source\PSoC5/Counter_Color.c ****         CY_SET_REG16(Counter_Color_PERIOD_LSB_PTR,(uint16)period);
 419:Generated_Source\PSoC5/Counter_Color.c ****     #else
 420:Generated_Source\PSoC5/Counter_Color.c ****         CY_SET_REG24(Counter_Color_PERIOD_LSB_PTR, period);
 276              		.loc 1 420 0
 277 0002 0146     		mov	r1, r0
 278 0004 0148     		ldr	r0, .L31
 279              	.LVL6:
 280 0006 FFF7FEFF 		bl	CySetReg24
 281              	.LVL7:
 282 000a 08BD     		pop	{r3, pc}
 283              	.L32:
 284              		.align	2
 285              	.L31:
 286 000c 24640040 		.word	1073767460
 287              		.cfi_endproc
 288              	.LFE11:
 289              		.size	Counter_Color_WritePeriod, .-Counter_Color_WritePeriod
 290              		.section	.text.Counter_Color_ReadPeriod,"ax",%progbits
 291              		.align	2
 292              		.global	Counter_Color_ReadPeriod
 293              		.thumb
 294              		.thumb_func
 295              		.type	Counter_Color_ReadPeriod, %function
 296              	Counter_Color_ReadPeriod:
 297              	.LFB12:
 421:Generated_Source\PSoC5/Counter_Color.c ****     #endif /* (Counter_Color_UsingFixedFunction) */
 422:Generated_Source\PSoC5/Counter_Color.c **** }
 423:Generated_Source\PSoC5/Counter_Color.c **** 
 424:Generated_Source\PSoC5/Counter_Color.c **** 
 425:Generated_Source\PSoC5/Counter_Color.c **** /*******************************************************************************
 426:Generated_Source\PSoC5/Counter_Color.c **** * Function Name: Counter_Color_ReadPeriod
 427:Generated_Source\PSoC5/Counter_Color.c **** ********************************************************************************
 428:Generated_Source\PSoC5/Counter_Color.c **** * Summary:
 429:Generated_Source\PSoC5/Counter_Color.c **** * Reads the current period value without affecting counter operation.
 430:Generated_Source\PSoC5/Counter_Color.c **** *
 431:Generated_Source\PSoC5/Counter_Color.c **** * Parameters:  
 432:Generated_Source\PSoC5/Counter_Color.c **** *  void:  
 433:Generated_Source\PSoC5/Counter_Color.c **** *
 434:Generated_Source\PSoC5/Counter_Color.c **** * Return: 
 435:Generated_Source\PSoC5/Counter_Color.c **** *  (uint32) Present period value.
 436:Generated_Source\PSoC5/Counter_Color.c **** *
 437:Generated_Source\PSoC5/Counter_Color.c **** *******************************************************************************/
 438:Generated_Source\PSoC5/Counter_Color.c **** uint32 Counter_Color_ReadPeriod(void) 
 439:Generated_Source\PSoC5/Counter_Color.c **** {
 298              		.loc 1 439 0
 299              		.cfi_startproc
 300              		@ args = 0, pretend = 0, frame = 0
 301              		@ frame_needed = 0, uses_anonymous_args = 0
 302              		@ link register save eliminated.
ARM GAS  C:\Users\pasan savindu\AppData\Local\Temp\ccGYOE7t.s 			page 14


 440:Generated_Source\PSoC5/Counter_Color.c ****     #if(Counter_Color_UsingFixedFunction)
 441:Generated_Source\PSoC5/Counter_Color.c ****         return ((uint32)CY_GET_REG16(Counter_Color_PERIOD_LSB_PTR));
 442:Generated_Source\PSoC5/Counter_Color.c ****     #else
 443:Generated_Source\PSoC5/Counter_Color.c ****         return (CY_GET_REG24(Counter_Color_PERIOD_LSB_PTR));
 303              		.loc 1 443 0
 304 0000 024B     		ldr	r3, .L34
 305 0002 1868     		ldr	r0, [r3]
 444:Generated_Source\PSoC5/Counter_Color.c ****     #endif /* (Counter_Color_UsingFixedFunction) */
 445:Generated_Source\PSoC5/Counter_Color.c **** }
 306              		.loc 1 445 0
 307 0004 20F07F40 		bic	r0, r0, #-16777216
 308 0008 7047     		bx	lr
 309              	.L35:
 310 000a 00BF     		.align	2
 311              	.L34:
 312 000c 24640040 		.word	1073767460
 313              		.cfi_endproc
 314              	.LFE12:
 315              		.size	Counter_Color_ReadPeriod, .-Counter_Color_ReadPeriod
 316              		.section	.text.Counter_Color_WriteCompare,"ax",%progbits
 317              		.align	2
 318              		.global	Counter_Color_WriteCompare
 319              		.thumb
 320              		.thumb_func
 321              		.type	Counter_Color_WriteCompare, %function
 322              	Counter_Color_WriteCompare:
 323              	.LFB13:
 446:Generated_Source\PSoC5/Counter_Color.c **** 
 447:Generated_Source\PSoC5/Counter_Color.c **** 
 448:Generated_Source\PSoC5/Counter_Color.c **** #if (!Counter_Color_UsingFixedFunction)
 449:Generated_Source\PSoC5/Counter_Color.c **** /*******************************************************************************
 450:Generated_Source\PSoC5/Counter_Color.c **** * Function Name: Counter_Color_WriteCompare
 451:Generated_Source\PSoC5/Counter_Color.c **** ********************************************************************************
 452:Generated_Source\PSoC5/Counter_Color.c **** * Summary:
 453:Generated_Source\PSoC5/Counter_Color.c **** * Changes the compare value.  The compare output will 
 454:Generated_Source\PSoC5/Counter_Color.c **** * reflect the new value on the next UDB clock.  The compare output will be 
 455:Generated_Source\PSoC5/Counter_Color.c **** * driven high when the present counter value compares true based on the 
 456:Generated_Source\PSoC5/Counter_Color.c **** * configured compare mode setting. 
 457:Generated_Source\PSoC5/Counter_Color.c **** *
 458:Generated_Source\PSoC5/Counter_Color.c **** * Parameters:  
 459:Generated_Source\PSoC5/Counter_Color.c **** *  Compare:  New compare value. 
 460:Generated_Source\PSoC5/Counter_Color.c **** *
 461:Generated_Source\PSoC5/Counter_Color.c **** * Return: 
 462:Generated_Source\PSoC5/Counter_Color.c **** *  void
 463:Generated_Source\PSoC5/Counter_Color.c **** *
 464:Generated_Source\PSoC5/Counter_Color.c **** *******************************************************************************/
 465:Generated_Source\PSoC5/Counter_Color.c **** void Counter_Color_WriteCompare(uint32 compare) \
 466:Generated_Source\PSoC5/Counter_Color.c ****                                    
 467:Generated_Source\PSoC5/Counter_Color.c **** {
 324              		.loc 1 467 0
 325              		.cfi_startproc
 326              		@ args = 0, pretend = 0, frame = 0
 327              		@ frame_needed = 0, uses_anonymous_args = 0
 328              	.LVL8:
 329 0000 08B5     		push	{r3, lr}
 330              		.cfi_def_cfa_offset 8
 331              		.cfi_offset 3, -8
ARM GAS  C:\Users\pasan savindu\AppData\Local\Temp\ccGYOE7t.s 			page 15


 332              		.cfi_offset 14, -4
 468:Generated_Source\PSoC5/Counter_Color.c ****     #if(Counter_Color_UsingFixedFunction)
 469:Generated_Source\PSoC5/Counter_Color.c ****         CY_SET_REG16(Counter_Color_COMPARE_LSB_PTR, (uint16)compare);
 470:Generated_Source\PSoC5/Counter_Color.c ****     #else
 471:Generated_Source\PSoC5/Counter_Color.c ****         CY_SET_REG24(Counter_Color_COMPARE_LSB_PTR, compare);
 333              		.loc 1 471 0
 334 0002 0146     		mov	r1, r0
 335 0004 0148     		ldr	r0, .L38
 336              	.LVL9:
 337 0006 FFF7FEFF 		bl	CySetReg24
 338              	.LVL10:
 339 000a 08BD     		pop	{r3, pc}
 340              	.L39:
 341              		.align	2
 342              	.L38:
 343 000c 34640040 		.word	1073767476
 344              		.cfi_endproc
 345              	.LFE13:
 346              		.size	Counter_Color_WriteCompare, .-Counter_Color_WriteCompare
 347              		.section	.text.Counter_Color_ReadCompare,"ax",%progbits
 348              		.align	2
 349              		.global	Counter_Color_ReadCompare
 350              		.thumb
 351              		.thumb_func
 352              		.type	Counter_Color_ReadCompare, %function
 353              	Counter_Color_ReadCompare:
 354              	.LFB14:
 472:Generated_Source\PSoC5/Counter_Color.c ****     #endif /* (Counter_Color_UsingFixedFunction) */
 473:Generated_Source\PSoC5/Counter_Color.c **** }
 474:Generated_Source\PSoC5/Counter_Color.c **** 
 475:Generated_Source\PSoC5/Counter_Color.c **** 
 476:Generated_Source\PSoC5/Counter_Color.c **** /*******************************************************************************
 477:Generated_Source\PSoC5/Counter_Color.c **** * Function Name: Counter_Color_ReadCompare
 478:Generated_Source\PSoC5/Counter_Color.c **** ********************************************************************************
 479:Generated_Source\PSoC5/Counter_Color.c **** * Summary:
 480:Generated_Source\PSoC5/Counter_Color.c **** * Returns the compare value.
 481:Generated_Source\PSoC5/Counter_Color.c **** *
 482:Generated_Source\PSoC5/Counter_Color.c **** * Parameters:  
 483:Generated_Source\PSoC5/Counter_Color.c **** *  void:
 484:Generated_Source\PSoC5/Counter_Color.c **** *
 485:Generated_Source\PSoC5/Counter_Color.c **** * Return: 
 486:Generated_Source\PSoC5/Counter_Color.c **** *  (uint32) Present compare value.
 487:Generated_Source\PSoC5/Counter_Color.c **** *
 488:Generated_Source\PSoC5/Counter_Color.c **** *******************************************************************************/
 489:Generated_Source\PSoC5/Counter_Color.c **** uint32 Counter_Color_ReadCompare(void) 
 490:Generated_Source\PSoC5/Counter_Color.c **** {
 355              		.loc 1 490 0
 356              		.cfi_startproc
 357              		@ args = 0, pretend = 0, frame = 0
 358              		@ frame_needed = 0, uses_anonymous_args = 0
 359              		@ link register save eliminated.
 491:Generated_Source\PSoC5/Counter_Color.c ****     return (CY_GET_REG24(Counter_Color_COMPARE_LSB_PTR));
 360              		.loc 1 491 0
 361 0000 024B     		ldr	r3, .L41
 362 0002 1868     		ldr	r0, [r3]
 492:Generated_Source\PSoC5/Counter_Color.c **** }
 363              		.loc 1 492 0
ARM GAS  C:\Users\pasan savindu\AppData\Local\Temp\ccGYOE7t.s 			page 16


 364 0004 20F07F40 		bic	r0, r0, #-16777216
 365 0008 7047     		bx	lr
 366              	.L42:
 367 000a 00BF     		.align	2
 368              	.L41:
 369 000c 34640040 		.word	1073767476
 370              		.cfi_endproc
 371              	.LFE14:
 372              		.size	Counter_Color_ReadCompare, .-Counter_Color_ReadCompare
 373              		.section	.text.Counter_Color_ClearFIFO,"ax",%progbits
 374              		.align	2
 375              		.global	Counter_Color_ClearFIFO
 376              		.thumb
 377              		.thumb_func
 378              		.type	Counter_Color_ClearFIFO, %function
 379              	Counter_Color_ClearFIFO:
 380              	.LFB15:
 493:Generated_Source\PSoC5/Counter_Color.c **** 
 494:Generated_Source\PSoC5/Counter_Color.c **** 
 495:Generated_Source\PSoC5/Counter_Color.c **** #if (Counter_Color_COMPARE_MODE_SOFTWARE)
 496:Generated_Source\PSoC5/Counter_Color.c **** /*******************************************************************************
 497:Generated_Source\PSoC5/Counter_Color.c **** * Function Name: Counter_Color_SetCompareMode
 498:Generated_Source\PSoC5/Counter_Color.c **** ********************************************************************************
 499:Generated_Source\PSoC5/Counter_Color.c **** * Summary:
 500:Generated_Source\PSoC5/Counter_Color.c **** *  Sets the software controlled Compare Mode.
 501:Generated_Source\PSoC5/Counter_Color.c **** *
 502:Generated_Source\PSoC5/Counter_Color.c **** * Parameters:
 503:Generated_Source\PSoC5/Counter_Color.c **** *  compareMode:  Compare Mode Enumerated Type.
 504:Generated_Source\PSoC5/Counter_Color.c **** *
 505:Generated_Source\PSoC5/Counter_Color.c **** * Return:
 506:Generated_Source\PSoC5/Counter_Color.c **** *  void
 507:Generated_Source\PSoC5/Counter_Color.c **** *
 508:Generated_Source\PSoC5/Counter_Color.c **** *******************************************************************************/
 509:Generated_Source\PSoC5/Counter_Color.c **** void Counter_Color_SetCompareMode(uint8 compareMode) 
 510:Generated_Source\PSoC5/Counter_Color.c **** {
 511:Generated_Source\PSoC5/Counter_Color.c ****     /* Clear the compare mode bits in the control register */
 512:Generated_Source\PSoC5/Counter_Color.c ****     Counter_Color_CONTROL &= ((uint8)(~Counter_Color_CTRL_CMPMODE_MASK));
 513:Generated_Source\PSoC5/Counter_Color.c ****     
 514:Generated_Source\PSoC5/Counter_Color.c ****     /* Write the new setting */
 515:Generated_Source\PSoC5/Counter_Color.c ****     Counter_Color_CONTROL |= compareMode;
 516:Generated_Source\PSoC5/Counter_Color.c **** }
 517:Generated_Source\PSoC5/Counter_Color.c **** #endif  /* (Counter_Color_COMPARE_MODE_SOFTWARE) */
 518:Generated_Source\PSoC5/Counter_Color.c **** 
 519:Generated_Source\PSoC5/Counter_Color.c **** 
 520:Generated_Source\PSoC5/Counter_Color.c **** #if (Counter_Color_CAPTURE_MODE_SOFTWARE)
 521:Generated_Source\PSoC5/Counter_Color.c **** /*******************************************************************************
 522:Generated_Source\PSoC5/Counter_Color.c **** * Function Name: Counter_Color_SetCaptureMode
 523:Generated_Source\PSoC5/Counter_Color.c **** ********************************************************************************
 524:Generated_Source\PSoC5/Counter_Color.c **** * Summary:
 525:Generated_Source\PSoC5/Counter_Color.c **** *  Sets the software controlled Capture Mode.
 526:Generated_Source\PSoC5/Counter_Color.c **** *
 527:Generated_Source\PSoC5/Counter_Color.c **** * Parameters:
 528:Generated_Source\PSoC5/Counter_Color.c **** *  captureMode:  Capture Mode Enumerated Type.
 529:Generated_Source\PSoC5/Counter_Color.c **** *
 530:Generated_Source\PSoC5/Counter_Color.c **** * Return:
 531:Generated_Source\PSoC5/Counter_Color.c **** *  void
 532:Generated_Source\PSoC5/Counter_Color.c **** *
ARM GAS  C:\Users\pasan savindu\AppData\Local\Temp\ccGYOE7t.s 			page 17


 533:Generated_Source\PSoC5/Counter_Color.c **** *******************************************************************************/
 534:Generated_Source\PSoC5/Counter_Color.c **** void Counter_Color_SetCaptureMode(uint8 captureMode) 
 535:Generated_Source\PSoC5/Counter_Color.c **** {
 536:Generated_Source\PSoC5/Counter_Color.c ****     /* Clear the capture mode bits in the control register */
 537:Generated_Source\PSoC5/Counter_Color.c ****     Counter_Color_CONTROL &= ((uint8)(~Counter_Color_CTRL_CAPMODE_MASK));
 538:Generated_Source\PSoC5/Counter_Color.c ****     
 539:Generated_Source\PSoC5/Counter_Color.c ****     /* Write the new setting */
 540:Generated_Source\PSoC5/Counter_Color.c ****     Counter_Color_CONTROL |= ((uint8)((uint8)captureMode << Counter_Color_CTRL_CAPMODE0_SHIFT));
 541:Generated_Source\PSoC5/Counter_Color.c **** }
 542:Generated_Source\PSoC5/Counter_Color.c **** #endif  /* (Counter_Color_CAPTURE_MODE_SOFTWARE) */
 543:Generated_Source\PSoC5/Counter_Color.c **** 
 544:Generated_Source\PSoC5/Counter_Color.c **** 
 545:Generated_Source\PSoC5/Counter_Color.c **** /*******************************************************************************
 546:Generated_Source\PSoC5/Counter_Color.c **** * Function Name: Counter_Color_ClearFIFO
 547:Generated_Source\PSoC5/Counter_Color.c **** ********************************************************************************
 548:Generated_Source\PSoC5/Counter_Color.c **** * Summary:
 549:Generated_Source\PSoC5/Counter_Color.c **** *   This function clears all capture data from the capture FIFO
 550:Generated_Source\PSoC5/Counter_Color.c **** *
 551:Generated_Source\PSoC5/Counter_Color.c **** * Parameters:  
 552:Generated_Source\PSoC5/Counter_Color.c **** *  void:
 553:Generated_Source\PSoC5/Counter_Color.c **** *
 554:Generated_Source\PSoC5/Counter_Color.c **** * Return: 
 555:Generated_Source\PSoC5/Counter_Color.c **** *  None
 556:Generated_Source\PSoC5/Counter_Color.c **** *
 557:Generated_Source\PSoC5/Counter_Color.c **** *******************************************************************************/
 558:Generated_Source\PSoC5/Counter_Color.c **** void Counter_Color_ClearFIFO(void) 
 559:Generated_Source\PSoC5/Counter_Color.c **** {
 381              		.loc 1 559 0
 382              		.cfi_startproc
 383              		@ args = 0, pretend = 0, frame = 0
 384              		@ frame_needed = 0, uses_anonymous_args = 0
 385 0000 08B5     		push	{r3, lr}
 386              		.cfi_def_cfa_offset 8
 387              		.cfi_offset 3, -8
 388              		.cfi_offset 14, -4
 560:Generated_Source\PSoC5/Counter_Color.c **** 
 561:Generated_Source\PSoC5/Counter_Color.c ****     while(0u != (Counter_Color_ReadStatusRegister() & Counter_Color_STATUS_FIFONEMP))
 389              		.loc 1 561 0
 390 0002 01E0     		b	.L44
 391              	.L45:
 562:Generated_Source\PSoC5/Counter_Color.c ****     {
 563:Generated_Source\PSoC5/Counter_Color.c ****         (void)Counter_Color_ReadCapture();
 392              		.loc 1 563 0
 393 0004 FFF7FEFF 		bl	Counter_Color_ReadCapture
 394              	.LVL11:
 395              	.L44:
 561:Generated_Source\PSoC5/Counter_Color.c ****     {
 396              		.loc 1 561 0
 397 0008 FFF7FEFF 		bl	Counter_Color_ReadStatusRegister
 398              	.LVL12:
 399 000c 10F0400F 		tst	r0, #64
 400 0010 F8D1     		bne	.L45
 564:Generated_Source\PSoC5/Counter_Color.c ****     }
 565:Generated_Source\PSoC5/Counter_Color.c **** 
 566:Generated_Source\PSoC5/Counter_Color.c **** }
 401              		.loc 1 566 0
 402 0012 08BD     		pop	{r3, pc}
ARM GAS  C:\Users\pasan savindu\AppData\Local\Temp\ccGYOE7t.s 			page 18


 403              		.cfi_endproc
 404              	.LFE15:
 405              		.size	Counter_Color_ClearFIFO, .-Counter_Color_ClearFIFO
 406              		.section	.text.Counter_Color_Init,"ax",%progbits
 407              		.align	2
 408              		.global	Counter_Color_Init
 409              		.thumb
 410              		.thumb_func
 411              		.type	Counter_Color_Init, %function
 412              	Counter_Color_Init:
 413              	.LFB0:
  38:Generated_Source\PSoC5/Counter_Color.c ****         #if (!Counter_Color_UsingFixedFunction && !Counter_Color_ControlRegRemoved)
 414              		.loc 1 38 0
 415              		.cfi_startproc
 416              		@ args = 0, pretend = 0, frame = 0
 417              		@ frame_needed = 0, uses_anonymous_args = 0
 418 0000 08B5     		push	{r3, lr}
 419              		.cfi_def_cfa_offset 8
 420              		.cfi_offset 3, -8
 421              		.cfi_offset 14, -4
  79:Generated_Source\PSoC5/Counter_Color.c ****             Counter_Color_CONTROL = ctrl | Counter_Color_DEFAULT_COMPARE_MODE;
 422              		.loc 1 79 0
 423 0002 134A     		ldr	r2, .L49
 424 0004 1378     		ldrb	r3, [r2]	@ zero_extendqisi2
 425 0006 03F0F803 		and	r3, r3, #248
 426              	.LVL13:
  80:Generated_Source\PSoC5/Counter_Color.c ****             
 427              		.loc 1 80 0
 428 000a 43F00103 		orr	r3, r3, #1
 429              	.LVL14:
 430 000e 1370     		strb	r3, [r2]
  83:Generated_Source\PSoC5/Counter_Color.c ****             
 431              		.loc 1 83 0
 432 0010 1378     		ldrb	r3, [r2]	@ zero_extendqisi2
 433 0012 03F0FC03 		and	r3, r3, #252
 434              	.LVL15:
  86:Generated_Source\PSoC5/Counter_Color.c ****             #else
 435              		.loc 1 86 0
 436 0016 43F00803 		orr	r3, r3, #8
 437              	.LVL16:
 438 001a 1370     		strb	r3, [r2]
  96:Generated_Source\PSoC5/Counter_Color.c ****         #endif /* (!Counter_Color_UsingFixedFunction) */
 439              		.loc 1 96 0
 440 001c FFF7FEFF 		bl	Counter_Color_ClearFIFO
 441              	.LVL17:
 100:Generated_Source\PSoC5/Counter_Color.c ****         #if (!(Counter_Color_UsingFixedFunction && (CY_PSOC5A)))
 442              		.loc 1 100 0
 443 0020 0C48     		ldr	r0, .L49+4
 444 0022 FFF7FEFF 		bl	Counter_Color_WritePeriod
 445              	.LVL18:
 102:Generated_Source\PSoC5/Counter_Color.c ****         #endif /* (!(Counter_Color_UsingFixedFunction && (CY_PSOC5A))) */
 446              		.loc 1 102 0
 447 0026 0020     		movs	r0, #0
 448 0028 FFF7FEFF 		bl	Counter_Color_WriteCounter
 449              	.LVL19:
 104:Generated_Source\PSoC5/Counter_Color.c ****         
 450              		.loc 1 104 0
ARM GAS  C:\Users\pasan savindu\AppData\Local\Temp\ccGYOE7t.s 			page 19


 451 002c 1020     		movs	r0, #16
 452 002e FFF7FEFF 		bl	Counter_Color_SetInterruptMode
 453              	.LVL20:
 108:Generated_Source\PSoC5/Counter_Color.c ****             /* Set the compare value (only available to non-fixed function implementation */
 454              		.loc 1 108 0
 455 0032 FFF7FEFF 		bl	Counter_Color_ReadStatusRegister
 456              	.LVL21:
 110:Generated_Source\PSoC5/Counter_Color.c ****             /* Use the interrupt output of the status register for IRQ output */
 457              		.loc 1 110 0
 458 0036 8020     		movs	r0, #128
 459 0038 FFF7FEFF 		bl	Counter_Color_WriteCompare
 460              	.LVL22:
 115:Generated_Source\PSoC5/Counter_Color.c ****             
 461              		.loc 1 115 0
 462 003c FFF7FEFF 		bl	CyEnterCriticalSection
 463              	.LVL23:
 117:Generated_Source\PSoC5/Counter_Color.c ****             
 464              		.loc 1 117 0
 465 0040 054A     		ldr	r2, .L49+8
 466 0042 1378     		ldrb	r3, [r2]	@ zero_extendqisi2
 467 0044 43F01003 		orr	r3, r3, #16
 468 0048 1370     		strb	r3, [r2]
 120:Generated_Source\PSoC5/Counter_Color.c ****             
 469              		.loc 1 120 0
 470 004a FFF7FEFF 		bl	CyExitCriticalSection
 471              	.LVL24:
 472 004e 08BD     		pop	{r3, pc}
 473              	.L50:
 474              		.align	2
 475              	.L49:
 476 0050 74650040 		.word	1073767796
 477 0054 FEFFFF00 		.word	16777214
 478 0058 92640040 		.word	1073767570
 479              		.cfi_endproc
 480              	.LFE0:
 481              		.size	Counter_Color_Init, .-Counter_Color_Init
 482              		.section	.text.Counter_Color_Start,"ax",%progbits
 483              		.align	2
 484              		.global	Counter_Color_Start
 485              		.thumb
 486              		.thumb_func
 487              		.type	Counter_Color_Start, %function
 488              	Counter_Color_Start:
 489              	.LFB2:
 179:Generated_Source\PSoC5/Counter_Color.c ****     if(Counter_Color_initVar == 0u)
 490              		.loc 1 179 0
 491              		.cfi_startproc
 492              		@ args = 0, pretend = 0, frame = 0
 493              		@ frame_needed = 0, uses_anonymous_args = 0
 494 0000 08B5     		push	{r3, lr}
 495              		.cfi_def_cfa_offset 8
 496              		.cfi_offset 3, -8
 497              		.cfi_offset 14, -4
 180:Generated_Source\PSoC5/Counter_Color.c ****     {
 498              		.loc 1 180 0
 499 0002 054B     		ldr	r3, .L54
 500 0004 1B78     		ldrb	r3, [r3]	@ zero_extendqisi2
ARM GAS  C:\Users\pasan savindu\AppData\Local\Temp\ccGYOE7t.s 			page 20


 501 0006 23B9     		cbnz	r3, .L52
 182:Generated_Source\PSoC5/Counter_Color.c ****         
 502              		.loc 1 182 0
 503 0008 FFF7FEFF 		bl	Counter_Color_Init
 504              	.LVL25:
 184:Generated_Source\PSoC5/Counter_Color.c ****     }
 505              		.loc 1 184 0
 506 000c 0122     		movs	r2, #1
 507 000e 024B     		ldr	r3, .L54
 508 0010 1A70     		strb	r2, [r3]
 509              	.L52:
 188:Generated_Source\PSoC5/Counter_Color.c **** }
 510              		.loc 1 188 0
 511 0012 FFF7FEFF 		bl	Counter_Color_Enable
 512              	.LVL26:
 513 0016 08BD     		pop	{r3, pc}
 514              	.L55:
 515              		.align	2
 516              	.L54:
 517 0018 00000000 		.word	.LANCHOR0
 518              		.cfi_endproc
 519              	.LFE2:
 520              		.size	Counter_Color_Start, .-Counter_Color_Start
 521              		.global	Counter_Color_initVar
 522              		.bss
 523              		.set	.LANCHOR0,. + 0
 524              		.type	Counter_Color_initVar, %object
 525              		.size	Counter_Color_initVar, 1
 526              	Counter_Color_initVar:
 527 0000 00       		.space	1
 528              		.text
 529              	.Letext0:
 530              		.file 2 "Generated_Source\\PSoC5\\cytypes.h"
 531              		.file 3 "Generated_Source\\PSoC5\\CyLib.h"