ARM GAS  C:\Users\pasan savindu\AppData\Local\Temp\ccsLYcXY.s 			page 1


   1              		.syntax unified
   2              		.cpu cortex-m3
   3              		.fpu softvfp
   4              		.eabi_attribute 20, 1
   5              		.eabi_attribute 21, 1
   6              		.eabi_attribute 23, 3
   7              		.eabi_attribute 24, 1
   8              		.eabi_attribute 25, 1
   9              		.eabi_attribute 26, 1
  10              		.eabi_attribute 30, 1
  11              		.eabi_attribute 34, 1
  12              		.eabi_attribute 18, 4
  13              		.thumb
  14              		.syntax unified
  15              		.file	"cyfitter_cfg.c"
  16              		.text
  17              	.Ltext0:
  18              		.cfi_sections	.debug_frame
  19              		.section	.text.CyClockStartupError,"ax",%progbits
  20              		.align	2
  21              		.thumb
  22              		.thumb_func
  23              		.type	CyClockStartupError, %function
  24              	CyClockStartupError:
  25              	.LFB3:
  26              		.file 1 "Generated_Source\\PSoC5\\cyfitter_cfg.c"
   1:Generated_Source\PSoC5/cyfitter_cfg.c **** 
   2:Generated_Source\PSoC5/cyfitter_cfg.c **** /*******************************************************************************
   3:Generated_Source\PSoC5/cyfitter_cfg.c **** * File Name: cyfitter_cfg.c
   4:Generated_Source\PSoC5/cyfitter_cfg.c **** * 
   5:Generated_Source\PSoC5/cyfitter_cfg.c **** * PSoC Creator  4.2
   6:Generated_Source\PSoC5/cyfitter_cfg.c **** *
   7:Generated_Source\PSoC5/cyfitter_cfg.c **** * Description:
   8:Generated_Source\PSoC5/cyfitter_cfg.c **** * This file contains device initialization code.
   9:Generated_Source\PSoC5/cyfitter_cfg.c **** * Except for the user defined sections in CyClockStartupError(), this file should not be modified.
  10:Generated_Source\PSoC5/cyfitter_cfg.c **** * This file is automatically generated by PSoC Creator.
  11:Generated_Source\PSoC5/cyfitter_cfg.c **** *
  12:Generated_Source\PSoC5/cyfitter_cfg.c **** ********************************************************************************
  13:Generated_Source\PSoC5/cyfitter_cfg.c **** * Copyright (c) 2007-2018 Cypress Semiconductor.  All rights reserved.
  14:Generated_Source\PSoC5/cyfitter_cfg.c **** * You may use this file only in accordance with the license, terms, conditions, 
  15:Generated_Source\PSoC5/cyfitter_cfg.c **** * disclaimers, and limitations in the end user license agreement accompanying 
  16:Generated_Source\PSoC5/cyfitter_cfg.c **** * the software package with which this file was provided.
  17:Generated_Source\PSoC5/cyfitter_cfg.c **** ********************************************************************************/
  18:Generated_Source\PSoC5/cyfitter_cfg.c **** 
  19:Generated_Source\PSoC5/cyfitter_cfg.c **** #include <string.h>
  20:Generated_Source\PSoC5/cyfitter_cfg.c **** #include "cytypes.h"
  21:Generated_Source\PSoC5/cyfitter_cfg.c **** #include "cydevice_trm.h"
  22:Generated_Source\PSoC5/cyfitter_cfg.c **** #include "cyfitter.h"
  23:Generated_Source\PSoC5/cyfitter_cfg.c **** #include "CyLib.h"
  24:Generated_Source\PSoC5/cyfitter_cfg.c **** #include "cyfitter_cfg.h"
  25:Generated_Source\PSoC5/cyfitter_cfg.c **** #include "cyapicallbacks.h"
  26:Generated_Source\PSoC5/cyfitter_cfg.c **** 
  27:Generated_Source\PSoC5/cyfitter_cfg.c **** #define CY_NEED_CYCLOCKSTARTUPERROR 1
  28:Generated_Source\PSoC5/cyfitter_cfg.c **** 
  29:Generated_Source\PSoC5/cyfitter_cfg.c **** 
  30:Generated_Source\PSoC5/cyfitter_cfg.c **** #if defined(__GNUC__) || defined(__ARMCC_VERSION)
  31:Generated_Source\PSoC5/cyfitter_cfg.c ****     #define CYPACKED 
ARM GAS  C:\Users\pasan savindu\AppData\Local\Temp\ccsLYcXY.s 			page 2


  32:Generated_Source\PSoC5/cyfitter_cfg.c ****     #define CYPACKED_ATTR __attribute__ ((packed))
  33:Generated_Source\PSoC5/cyfitter_cfg.c ****     #define CYALIGNED __attribute__ ((aligned))
  34:Generated_Source\PSoC5/cyfitter_cfg.c ****     #define CY_CFG_UNUSED __attribute__ ((unused))
  35:Generated_Source\PSoC5/cyfitter_cfg.c ****     #ifndef CY_CFG_SECTION
  36:Generated_Source\PSoC5/cyfitter_cfg.c ****         #define CY_CFG_SECTION __attribute__ ((section(".psocinit")))
  37:Generated_Source\PSoC5/cyfitter_cfg.c ****     #endif
  38:Generated_Source\PSoC5/cyfitter_cfg.c ****     
  39:Generated_Source\PSoC5/cyfitter_cfg.c ****     #if defined(__ARMCC_VERSION)
  40:Generated_Source\PSoC5/cyfitter_cfg.c ****         #define CY_CFG_MEMORY_BARRIER() __memory_changed()
  41:Generated_Source\PSoC5/cyfitter_cfg.c ****     #else
  42:Generated_Source\PSoC5/cyfitter_cfg.c ****         #define CY_CFG_MEMORY_BARRIER() __sync_synchronize()
  43:Generated_Source\PSoC5/cyfitter_cfg.c ****     #endif
  44:Generated_Source\PSoC5/cyfitter_cfg.c ****     
  45:Generated_Source\PSoC5/cyfitter_cfg.c **** #elif defined(__ICCARM__)
  46:Generated_Source\PSoC5/cyfitter_cfg.c ****     #include <intrinsics.h>
  47:Generated_Source\PSoC5/cyfitter_cfg.c **** 
  48:Generated_Source\PSoC5/cyfitter_cfg.c ****     #define CYPACKED __packed
  49:Generated_Source\PSoC5/cyfitter_cfg.c ****     #define CYPACKED_ATTR 
  50:Generated_Source\PSoC5/cyfitter_cfg.c ****     #define CYALIGNED _Pragma("data_alignment=4")
  51:Generated_Source\PSoC5/cyfitter_cfg.c ****     #define CY_CFG_UNUSED _Pragma("diag_suppress=Pe177")
  52:Generated_Source\PSoC5/cyfitter_cfg.c ****     #define CY_CFG_SECTION _Pragma("location=\".psocinit\"")
  53:Generated_Source\PSoC5/cyfitter_cfg.c ****     
  54:Generated_Source\PSoC5/cyfitter_cfg.c ****     #define CY_CFG_MEMORY_BARRIER() __DMB()
  55:Generated_Source\PSoC5/cyfitter_cfg.c ****     
  56:Generated_Source\PSoC5/cyfitter_cfg.c **** #else
  57:Generated_Source\PSoC5/cyfitter_cfg.c ****     #error Unsupported toolchain
  58:Generated_Source\PSoC5/cyfitter_cfg.c **** #endif
  59:Generated_Source\PSoC5/cyfitter_cfg.c **** 
  60:Generated_Source\PSoC5/cyfitter_cfg.c **** #ifndef CYCODE
  61:Generated_Source\PSoC5/cyfitter_cfg.c ****     #define CYCODE
  62:Generated_Source\PSoC5/cyfitter_cfg.c **** #endif
  63:Generated_Source\PSoC5/cyfitter_cfg.c **** #ifndef CYDATA
  64:Generated_Source\PSoC5/cyfitter_cfg.c ****     #define CYDATA
  65:Generated_Source\PSoC5/cyfitter_cfg.c **** #endif
  66:Generated_Source\PSoC5/cyfitter_cfg.c **** #ifndef CYFAR
  67:Generated_Source\PSoC5/cyfitter_cfg.c ****     #define CYFAR
  68:Generated_Source\PSoC5/cyfitter_cfg.c **** #endif
  69:Generated_Source\PSoC5/cyfitter_cfg.c **** #ifndef CYXDATA
  70:Generated_Source\PSoC5/cyfitter_cfg.c ****     #define CYXDATA
  71:Generated_Source\PSoC5/cyfitter_cfg.c **** #endif
  72:Generated_Source\PSoC5/cyfitter_cfg.c **** 
  73:Generated_Source\PSoC5/cyfitter_cfg.c **** 
  74:Generated_Source\PSoC5/cyfitter_cfg.c **** CY_CFG_UNUSED
  75:Generated_Source\PSoC5/cyfitter_cfg.c **** static void CYMEMZERO(void *s, size_t n);
  76:Generated_Source\PSoC5/cyfitter_cfg.c **** CY_CFG_UNUSED
  77:Generated_Source\PSoC5/cyfitter_cfg.c **** static void CYMEMZERO(void *s, size_t n)
  78:Generated_Source\PSoC5/cyfitter_cfg.c **** {
  79:Generated_Source\PSoC5/cyfitter_cfg.c **** 	(void)memset(s, 0, n);
  80:Generated_Source\PSoC5/cyfitter_cfg.c **** }
  81:Generated_Source\PSoC5/cyfitter_cfg.c **** CY_CFG_UNUSED
  82:Generated_Source\PSoC5/cyfitter_cfg.c **** static void CYCONFIGCPY(void *dest, const void *src, size_t n);
  83:Generated_Source\PSoC5/cyfitter_cfg.c **** CY_CFG_UNUSED
  84:Generated_Source\PSoC5/cyfitter_cfg.c **** static void CYCONFIGCPY(void *dest, const void *src, size_t n)
  85:Generated_Source\PSoC5/cyfitter_cfg.c **** {
  86:Generated_Source\PSoC5/cyfitter_cfg.c **** 	(void)memcpy(dest, src, n);
  87:Generated_Source\PSoC5/cyfitter_cfg.c **** }
  88:Generated_Source\PSoC5/cyfitter_cfg.c **** CY_CFG_UNUSED
ARM GAS  C:\Users\pasan savindu\AppData\Local\Temp\ccsLYcXY.s 			page 3


  89:Generated_Source\PSoC5/cyfitter_cfg.c **** static void CYCONFIGCPYCODE(void *dest, const void *src, size_t n);
  90:Generated_Source\PSoC5/cyfitter_cfg.c **** CY_CFG_UNUSED
  91:Generated_Source\PSoC5/cyfitter_cfg.c **** static void CYCONFIGCPYCODE(void *dest, const void *src, size_t n)
  92:Generated_Source\PSoC5/cyfitter_cfg.c **** {
  93:Generated_Source\PSoC5/cyfitter_cfg.c **** 	(void)memcpy(dest, src, n);
  94:Generated_Source\PSoC5/cyfitter_cfg.c **** }
  95:Generated_Source\PSoC5/cyfitter_cfg.c **** 
  96:Generated_Source\PSoC5/cyfitter_cfg.c **** 
  97:Generated_Source\PSoC5/cyfitter_cfg.c **** 
  98:Generated_Source\PSoC5/cyfitter_cfg.c **** 
  99:Generated_Source\PSoC5/cyfitter_cfg.c **** /* Clock startup error codes                                                   */
 100:Generated_Source\PSoC5/cyfitter_cfg.c **** #define CYCLOCKSTART_NO_ERROR    0u
 101:Generated_Source\PSoC5/cyfitter_cfg.c **** #define CYCLOCKSTART_XTAL_ERROR  1u
 102:Generated_Source\PSoC5/cyfitter_cfg.c **** #define CYCLOCKSTART_32KHZ_ERROR 2u
 103:Generated_Source\PSoC5/cyfitter_cfg.c **** #define CYCLOCKSTART_PLL_ERROR   3u
 104:Generated_Source\PSoC5/cyfitter_cfg.c **** #define CYCLOCKSTART_FLL_ERROR   4u
 105:Generated_Source\PSoC5/cyfitter_cfg.c **** #define CYCLOCKSTART_WCO_ERROR   5u
 106:Generated_Source\PSoC5/cyfitter_cfg.c **** 
 107:Generated_Source\PSoC5/cyfitter_cfg.c **** 
 108:Generated_Source\PSoC5/cyfitter_cfg.c **** #ifdef CY_NEED_CYCLOCKSTARTUPERROR
 109:Generated_Source\PSoC5/cyfitter_cfg.c **** /*******************************************************************************
 110:Generated_Source\PSoC5/cyfitter_cfg.c **** * Function Name: CyClockStartupError
 111:Generated_Source\PSoC5/cyfitter_cfg.c **** ********************************************************************************
 112:Generated_Source\PSoC5/cyfitter_cfg.c **** * Summary:
 113:Generated_Source\PSoC5/cyfitter_cfg.c **** *  If an error is encountered during clock configuration (crystal startup error,
 114:Generated_Source\PSoC5/cyfitter_cfg.c **** *  PLL lock error, etc.), the system will end up here.  Unless reimplemented by
 115:Generated_Source\PSoC5/cyfitter_cfg.c **** *  the customer, this function will stop in an infinite loop.
 116:Generated_Source\PSoC5/cyfitter_cfg.c **** *
 117:Generated_Source\PSoC5/cyfitter_cfg.c **** * Parameters:
 118:Generated_Source\PSoC5/cyfitter_cfg.c **** *   void
 119:Generated_Source\PSoC5/cyfitter_cfg.c **** *
 120:Generated_Source\PSoC5/cyfitter_cfg.c **** * Return:
 121:Generated_Source\PSoC5/cyfitter_cfg.c **** *   void
 122:Generated_Source\PSoC5/cyfitter_cfg.c **** *
 123:Generated_Source\PSoC5/cyfitter_cfg.c **** *******************************************************************************/
 124:Generated_Source\PSoC5/cyfitter_cfg.c **** CY_CFG_UNUSED
 125:Generated_Source\PSoC5/cyfitter_cfg.c **** static void CyClockStartupError(uint8 errorCode);
 126:Generated_Source\PSoC5/cyfitter_cfg.c **** CY_CFG_UNUSED
 127:Generated_Source\PSoC5/cyfitter_cfg.c **** static void CyClockStartupError(uint8 errorCode)
 128:Generated_Source\PSoC5/cyfitter_cfg.c **** {
  27              		.loc 1 128 0
  28              		.cfi_startproc
  29              		@ Volatile: function does not return.
  30              		@ args = 0, pretend = 0, frame = 0
  31              		@ frame_needed = 0, uses_anonymous_args = 0
  32              		@ link register save eliminated.
  33              	.LVL0:
  34              	.L2:
  35 0000 FEE7     		b	.L2
  36              		.cfi_endproc
  37              	.LFE3:
  38              		.size	CyClockStartupError, .-CyClockStartupError
  39 0002 00BF     		.section	.text.cfg_write_bytes32,"ax",%progbits
  40              		.align	2
  41              		.thumb
  42              		.thumb_func
  43              		.type	cfg_write_bytes32, %function
ARM GAS  C:\Users\pasan savindu\AppData\Local\Temp\ccsLYcXY.s 			page 4


  44              	cfg_write_bytes32:
  45              	.LFB4:
 129:Generated_Source\PSoC5/cyfitter_cfg.c ****     /* To remove the compiler warning if errorCode not used.                */
 130:Generated_Source\PSoC5/cyfitter_cfg.c ****     errorCode = errorCode;
 131:Generated_Source\PSoC5/cyfitter_cfg.c **** 
 132:Generated_Source\PSoC5/cyfitter_cfg.c ****     /* If we have a clock startup error (bad MHz crystal, PLL lock, etc.),  */
 133:Generated_Source\PSoC5/cyfitter_cfg.c ****     /* we will end up here to allow the customer to implement something to  */
 134:Generated_Source\PSoC5/cyfitter_cfg.c ****     /* deal with the clock condition.                                       */
 135:Generated_Source\PSoC5/cyfitter_cfg.c **** 
 136:Generated_Source\PSoC5/cyfitter_cfg.c **** #ifdef CY_CFG_CLOCK_STARTUP_ERROR_CALLBACK
 137:Generated_Source\PSoC5/cyfitter_cfg.c ****     CY_CFG_Clock_Startup_ErrorCallback();
 138:Generated_Source\PSoC5/cyfitter_cfg.c **** #else
 139:Generated_Source\PSoC5/cyfitter_cfg.c ****     /*  If not using CY_CFG_CLOCK_STARTUP_ERROR_CALLBACK, place your clock startup code here. */
 140:Generated_Source\PSoC5/cyfitter_cfg.c ****     /* `#START CyClockStartupError` */
 141:Generated_Source\PSoC5/cyfitter_cfg.c **** 
 142:Generated_Source\PSoC5/cyfitter_cfg.c **** 
 143:Generated_Source\PSoC5/cyfitter_cfg.c **** 
 144:Generated_Source\PSoC5/cyfitter_cfg.c ****     /* `#END` */
 145:Generated_Source\PSoC5/cyfitter_cfg.c **** 
 146:Generated_Source\PSoC5/cyfitter_cfg.c ****     while(1) {}
 147:Generated_Source\PSoC5/cyfitter_cfg.c **** #endif /* CY_CFG_CLOCK_STARTUP_ERROR_CALLBACK */
 148:Generated_Source\PSoC5/cyfitter_cfg.c **** }
 149:Generated_Source\PSoC5/cyfitter_cfg.c **** #endif
 150:Generated_Source\PSoC5/cyfitter_cfg.c **** 
 151:Generated_Source\PSoC5/cyfitter_cfg.c **** #define CY_CFG_BASE_ADDR_COUNT 43u
 152:Generated_Source\PSoC5/cyfitter_cfg.c **** CYPACKED typedef struct
 153:Generated_Source\PSoC5/cyfitter_cfg.c **** {
 154:Generated_Source\PSoC5/cyfitter_cfg.c **** 	uint8 offset;
 155:Generated_Source\PSoC5/cyfitter_cfg.c **** 	uint8 value;
 156:Generated_Source\PSoC5/cyfitter_cfg.c **** } CYPACKED_ATTR cy_cfg_addrvalue_t;
 157:Generated_Source\PSoC5/cyfitter_cfg.c **** 
 158:Generated_Source\PSoC5/cyfitter_cfg.c **** #define cy_cfg_addr_table ((const uint32 CYFAR *)0x48000000u)
 159:Generated_Source\PSoC5/cyfitter_cfg.c **** #define cy_cfg_data_table ((const cy_cfg_addrvalue_t CYFAR *)0x480000ACu)
 160:Generated_Source\PSoC5/cyfitter_cfg.c **** 
 161:Generated_Source\PSoC5/cyfitter_cfg.c **** /* UDB_1_3_1_CONFIG Address: CYDEV_UCFG_B0_P2_U1_BASE Size (bytes): 128 */
 162:Generated_Source\PSoC5/cyfitter_cfg.c **** #define BS_UDB_1_3_1_CONFIG_VAL ((const uint8 CYFAR *)0x48001190u)
 163:Generated_Source\PSoC5/cyfitter_cfg.c **** 
 164:Generated_Source\PSoC5/cyfitter_cfg.c **** /* UDB_1_2_0_CONFIG Address: CYDEV_UCFG_B0_P3_U1_BASE Size (bytes): 128 */
 165:Generated_Source\PSoC5/cyfitter_cfg.c **** #define BS_UDB_1_2_0_CONFIG_VAL ((const uint8 CYFAR *)0x48001210u)
 166:Generated_Source\PSoC5/cyfitter_cfg.c **** 
 167:Generated_Source\PSoC5/cyfitter_cfg.c **** /* UDB_0_4_0_CONFIG Address: CYDEV_UCFG_B0_P6_U1_BASE Size (bytes): 128 */
 168:Generated_Source\PSoC5/cyfitter_cfg.c **** #define BS_UDB_0_4_0_CONFIG_VAL ((const uint8 CYFAR *)0x48001290u)
 169:Generated_Source\PSoC5/cyfitter_cfg.c **** 
 170:Generated_Source\PSoC5/cyfitter_cfg.c **** /* UDB_0_5_0_CONFIG Address: CYDEV_UCFG_B0_P7_U0_BASE Size (bytes): 128 */
 171:Generated_Source\PSoC5/cyfitter_cfg.c **** #define BS_UDB_0_5_0_CONFIG_VAL ((const uint8 CYFAR *)0x48001310u)
 172:Generated_Source\PSoC5/cyfitter_cfg.c **** 
 173:Generated_Source\PSoC5/cyfitter_cfg.c **** /* UDB_1_1_0_CONFIG Address: CYDEV_UCFG_B1_P3_U1_BASE Size (bytes): 128 */
 174:Generated_Source\PSoC5/cyfitter_cfg.c **** #define BS_UDB_1_1_0_CONFIG_VAL ((const uint8 CYFAR *)0x48001390u)
 175:Generated_Source\PSoC5/cyfitter_cfg.c **** 
 176:Generated_Source\PSoC5/cyfitter_cfg.c **** /* IOPINS0_0 Address: CYREG_PRT0_DM0 Size (bytes): 8 */
 177:Generated_Source\PSoC5/cyfitter_cfg.c **** #define BS_IOPINS0_0_VAL ((const uint8 CYFAR *)0x48001410u)
 178:Generated_Source\PSoC5/cyfitter_cfg.c **** 
 179:Generated_Source\PSoC5/cyfitter_cfg.c **** /* IOPINS0_7 Address: CYREG_PRT12_DR Size (bytes): 10 */
 180:Generated_Source\PSoC5/cyfitter_cfg.c **** #define BS_IOPINS0_7_VAL ((const uint8 CYFAR *)0x48001418u)
 181:Generated_Source\PSoC5/cyfitter_cfg.c **** 
 182:Generated_Source\PSoC5/cyfitter_cfg.c **** /* IOPINS0_8 Address: CYREG_PRT15_DM0 Size (bytes): 8 */
 183:Generated_Source\PSoC5/cyfitter_cfg.c **** #define BS_IOPINS0_8_VAL ((const uint8 CYFAR *)0x48001424u)
ARM GAS  C:\Users\pasan savindu\AppData\Local\Temp\ccsLYcXY.s 			page 5


 184:Generated_Source\PSoC5/cyfitter_cfg.c **** 
 185:Generated_Source\PSoC5/cyfitter_cfg.c **** /* IOPINS0_1 Address: CYREG_PRT1_DM0 Size (bytes): 8 */
 186:Generated_Source\PSoC5/cyfitter_cfg.c **** #define BS_IOPINS0_1_VAL ((const uint8 CYFAR *)0x4800142Cu)
 187:Generated_Source\PSoC5/cyfitter_cfg.c **** 
 188:Generated_Source\PSoC5/cyfitter_cfg.c **** /* IOPINS0_2 Address: CYREG_PRT2_DM0 Size (bytes): 8 */
 189:Generated_Source\PSoC5/cyfitter_cfg.c **** #define BS_IOPINS0_2_VAL ((const uint8 CYFAR *)0x48001434u)
 190:Generated_Source\PSoC5/cyfitter_cfg.c **** 
 191:Generated_Source\PSoC5/cyfitter_cfg.c **** /* IOPINS0_3 Address: CYREG_PRT3_DR Size (bytes): 10 */
 192:Generated_Source\PSoC5/cyfitter_cfg.c **** #define BS_IOPINS0_3_VAL ((const uint8 CYFAR *)0x4800143Cu)
 193:Generated_Source\PSoC5/cyfitter_cfg.c **** 
 194:Generated_Source\PSoC5/cyfitter_cfg.c **** 
 195:Generated_Source\PSoC5/cyfitter_cfg.c **** /*******************************************************************************
 196:Generated_Source\PSoC5/cyfitter_cfg.c **** * Function Name: cfg_write_bytes32
 197:Generated_Source\PSoC5/cyfitter_cfg.c **** ********************************************************************************
 198:Generated_Source\PSoC5/cyfitter_cfg.c **** * Summary:
 199:Generated_Source\PSoC5/cyfitter_cfg.c **** *  This function is used for setting up the chip configuration areas that
 200:Generated_Source\PSoC5/cyfitter_cfg.c **** *  contain relatively sparse data.
 201:Generated_Source\PSoC5/cyfitter_cfg.c **** *
 202:Generated_Source\PSoC5/cyfitter_cfg.c **** * Parameters:
 203:Generated_Source\PSoC5/cyfitter_cfg.c **** *   void
 204:Generated_Source\PSoC5/cyfitter_cfg.c **** *
 205:Generated_Source\PSoC5/cyfitter_cfg.c **** * Return:
 206:Generated_Source\PSoC5/cyfitter_cfg.c **** *   void
 207:Generated_Source\PSoC5/cyfitter_cfg.c **** *
 208:Generated_Source\PSoC5/cyfitter_cfg.c **** *******************************************************************************/
 209:Generated_Source\PSoC5/cyfitter_cfg.c **** static void cfg_write_bytes32(const uint32 addr_table[], const cy_cfg_addrvalue_t data_table[]);
 210:Generated_Source\PSoC5/cyfitter_cfg.c **** static void cfg_write_bytes32(const uint32 addr_table[], const cy_cfg_addrvalue_t data_table[])
 211:Generated_Source\PSoC5/cyfitter_cfg.c **** {
  46              		.loc 1 211 0
  47              		.cfi_startproc
  48              		@ args = 0, pretend = 0, frame = 0
  49              		@ frame_needed = 0, uses_anonymous_args = 0
  50              		@ link register save eliminated.
  51              	.LVL1:
  52              		.loc 1 211 0
  53 0000 F0B4     		push	{r4, r5, r6, r7}
  54              		.cfi_def_cfa_offset 16
  55              		.cfi_offset 4, -16
  56              		.cfi_offset 5, -12
  57              		.cfi_offset 6, -8
  58              		.cfi_offset 7, -4
  59              	.LVL2:
 212:Generated_Source\PSoC5/cyfitter_cfg.c **** 	/* For 32-bit little-endian architectures */
 213:Generated_Source\PSoC5/cyfitter_cfg.c **** 	uint32 i, j = 0u;
  60              		.loc 1 213 0
  61 0002 0022     		movs	r2, #0
 214:Generated_Source\PSoC5/cyfitter_cfg.c **** 	for (i = 0u; i < CY_CFG_BASE_ADDR_COUNT; i++)
  62              		.loc 1 214 0
  63 0004 1746     		mov	r7, r2
  64 0006 11E0     		b	.L4
  65              	.LVL3:
  66              	.L7:
  67              	.LBB2:
 215:Generated_Source\PSoC5/cyfitter_cfg.c **** 	{
 216:Generated_Source\PSoC5/cyfitter_cfg.c **** 		uint32 baseAddr = addr_table[i];
  68              		.loc 1 216 0
  69 0008 50F82760 		ldr	r6, [r0, r7, lsl #2]
ARM GAS  C:\Users\pasan savindu\AppData\Local\Temp\ccsLYcXY.s 			page 6


  70              	.LVL4:
 217:Generated_Source\PSoC5/cyfitter_cfg.c **** 		uint8 count = (uint8)baseAddr;
  71              		.loc 1 217 0
  72 000c F3B2     		uxtb	r3, r6
  73              	.LVL5:
 218:Generated_Source\PSoC5/cyfitter_cfg.c **** 		baseAddr &= 0xFFFFFF00u;
  74              		.loc 1 218 0
  75 000e 26F0FF06 		bic	r6, r6, #255
  76              	.LVL6:
 219:Generated_Source\PSoC5/cyfitter_cfg.c **** 		while (count != 0u)
  77              		.loc 1 219 0
  78 0012 08E0     		b	.L5
  79              	.L6:
 220:Generated_Source\PSoC5/cyfitter_cfg.c **** 		{
 221:Generated_Source\PSoC5/cyfitter_cfg.c **** 			CY_SET_REG8((void *)(baseAddr + data_table[j].offset), data_table[j].value);
  80              		.loc 1 221 0
  81 0014 01EB4205 		add	r5, r1, r2, lsl #1
  82 0018 11F81240 		ldrb	r4, [r1, r2, lsl #1]	@ zero_extendqisi2
  83 001c 6D78     		ldrb	r5, [r5, #1]	@ zero_extendqisi2
  84 001e A555     		strb	r5, [r4, r6]
 222:Generated_Source\PSoC5/cyfitter_cfg.c **** 			j++;
  85              		.loc 1 222 0
  86 0020 0132     		adds	r2, r2, #1
  87              	.LVL7:
 223:Generated_Source\PSoC5/cyfitter_cfg.c **** 			count--;
  88              		.loc 1 223 0
  89 0022 013B     		subs	r3, r3, #1
  90              	.LVL8:
  91 0024 DBB2     		uxtb	r3, r3
  92              	.LVL9:
  93              	.L5:
 219:Generated_Source\PSoC5/cyfitter_cfg.c **** 		{
  94              		.loc 1 219 0
  95 0026 002B     		cmp	r3, #0
  96 0028 F4D1     		bne	.L6
  97              	.LBE2:
 214:Generated_Source\PSoC5/cyfitter_cfg.c **** 	{
  98              		.loc 1 214 0 discriminator 2
  99 002a 0137     		adds	r7, r7, #1
 100              	.LVL10:
 101              	.L4:
 214:Generated_Source\PSoC5/cyfitter_cfg.c **** 	{
 102              		.loc 1 214 0 is_stmt 0 discriminator 1
 103 002c 2A2F     		cmp	r7, #42
 104 002e EBD9     		bls	.L7
 224:Generated_Source\PSoC5/cyfitter_cfg.c **** 		}
 225:Generated_Source\PSoC5/cyfitter_cfg.c **** 	}
 226:Generated_Source\PSoC5/cyfitter_cfg.c **** }
 105              		.loc 1 226 0 is_stmt 1
 106 0030 F0BC     		pop	{r4, r5, r6, r7}
 107              		.cfi_restore 7
 108              		.cfi_restore 6
 109              		.cfi_restore 5
 110              		.cfi_restore 4
 111              		.cfi_def_cfa_offset 0
 112              	.LVL11:
 113 0032 7047     		bx	lr
ARM GAS  C:\Users\pasan savindu\AppData\Local\Temp\ccsLYcXY.s 			page 7


 114              		.cfi_endproc
 115              	.LFE4:
 116              		.size	cfg_write_bytes32, .-cfg_write_bytes32
 117              		.section	.text.AnalogSetDefault,"ax",%progbits
 118              		.align	2
 119              		.thumb
 120              		.thumb_func
 121              		.type	AnalogSetDefault, %function
 122              	AnalogSetDefault:
 123              	.LFB6:
 227:Generated_Source\PSoC5/cyfitter_cfg.c **** 
 228:Generated_Source\PSoC5/cyfitter_cfg.c **** /*******************************************************************************
 229:Generated_Source\PSoC5/cyfitter_cfg.c **** * Function Name: ClockSetup
 230:Generated_Source\PSoC5/cyfitter_cfg.c **** ********************************************************************************
 231:Generated_Source\PSoC5/cyfitter_cfg.c **** *
 232:Generated_Source\PSoC5/cyfitter_cfg.c **** * Summary:
 233:Generated_Source\PSoC5/cyfitter_cfg.c **** *  Performs the initialization of all of the clocks in the device based on the
 234:Generated_Source\PSoC5/cyfitter_cfg.c **** *  settings in the Clock tab of the DWR.  This includes enabling the requested
 235:Generated_Source\PSoC5/cyfitter_cfg.c **** *  clocks and setting the necessary dividers to produce the desired frequency. 
 236:Generated_Source\PSoC5/cyfitter_cfg.c **** *
 237:Generated_Source\PSoC5/cyfitter_cfg.c **** * Parameters:
 238:Generated_Source\PSoC5/cyfitter_cfg.c **** *  void
 239:Generated_Source\PSoC5/cyfitter_cfg.c **** *
 240:Generated_Source\PSoC5/cyfitter_cfg.c **** * Return:
 241:Generated_Source\PSoC5/cyfitter_cfg.c **** *  void
 242:Generated_Source\PSoC5/cyfitter_cfg.c **** *
 243:Generated_Source\PSoC5/cyfitter_cfg.c **** *******************************************************************************/
 244:Generated_Source\PSoC5/cyfitter_cfg.c **** static void ClockSetup(void);
 245:Generated_Source\PSoC5/cyfitter_cfg.c **** static void ClockSetup(void)
 246:Generated_Source\PSoC5/cyfitter_cfg.c **** {
 247:Generated_Source\PSoC5/cyfitter_cfg.c **** 	uint32 timeout;
 248:Generated_Source\PSoC5/cyfitter_cfg.c **** 	uint8 pllLock;
 249:Generated_Source\PSoC5/cyfitter_cfg.c **** 
 250:Generated_Source\PSoC5/cyfitter_cfg.c **** 
 251:Generated_Source\PSoC5/cyfitter_cfg.c **** 	/* Configure Digital Clocks based on settings from Clock DWR */
 252:Generated_Source\PSoC5/cyfitter_cfg.c **** 	CY_SET_XTND_REG16((void CYFAR *)(CYREG_CLKDIST_DCFG0_CFG0), 0x0001u);
 253:Generated_Source\PSoC5/cyfitter_cfg.c **** 	CY_SET_XTND_REG8((void CYFAR *)(CYREG_CLKDIST_DCFG0_CFG0 + 0x2u), 0x18u);
 254:Generated_Source\PSoC5/cyfitter_cfg.c **** 	CY_SET_XTND_REG16((void CYFAR *)(CYREG_CLKDIST_DCFG1_CFG0), 0x0001u);
 255:Generated_Source\PSoC5/cyfitter_cfg.c **** 	CY_SET_XTND_REG8((void CYFAR *)(CYREG_CLKDIST_DCFG1_CFG0 + 0x2u), 0x18u);
 256:Generated_Source\PSoC5/cyfitter_cfg.c **** 	CY_SET_XTND_REG16((void CYFAR *)(CYREG_CLKDIST_DCFG2_CFG0), 0x0017u);
 257:Generated_Source\PSoC5/cyfitter_cfg.c **** 	CY_SET_XTND_REG8((void CYFAR *)(CYREG_CLKDIST_DCFG2_CFG0 + 0x2u), 0x18u);
 258:Generated_Source\PSoC5/cyfitter_cfg.c **** 	CY_SET_XTND_REG16((void CYFAR *)(CYREG_CLKDIST_DCFG3_CFG0), 0x0017u);
 259:Generated_Source\PSoC5/cyfitter_cfg.c **** 	CY_SET_XTND_REG8((void CYFAR *)(CYREG_CLKDIST_DCFG3_CFG0 + 0x2u), 0x18u);
 260:Generated_Source\PSoC5/cyfitter_cfg.c **** 	CY_SET_XTND_REG16((void CYFAR *)(CYREG_CLKDIST_DCFG4_CFG0), 0x0017u);
 261:Generated_Source\PSoC5/cyfitter_cfg.c **** 	CY_SET_XTND_REG8((void CYFAR *)(CYREG_CLKDIST_DCFG4_CFG0 + 0x2u), 0x18u);
 262:Generated_Source\PSoC5/cyfitter_cfg.c **** 	CY_SET_XTND_REG16((void CYFAR *)(CYREG_CLKDIST_DCFG5_CFG0), 0x0033u);
 263:Generated_Source\PSoC5/cyfitter_cfg.c **** 	CY_SET_XTND_REG8((void CYFAR *)(CYREG_CLKDIST_DCFG5_CFG0 + 0x2u), 0x18u);
 264:Generated_Source\PSoC5/cyfitter_cfg.c **** 	CY_SET_XTND_REG16((void CYFAR *)(CYREG_CLKDIST_DCFG6_CFG0), 0x00EFu);
 265:Generated_Source\PSoC5/cyfitter_cfg.c **** 	CY_SET_XTND_REG8((void CYFAR *)(CYREG_CLKDIST_DCFG6_CFG0 + 0x2u), 0x18u);
 266:Generated_Source\PSoC5/cyfitter_cfg.c **** 	CY_SET_XTND_REG16((void CYFAR *)(CYREG_CLKDIST_DCFG7_CFG0), 0x752Fu);
 267:Generated_Source\PSoC5/cyfitter_cfg.c **** 	CY_SET_XTND_REG8((void CYFAR *)(CYREG_CLKDIST_DCFG7_CFG0 + 0x2u), 0x19u);
 268:Generated_Source\PSoC5/cyfitter_cfg.c **** 
 269:Generated_Source\PSoC5/cyfitter_cfg.c **** 	/* Configure ILO based on settings from Clock DWR */
 270:Generated_Source\PSoC5/cyfitter_cfg.c **** 	CY_SET_XTND_REG8((void CYFAR *)(CYREG_SLOWCLK_ILO_CR0), 0x02u);
 271:Generated_Source\PSoC5/cyfitter_cfg.c **** 	CY_SET_XTND_REG8((void CYFAR *)(CYREG_CLKDIST_CR), 0x08u);
 272:Generated_Source\PSoC5/cyfitter_cfg.c **** 
 273:Generated_Source\PSoC5/cyfitter_cfg.c **** 	/* Configure IMO based on settings from Clock DWR */
ARM GAS  C:\Users\pasan savindu\AppData\Local\Temp\ccsLYcXY.s 			page 8


 274:Generated_Source\PSoC5/cyfitter_cfg.c **** 	CY_SET_XTND_REG8((void CYFAR *)(CYREG_FASTCLK_IMO_CR), 0x03u);
 275:Generated_Source\PSoC5/cyfitter_cfg.c **** 	CY_SET_XTND_REG8((void CYFAR *)(CYREG_IMO_TR1), (CY_GET_XTND_REG8((void CYFAR *)CYREG_FLSHID_CUST_
 276:Generated_Source\PSoC5/cyfitter_cfg.c **** 
 277:Generated_Source\PSoC5/cyfitter_cfg.c **** 	/* Configure PLL based on settings from Clock DWR */
 278:Generated_Source\PSoC5/cyfitter_cfg.c **** 	CY_SET_XTND_REG16((void CYFAR *)(CYREG_FASTCLK_PLL_P), 0x0008u);
 279:Generated_Source\PSoC5/cyfitter_cfg.c **** 	CY_SET_XTND_REG16((void CYFAR *)(CYREG_FASTCLK_PLL_CFG0), 0x1251u);
 280:Generated_Source\PSoC5/cyfitter_cfg.c **** 	/* Wait up to 250us for the PLL to lock */
 281:Generated_Source\PSoC5/cyfitter_cfg.c **** 	pllLock = 0u;
 282:Generated_Source\PSoC5/cyfitter_cfg.c **** 	for (timeout = 250u / 10u; (timeout > 0u) && (pllLock != 0x03u); timeout--)
 283:Generated_Source\PSoC5/cyfitter_cfg.c **** 	{ 
 284:Generated_Source\PSoC5/cyfitter_cfg.c **** 		pllLock = 0x03u & ((uint8)((uint8)pllLock << 1) | ((CY_GET_XTND_REG8((void CYFAR *)CYREG_FASTCLK_
 285:Generated_Source\PSoC5/cyfitter_cfg.c **** 		CyDelayCycles(10u * 48u); /* Delay 10us based on 48MHz clock */
 286:Generated_Source\PSoC5/cyfitter_cfg.c **** 	}
 287:Generated_Source\PSoC5/cyfitter_cfg.c **** 	/* If we ran out of time the PLL didn't lock so go to the error function */
 288:Generated_Source\PSoC5/cyfitter_cfg.c **** 	if (timeout == 0u)
 289:Generated_Source\PSoC5/cyfitter_cfg.c **** 	{
 290:Generated_Source\PSoC5/cyfitter_cfg.c **** 		CyClockStartupError(CYCLOCKSTART_PLL_ERROR);
 291:Generated_Source\PSoC5/cyfitter_cfg.c **** 	}
 292:Generated_Source\PSoC5/cyfitter_cfg.c **** 
 293:Generated_Source\PSoC5/cyfitter_cfg.c **** 	/* Configure Bus/Master Clock based on settings from Clock DWR */
 294:Generated_Source\PSoC5/cyfitter_cfg.c **** 	CY_SET_XTND_REG16((void CYFAR *)(CYREG_CLKDIST_MSTR0), 0x0100u);
 295:Generated_Source\PSoC5/cyfitter_cfg.c **** 	CY_SET_XTND_REG8((void CYFAR *)(CYREG_CLKDIST_MSTR0), 0x07u);
 296:Generated_Source\PSoC5/cyfitter_cfg.c **** 	CY_SET_XTND_REG8((void CYFAR *)(CYREG_CLKDIST_BCFG0), 0x00u);
 297:Generated_Source\PSoC5/cyfitter_cfg.c **** 	CY_SET_XTND_REG8((void CYFAR *)(CYREG_CLKDIST_BCFG2), 0x48u);
 298:Generated_Source\PSoC5/cyfitter_cfg.c **** 	CY_SET_XTND_REG8((void CYFAR *)(CYREG_CLKDIST_MSTR0), 0x00u);
 299:Generated_Source\PSoC5/cyfitter_cfg.c **** 	CY_SET_XTND_REG8((void CYFAR *)(CYREG_CLKDIST_LD), 0x02u);
 300:Generated_Source\PSoC5/cyfitter_cfg.c **** 
 301:Generated_Source\PSoC5/cyfitter_cfg.c **** 	CY_SET_XTND_REG8((void CYFAR *)(CYREG_PM_ACT_CFG2), ((CY_GET_XTND_REG8((void CYFAR *)CYREG_PM_ACT_
 302:Generated_Source\PSoC5/cyfitter_cfg.c **** }
 303:Generated_Source\PSoC5/cyfitter_cfg.c **** 
 304:Generated_Source\PSoC5/cyfitter_cfg.c **** 
 305:Generated_Source\PSoC5/cyfitter_cfg.c **** /* Analog API Functions */
 306:Generated_Source\PSoC5/cyfitter_cfg.c **** 
 307:Generated_Source\PSoC5/cyfitter_cfg.c **** 
 308:Generated_Source\PSoC5/cyfitter_cfg.c **** /*******************************************************************************
 309:Generated_Source\PSoC5/cyfitter_cfg.c **** * Function Name: AnalogSetDefault
 310:Generated_Source\PSoC5/cyfitter_cfg.c **** ********************************************************************************
 311:Generated_Source\PSoC5/cyfitter_cfg.c **** *
 312:Generated_Source\PSoC5/cyfitter_cfg.c **** * Summary:
 313:Generated_Source\PSoC5/cyfitter_cfg.c **** *  Sets up the analog portions of the chip to default values based on chip
 314:Generated_Source\PSoC5/cyfitter_cfg.c **** *  configuration options from the project.
 315:Generated_Source\PSoC5/cyfitter_cfg.c **** *
 316:Generated_Source\PSoC5/cyfitter_cfg.c **** * Parameters:
 317:Generated_Source\PSoC5/cyfitter_cfg.c **** *  void
 318:Generated_Source\PSoC5/cyfitter_cfg.c **** *
 319:Generated_Source\PSoC5/cyfitter_cfg.c **** * Return:
 320:Generated_Source\PSoC5/cyfitter_cfg.c **** *  void
 321:Generated_Source\PSoC5/cyfitter_cfg.c **** *
 322:Generated_Source\PSoC5/cyfitter_cfg.c **** *******************************************************************************/
 323:Generated_Source\PSoC5/cyfitter_cfg.c **** static void AnalogSetDefault(void);
 324:Generated_Source\PSoC5/cyfitter_cfg.c **** static void AnalogSetDefault(void)
 325:Generated_Source\PSoC5/cyfitter_cfg.c **** {
 124              		.loc 1 325 0
 125              		.cfi_startproc
 126              		@ args = 0, pretend = 0, frame = 0
 127              		@ frame_needed = 0, uses_anonymous_args = 0
 128              		@ link register save eliminated.
ARM GAS  C:\Users\pasan savindu\AppData\Local\Temp\ccsLYcXY.s 			page 9


 326:Generated_Source\PSoC5/cyfitter_cfg.c **** 	uint8 bg_xover_inl_trim = CY_GET_XTND_REG8((void CYFAR *)(CYREG_FLSHID_MFG_CFG_BG_XOVER_INL_TRIM +
 129              		.loc 1 326 0
 130 0000 064B     		ldr	r3, .L10
 131 0002 1B78     		ldrb	r3, [r3]	@ zero_extendqisi2
 132 0004 DBB2     		uxtb	r3, r3
 133              	.LVL12:
 327:Generated_Source\PSoC5/cyfitter_cfg.c **** 	CY_SET_XTND_REG8((void CYFAR *)(CYREG_BG_DFT0), (bg_xover_inl_trim & 0x07u));
 134              		.loc 1 327 0
 135 0006 03F00701 		and	r1, r3, #7
 136 000a 054A     		ldr	r2, .L10+4
 137 000c 1170     		strb	r1, [r2]
 328:Generated_Source\PSoC5/cyfitter_cfg.c **** 	CY_SET_XTND_REG8((void CYFAR *)(CYREG_BG_DFT1), ((bg_xover_inl_trim >> 4) & 0x0Fu));
 138              		.loc 1 328 0
 139 000e 1B09     		lsrs	r3, r3, #4
 140              	.LVL13:
 141 0010 0132     		adds	r2, r2, #1
 142 0012 1370     		strb	r3, [r2]
 329:Generated_Source\PSoC5/cyfitter_cfg.c **** 	CY_SET_XTND_REG8((void CYFAR *)CYREG_PUMP_CR0, 0x44u);
 143              		.loc 1 329 0
 144 0014 4422     		movs	r2, #68
 145 0016 034B     		ldr	r3, .L10+8
 146 0018 1A70     		strb	r2, [r3]
 147 001a 7047     		bx	lr
 148              	.L11:
 149              		.align	2
 150              	.L10:
 151 001c CF010049 		.word	1224737231
 152 0020 6E580040 		.word	1073764462
 153 0024 76580040 		.word	1073764470
 154              		.cfi_endproc
 155              	.LFE6:
 156              		.size	AnalogSetDefault, .-AnalogSetDefault
 157              		.section	.text.CYMEMZERO,"ax",%progbits
 158              		.align	2
 159              		.thumb
 160              		.thumb_func
 161              		.type	CYMEMZERO, %function
 162              	CYMEMZERO:
 163              	.LFB0:
  78:Generated_Source\PSoC5/cyfitter_cfg.c **** 	(void)memset(s, 0, n);
 164              		.loc 1 78 0
 165              		.cfi_startproc
 166              		@ args = 0, pretend = 0, frame = 0
 167              		@ frame_needed = 0, uses_anonymous_args = 0
 168              	.LVL14:
 169 0000 08B5     		push	{r3, lr}
 170              		.cfi_def_cfa_offset 8
 171              		.cfi_offset 3, -8
 172              		.cfi_offset 14, -4
  79:Generated_Source\PSoC5/cyfitter_cfg.c **** }
 173              		.loc 1 79 0
 174 0002 0A46     		mov	r2, r1
 175 0004 0021     		movs	r1, #0
 176              	.LVL15:
 177 0006 FFF7FEFF 		bl	memset
 178              	.LVL16:
 179 000a 08BD     		pop	{r3, pc}
ARM GAS  C:\Users\pasan savindu\AppData\Local\Temp\ccsLYcXY.s 			page 10


 180              		.cfi_endproc
 181              	.LFE0:
 182              		.size	CYMEMZERO, .-CYMEMZERO
 183              		.section	.text.ClockSetup,"ax",%progbits
 184              		.align	2
 185              		.thumb
 186              		.thumb_func
 187              		.type	ClockSetup, %function
 188              	ClockSetup:
 189              	.LFB5:
 246:Generated_Source\PSoC5/cyfitter_cfg.c **** 	uint32 timeout;
 190              		.loc 1 246 0
 191              		.cfi_startproc
 192              		@ args = 0, pretend = 0, frame = 0
 193              		@ frame_needed = 0, uses_anonymous_args = 0
 194 0000 38B5     		push	{r3, r4, r5, lr}
 195              		.cfi_def_cfa_offset 16
 196              		.cfi_offset 3, -16
 197              		.cfi_offset 4, -12
 198              		.cfi_offset 5, -8
 199              		.cfi_offset 14, -4
 252:Generated_Source\PSoC5/cyfitter_cfg.c **** 	CY_SET_XTND_REG8((void CYFAR *)(CYREG_CLKDIST_DCFG0_CFG0 + 0x2u), 0x18u);
 200              		.loc 1 252 0
 201 0002 0122     		movs	r2, #1
 202 0004 344B     		ldr	r3, .L20
 203 0006 1A80     		strh	r2, [r3]	@ movhi
 253:Generated_Source\PSoC5/cyfitter_cfg.c **** 	CY_SET_XTND_REG16((void CYFAR *)(CYREG_CLKDIST_DCFG1_CFG0), 0x0001u);
 204              		.loc 1 253 0
 205 0008 1823     		movs	r3, #24
 206 000a 3449     		ldr	r1, .L20+4
 207 000c 0B70     		strb	r3, [r1]
 254:Generated_Source\PSoC5/cyfitter_cfg.c **** 	CY_SET_XTND_REG8((void CYFAR *)(CYREG_CLKDIST_DCFG1_CFG0 + 0x2u), 0x18u);
 208              		.loc 1 254 0
 209 000e 0231     		adds	r1, r1, #2
 210 0010 0A80     		strh	r2, [r1]	@ movhi
 255:Generated_Source\PSoC5/cyfitter_cfg.c **** 	CY_SET_XTND_REG16((void CYFAR *)(CYREG_CLKDIST_DCFG2_CFG0), 0x0017u);
 211              		.loc 1 255 0
 212 0012 334A     		ldr	r2, .L20+8
 213 0014 1370     		strb	r3, [r2]
 256:Generated_Source\PSoC5/cyfitter_cfg.c **** 	CY_SET_XTND_REG8((void CYFAR *)(CYREG_CLKDIST_DCFG2_CFG0 + 0x2u), 0x18u);
 214              		.loc 1 256 0
 215 0016 1722     		movs	r2, #23
 216 0018 0431     		adds	r1, r1, #4
 217 001a 0A80     		strh	r2, [r1]	@ movhi
 257:Generated_Source\PSoC5/cyfitter_cfg.c **** 	CY_SET_XTND_REG16((void CYFAR *)(CYREG_CLKDIST_DCFG3_CFG0), 0x0017u);
 218              		.loc 1 257 0
 219 001c 0231     		adds	r1, r1, #2
 220 001e 0B70     		strb	r3, [r1]
 258:Generated_Source\PSoC5/cyfitter_cfg.c **** 	CY_SET_XTND_REG8((void CYFAR *)(CYREG_CLKDIST_DCFG3_CFG0 + 0x2u), 0x18u);
 221              		.loc 1 258 0
 222 0020 0231     		adds	r1, r1, #2
 223 0022 0A80     		strh	r2, [r1]	@ movhi
 259:Generated_Source\PSoC5/cyfitter_cfg.c **** 	CY_SET_XTND_REG16((void CYFAR *)(CYREG_CLKDIST_DCFG4_CFG0), 0x0017u);
 224              		.loc 1 259 0
 225 0024 0231     		adds	r1, r1, #2
 226 0026 0B70     		strb	r3, [r1]
 260:Generated_Source\PSoC5/cyfitter_cfg.c **** 	CY_SET_XTND_REG8((void CYFAR *)(CYREG_CLKDIST_DCFG4_CFG0 + 0x2u), 0x18u);
ARM GAS  C:\Users\pasan savindu\AppData\Local\Temp\ccsLYcXY.s 			page 11


 227              		.loc 1 260 0
 228 0028 0231     		adds	r1, r1, #2
 229 002a 0A80     		strh	r2, [r1]	@ movhi
 261:Generated_Source\PSoC5/cyfitter_cfg.c **** 	CY_SET_XTND_REG16((void CYFAR *)(CYREG_CLKDIST_DCFG5_CFG0), 0x0033u);
 230              		.loc 1 261 0
 231 002c 2D4A     		ldr	r2, .L20+12
 232 002e 1370     		strb	r3, [r2]
 262:Generated_Source\PSoC5/cyfitter_cfg.c **** 	CY_SET_XTND_REG8((void CYFAR *)(CYREG_CLKDIST_DCFG5_CFG0 + 0x2u), 0x18u);
 233              		.loc 1 262 0
 234 0030 3321     		movs	r1, #51
 235 0032 0232     		adds	r2, r2, #2
 236 0034 1180     		strh	r1, [r2]	@ movhi
 263:Generated_Source\PSoC5/cyfitter_cfg.c **** 	CY_SET_XTND_REG16((void CYFAR *)(CYREG_CLKDIST_DCFG6_CFG0), 0x00EFu);
 237              		.loc 1 263 0
 238 0036 0232     		adds	r2, r2, #2
 239 0038 1370     		strb	r3, [r2]
 264:Generated_Source\PSoC5/cyfitter_cfg.c **** 	CY_SET_XTND_REG8((void CYFAR *)(CYREG_CLKDIST_DCFG6_CFG0 + 0x2u), 0x18u);
 240              		.loc 1 264 0
 241 003a EF21     		movs	r1, #239
 242 003c 0232     		adds	r2, r2, #2
 243 003e 1180     		strh	r1, [r2]	@ movhi
 265:Generated_Source\PSoC5/cyfitter_cfg.c **** 	CY_SET_XTND_REG16((void CYFAR *)(CYREG_CLKDIST_DCFG7_CFG0), 0x752Fu);
 244              		.loc 1 265 0
 245 0040 0232     		adds	r2, r2, #2
 246 0042 1370     		strb	r3, [r2]
 266:Generated_Source\PSoC5/cyfitter_cfg.c **** 	CY_SET_XTND_REG8((void CYFAR *)(CYREG_CLKDIST_DCFG7_CFG0 + 0x2u), 0x19u);
 247              		.loc 1 266 0
 248 0044 47F22F52 		movw	r2, #29999
 249 0048 274B     		ldr	r3, .L20+16
 250 004a 1A80     		strh	r2, [r3]	@ movhi
 267:Generated_Source\PSoC5/cyfitter_cfg.c **** 
 251              		.loc 1 267 0
 252 004c 1925     		movs	r5, #25
 253 004e 0233     		adds	r3, r3, #2
 254 0050 1D70     		strb	r5, [r3]
 270:Generated_Source\PSoC5/cyfitter_cfg.c **** 	CY_SET_XTND_REG8((void CYFAR *)(CYREG_CLKDIST_CR), 0x08u);
 255              		.loc 1 270 0
 256 0052 0222     		movs	r2, #2
 257 0054 03F26223 		addw	r3, r3, #610
 258 0058 1A70     		strb	r2, [r3]
 271:Generated_Source\PSoC5/cyfitter_cfg.c **** 
 259              		.loc 1 271 0
 260 005a 0822     		movs	r2, #8
 261 005c 4FF04023 		mov	r3, #1073758208
 262 0060 1A70     		strb	r2, [r3]
 274:Generated_Source\PSoC5/cyfitter_cfg.c **** 	CY_SET_XTND_REG8((void CYFAR *)(CYREG_IMO_TR1), (CY_GET_XTND_REG8((void CYFAR *)CYREG_FLSHID_CUST_
 263              		.loc 1 274 0
 264 0062 0321     		movs	r1, #3
 265 0064 03F50073 		add	r3, r3, #512
 266 0068 1970     		strb	r1, [r3]
 275:Generated_Source\PSoC5/cyfitter_cfg.c **** 
 267              		.loc 1 275 0
 268 006a 204B     		ldr	r3, .L20+20
 269 006c 1B78     		ldrb	r3, [r3]	@ zero_extendqisi2
 270 006e DBB2     		uxtb	r3, r3
 271 0070 1F49     		ldr	r1, .L20+24
 272 0072 0B70     		strb	r3, [r1]
ARM GAS  C:\Users\pasan savindu\AppData\Local\Temp\ccsLYcXY.s 			page 12


 278:Generated_Source\PSoC5/cyfitter_cfg.c **** 	CY_SET_XTND_REG16((void CYFAR *)(CYREG_FASTCLK_PLL_CFG0), 0x1251u);
 273              		.loc 1 278 0
 274 0074 1F4B     		ldr	r3, .L20+28
 275 0076 1A80     		strh	r2, [r3]	@ movhi
 279:Generated_Source\PSoC5/cyfitter_cfg.c **** 	/* Wait up to 250us for the PLL to lock */
 276              		.loc 1 279 0
 277 0078 41F25122 		movw	r2, #4689
 278 007c 023B     		subs	r3, r3, #2
 279 007e 1A80     		strh	r2, [r3]	@ movhi
 280              	.LVL17:
 281:Generated_Source\PSoC5/cyfitter_cfg.c **** 	for (timeout = 250u / 10u; (timeout > 0u) && (pllLock != 0x03u); timeout--)
 281              		.loc 1 281 0
 282 0080 0024     		movs	r4, #0
 282:Generated_Source\PSoC5/cyfitter_cfg.c **** 	{ 
 283              		.loc 1 282 0
 284 0082 0CE0     		b	.L15
 285              	.LVL18:
 286              	.L17:
 284:Generated_Source\PSoC5/cyfitter_cfg.c **** 		CyDelayCycles(10u * 48u); /* Delay 10us based on 48MHz clock */
 287              		.loc 1 284 0 discriminator 4
 288 0084 1C4B     		ldr	r3, .L20+32
 289 0086 1B78     		ldrb	r3, [r3]	@ zero_extendqisi2
 290 0088 03F00103 		and	r3, r3, #1
 291 008c 43EA4404 		orr	r4, r3, r4, lsl #1
 292              	.LVL19:
 293 0090 04F00304 		and	r4, r4, #3
 294              	.LVL20:
 285:Generated_Source\PSoC5/cyfitter_cfg.c **** 	}
 295              		.loc 1 285 0 discriminator 4
 296 0094 4FF4F070 		mov	r0, #480
 297 0098 FFF7FEFF 		bl	CyDelayCycles
 298              	.LVL21:
 282:Generated_Source\PSoC5/cyfitter_cfg.c **** 	{ 
 299              		.loc 1 282 0 discriminator 4
 300 009c 013D     		subs	r5, r5, #1
 301              	.LVL22:
 302              	.L15:
 282:Generated_Source\PSoC5/cyfitter_cfg.c **** 	{ 
 303              		.loc 1 282 0 is_stmt 0 discriminator 1
 304 009e 0DB1     		cbz	r5, .L16
 282:Generated_Source\PSoC5/cyfitter_cfg.c **** 	{ 
 305              		.loc 1 282 0 discriminator 3
 306 00a0 032C     		cmp	r4, #3
 307 00a2 EFD1     		bne	.L17
 308              	.L16:
 288:Generated_Source\PSoC5/cyfitter_cfg.c **** 	{
 309              		.loc 1 288 0 is_stmt 1
 310 00a4 15B9     		cbnz	r5, .L18
 290:Generated_Source\PSoC5/cyfitter_cfg.c **** 	}
 311              		.loc 1 290 0
 312 00a6 0320     		movs	r0, #3
 313 00a8 FFF7FEFF 		bl	CyClockStartupError
 314              	.LVL23:
 315              	.L18:
 294:Generated_Source\PSoC5/cyfitter_cfg.c **** 	CY_SET_XTND_REG8((void CYFAR *)(CYREG_CLKDIST_MSTR0), 0x07u);
 316              		.loc 1 294 0
 317 00ac 134B     		ldr	r3, .L20+36
ARM GAS  C:\Users\pasan savindu\AppData\Local\Temp\ccsLYcXY.s 			page 13


 318 00ae 4FF48072 		mov	r2, #256
 319 00b2 1A80     		strh	r2, [r3]	@ movhi
 295:Generated_Source\PSoC5/cyfitter_cfg.c **** 	CY_SET_XTND_REG8((void CYFAR *)(CYREG_CLKDIST_BCFG0), 0x00u);
 320              		.loc 1 295 0
 321 00b4 0722     		movs	r2, #7
 322 00b6 1A70     		strb	r2, [r3]
 296:Generated_Source\PSoC5/cyfitter_cfg.c **** 	CY_SET_XTND_REG8((void CYFAR *)(CYREG_CLKDIST_BCFG2), 0x48u);
 323              		.loc 1 296 0
 324 00b8 0022     		movs	r2, #0
 325 00ba 1149     		ldr	r1, .L20+40
 326 00bc 0A70     		strb	r2, [r1]
 297:Generated_Source\PSoC5/cyfitter_cfg.c **** 	CY_SET_XTND_REG8((void CYFAR *)(CYREG_CLKDIST_MSTR0), 0x00u);
 327              		.loc 1 297 0
 328 00be 4820     		movs	r0, #72
 329 00c0 0231     		adds	r1, r1, #2
 330 00c2 0870     		strb	r0, [r1]
 298:Generated_Source\PSoC5/cyfitter_cfg.c **** 	CY_SET_XTND_REG8((void CYFAR *)(CYREG_CLKDIST_LD), 0x02u);
 331              		.loc 1 298 0
 332 00c4 1A70     		strb	r2, [r3]
 299:Generated_Source\PSoC5/cyfitter_cfg.c **** 
 333              		.loc 1 299 0
 334 00c6 0222     		movs	r2, #2
 335 00c8 033B     		subs	r3, r3, #3
 336 00ca 1A70     		strb	r2, [r3]
 301:Generated_Source\PSoC5/cyfitter_cfg.c **** }
 337              		.loc 1 301 0
 338 00cc 03F2A133 		addw	r3, r3, #929
 339 00d0 1A78     		ldrb	r2, [r3]	@ zero_extendqisi2
 340 00d2 FF22     		movs	r2, #255
 341 00d4 1A70     		strb	r2, [r3]
 342 00d6 38BD     		pop	{r3, r4, r5, pc}
 343              	.LVL24:
 344              	.L21:
 345              		.align	2
 346              	.L20:
 347 00d8 80400040 		.word	1073758336
 348 00dc 82400040 		.word	1073758338
 349 00e0 86400040 		.word	1073758342
 350 00e4 92400040 		.word	1073758354
 351 00e8 9C400040 		.word	1073758364
 352 00ec 08010049 		.word	1224737032
 353 00f0 A1460040 		.word	1073759905
 354 00f4 22420040 		.word	1073758754
 355 00f8 25420040 		.word	1073758757
 356 00fc 04400040 		.word	1073758212
 357 0100 06400040 		.word	1073758214
 358              		.cfi_endproc
 359              	.LFE5:
 360              		.size	ClockSetup, .-ClockSetup
 361              		.section	.text.CYCONFIGCPY,"ax",%progbits
 362              		.align	2
 363              		.thumb
 364              		.thumb_func
 365              		.type	CYCONFIGCPY, %function
 366              	CYCONFIGCPY:
 367              	.LFB1:
  85:Generated_Source\PSoC5/cyfitter_cfg.c **** 	(void)memcpy(dest, src, n);
ARM GAS  C:\Users\pasan savindu\AppData\Local\Temp\ccsLYcXY.s 			page 14


 368              		.loc 1 85 0
 369              		.cfi_startproc
 370              		@ args = 0, pretend = 0, frame = 0
 371              		@ frame_needed = 0, uses_anonymous_args = 0
 372              	.LVL25:
 373 0000 08B5     		push	{r3, lr}
 374              		.cfi_def_cfa_offset 8
 375              		.cfi_offset 3, -8
 376              		.cfi_offset 14, -4
  86:Generated_Source\PSoC5/cyfitter_cfg.c **** }
 377              		.loc 1 86 0
 378 0002 FFF7FEFF 		bl	memcpy
 379              	.LVL26:
 380 0006 08BD     		pop	{r3, pc}
 381              		.cfi_endproc
 382              	.LFE1:
 383              		.size	CYCONFIGCPY, .-CYCONFIGCPY
 384              		.section	.text.SetAnalogRoutingPumps,"ax",%progbits
 385              		.align	2
 386              		.global	SetAnalogRoutingPumps
 387              		.thumb
 388              		.thumb_func
 389              		.type	SetAnalogRoutingPumps, %function
 390              	SetAnalogRoutingPumps:
 391              	.LFB7:
 330:Generated_Source\PSoC5/cyfitter_cfg.c **** }
 331:Generated_Source\PSoC5/cyfitter_cfg.c **** 
 332:Generated_Source\PSoC5/cyfitter_cfg.c **** 
 333:Generated_Source\PSoC5/cyfitter_cfg.c **** /*******************************************************************************
 334:Generated_Source\PSoC5/cyfitter_cfg.c **** * Function Name: SetAnalogRoutingPumps
 335:Generated_Source\PSoC5/cyfitter_cfg.c **** ********************************************************************************
 336:Generated_Source\PSoC5/cyfitter_cfg.c **** *
 337:Generated_Source\PSoC5/cyfitter_cfg.c **** * Summary:
 338:Generated_Source\PSoC5/cyfitter_cfg.c **** * Enables or disables the analog pumps feeding analog routing switches.
 339:Generated_Source\PSoC5/cyfitter_cfg.c **** * Intended to be called at startup, based on the Vdda system configuration;
 340:Generated_Source\PSoC5/cyfitter_cfg.c **** * may be called during operation when the user informs us that the Vdda voltage
 341:Generated_Source\PSoC5/cyfitter_cfg.c **** * crossed the pump threshold.
 342:Generated_Source\PSoC5/cyfitter_cfg.c **** *
 343:Generated_Source\PSoC5/cyfitter_cfg.c **** * Parameters:
 344:Generated_Source\PSoC5/cyfitter_cfg.c **** *  enabled - 1 to enable the pumps, 0 to disable the pumps
 345:Generated_Source\PSoC5/cyfitter_cfg.c **** *
 346:Generated_Source\PSoC5/cyfitter_cfg.c **** * Return:
 347:Generated_Source\PSoC5/cyfitter_cfg.c **** *  void
 348:Generated_Source\PSoC5/cyfitter_cfg.c **** *
 349:Generated_Source\PSoC5/cyfitter_cfg.c **** *******************************************************************************/
 350:Generated_Source\PSoC5/cyfitter_cfg.c **** void SetAnalogRoutingPumps(uint8 enabled)
 351:Generated_Source\PSoC5/cyfitter_cfg.c **** {
 392              		.loc 1 351 0
 393              		.cfi_startproc
 394              		@ args = 0, pretend = 0, frame = 0
 395              		@ frame_needed = 0, uses_anonymous_args = 0
 396              		@ link register save eliminated.
 397              	.LVL27:
 352:Generated_Source\PSoC5/cyfitter_cfg.c **** 	uint8 regValue = CY_GET_XTND_REG8((void CYFAR *)CYREG_PUMP_CR0);
 398              		.loc 1 352 0
 399 0000 024A     		ldr	r2, .L25
 400 0002 1378     		ldrb	r3, [r2]	@ zero_extendqisi2
ARM GAS  C:\Users\pasan savindu\AppData\Local\Temp\ccsLYcXY.s 			page 15


 401 0004 DBB2     		uxtb	r3, r3
 402              	.LVL28:
 353:Generated_Source\PSoC5/cyfitter_cfg.c **** 	if (enabled != 0u)
 354:Generated_Source\PSoC5/cyfitter_cfg.c **** 	{
 355:Generated_Source\PSoC5/cyfitter_cfg.c **** 		regValue |= 0x00u;
 356:Generated_Source\PSoC5/cyfitter_cfg.c **** 	}
 357:Generated_Source\PSoC5/cyfitter_cfg.c **** 	else
 358:Generated_Source\PSoC5/cyfitter_cfg.c **** 	{
 359:Generated_Source\PSoC5/cyfitter_cfg.c **** 		regValue &= (uint8)~0x00u;
 360:Generated_Source\PSoC5/cyfitter_cfg.c **** 	}
 361:Generated_Source\PSoC5/cyfitter_cfg.c **** 	CY_SET_XTND_REG8((void CYFAR *)CYREG_PUMP_CR0, regValue);
 403              		.loc 1 361 0
 404 0006 1370     		strb	r3, [r2]
 405 0008 7047     		bx	lr
 406              	.L26:
 407 000a 00BF     		.align	2
 408              	.L25:
 409 000c 76580040 		.word	1073764470
 410              		.cfi_endproc
 411              	.LFE7:
 412              		.size	SetAnalogRoutingPumps, .-SetAnalogRoutingPumps
 413              		.section	.text.cyfitter_cfg,"ax",%progbits
 414              		.align	2
 415              		.global	cyfitter_cfg
 416              		.thumb
 417              		.thumb_func
 418              		.type	cyfitter_cfg, %function
 419              	cyfitter_cfg:
 420              	.LFB8:
 362:Generated_Source\PSoC5/cyfitter_cfg.c **** }
 363:Generated_Source\PSoC5/cyfitter_cfg.c **** 
 364:Generated_Source\PSoC5/cyfitter_cfg.c **** 
 365:Generated_Source\PSoC5/cyfitter_cfg.c **** 
 366:Generated_Source\PSoC5/cyfitter_cfg.c **** 
 367:Generated_Source\PSoC5/cyfitter_cfg.c **** /*******************************************************************************
 368:Generated_Source\PSoC5/cyfitter_cfg.c **** * Function Name: cyfitter_cfg
 369:Generated_Source\PSoC5/cyfitter_cfg.c **** ********************************************************************************
 370:Generated_Source\PSoC5/cyfitter_cfg.c **** * Summary:
 371:Generated_Source\PSoC5/cyfitter_cfg.c **** *  This function is called by the start-up code for the selected device. It
 372:Generated_Source\PSoC5/cyfitter_cfg.c **** *  performs all of the necessary device configuration based on the design
 373:Generated_Source\PSoC5/cyfitter_cfg.c **** *  settings.  This includes settings from the Design Wide Resources (DWR) such
 374:Generated_Source\PSoC5/cyfitter_cfg.c **** *  as Clocks and Pins as well as any component configuration that is necessary.
 375:Generated_Source\PSoC5/cyfitter_cfg.c **** *
 376:Generated_Source\PSoC5/cyfitter_cfg.c **** * Parameters:
 377:Generated_Source\PSoC5/cyfitter_cfg.c **** *   void
 378:Generated_Source\PSoC5/cyfitter_cfg.c **** *
 379:Generated_Source\PSoC5/cyfitter_cfg.c **** * Return:
 380:Generated_Source\PSoC5/cyfitter_cfg.c **** *   void
 381:Generated_Source\PSoC5/cyfitter_cfg.c **** *
 382:Generated_Source\PSoC5/cyfitter_cfg.c **** *******************************************************************************/
 383:Generated_Source\PSoC5/cyfitter_cfg.c **** 
 384:Generated_Source\PSoC5/cyfitter_cfg.c **** void cyfitter_cfg(void)
 385:Generated_Source\PSoC5/cyfitter_cfg.c **** {
 421              		.loc 1 385 0
 422              		.cfi_startproc
 423              		@ args = 0, pretend = 0, frame = 0
 424              		@ frame_needed = 0, uses_anonymous_args = 0
ARM GAS  C:\Users\pasan savindu\AppData\Local\Temp\ccsLYcXY.s 			page 16


 425 0000 38B5     		push	{r3, r4, r5, lr}
 426              		.cfi_def_cfa_offset 16
 427              		.cfi_offset 3, -16
 428              		.cfi_offset 4, -12
 429              		.cfi_offset 5, -8
 430              		.cfi_offset 14, -4
 386:Generated_Source\PSoC5/cyfitter_cfg.c **** #ifdef CYGlobalIntDisable
 387:Generated_Source\PSoC5/cyfitter_cfg.c **** 	/* Disable interrupts by default. Let user enable if/when they want. */
 388:Generated_Source\PSoC5/cyfitter_cfg.c **** 	CYGlobalIntDisable
 431              		.loc 1 388 0
 432              		.syntax unified
 433              	@ 388 "Generated_Source\PSoC5\cyfitter_cfg.c" 1
 434 0002 72B6     		CPSID   i
 435              	@ 0 "" 2
 389:Generated_Source\PSoC5/cyfitter_cfg.c **** #endif
 390:Generated_Source\PSoC5/cyfitter_cfg.c **** 
 391:Generated_Source\PSoC5/cyfitter_cfg.c **** 	/* Enable/Disable Debug functionality based on settings from System DWR */
 392:Generated_Source\PSoC5/cyfitter_cfg.c **** 	CY_SET_XTND_REG8((void CYFAR *)CYREG_MLOGIC_DEBUG, (CY_GET_XTND_REG8((void CYFAR *)CYREG_MLOGIC_DE
 436              		.loc 1 392 0
 437              		.thumb
 438              		.syntax unified
 439 0004 444A     		ldr	r2, .L33
 440 0006 1378     		ldrb	r3, [r2]	@ zero_extendqisi2
 441 0008 43F00403 		orr	r3, r3, #4
 442 000c 1370     		strb	r3, [r2]
 443              	.LVL29:
 444              	.LBB3:
 393:Generated_Source\PSoC5/cyfitter_cfg.c **** 
 394:Generated_Source\PSoC5/cyfitter_cfg.c **** 	{
 395:Generated_Source\PSoC5/cyfitter_cfg.c **** 
 396:Generated_Source\PSoC5/cyfitter_cfg.c **** 		CYPACKED typedef struct {
 397:Generated_Source\PSoC5/cyfitter_cfg.c **** 			void CYFAR *address;
 398:Generated_Source\PSoC5/cyfitter_cfg.c **** 			uint16 size;
 399:Generated_Source\PSoC5/cyfitter_cfg.c **** 		} CYPACKED_ATTR cfg_memset_t;
 400:Generated_Source\PSoC5/cyfitter_cfg.c **** 
 401:Generated_Source\PSoC5/cyfitter_cfg.c **** 
 402:Generated_Source\PSoC5/cyfitter_cfg.c **** 		CYPACKED typedef struct {
 403:Generated_Source\PSoC5/cyfitter_cfg.c **** 			void CYFAR *dest;
 404:Generated_Source\PSoC5/cyfitter_cfg.c **** 			const void CYFAR *src;
 405:Generated_Source\PSoC5/cyfitter_cfg.c **** 			uint16 size;
 406:Generated_Source\PSoC5/cyfitter_cfg.c **** 		} CYPACKED_ATTR cfg_memcpy_t;
 407:Generated_Source\PSoC5/cyfitter_cfg.c **** 
 408:Generated_Source\PSoC5/cyfitter_cfg.c **** 		static const cfg_memset_t CYCODE cfg_memset_list[] = {
 409:Generated_Source\PSoC5/cyfitter_cfg.c **** 			/* address, size */
 410:Generated_Source\PSoC5/cyfitter_cfg.c **** 			{(void CYFAR *)(CYREG_I2C_XCFG), 25u},
 411:Generated_Source\PSoC5/cyfitter_cfg.c **** 			{(void CYFAR *)(CYREG_TMR0_CFG0), 12u},
 412:Generated_Source\PSoC5/cyfitter_cfg.c **** 			{(void CYFAR *)(CYREG_PRT4_DR), 48u},
 413:Generated_Source\PSoC5/cyfitter_cfg.c **** 			{(void CYFAR *)(CYDEV_UCFG_B0_P0_U0_BASE), 1152u},
 414:Generated_Source\PSoC5/cyfitter_cfg.c **** 			{(void CYFAR *)(CYDEV_UCFG_B0_P2_ROUTE_BASE), 384u},
 415:Generated_Source\PSoC5/cyfitter_cfg.c **** 			{(void CYFAR *)(CYDEV_UCFG_B0_P3_ROUTE_BASE), 1408u},
 416:Generated_Source\PSoC5/cyfitter_cfg.c **** 			{(void CYFAR *)(CYDEV_UCFG_B0_P6_ROUTE_BASE), 256u},
 417:Generated_Source\PSoC5/cyfitter_cfg.c **** 			{(void CYFAR *)(CYDEV_UCFG_B0_P7_U1_BASE), 384u},
 418:Generated_Source\PSoC5/cyfitter_cfg.c **** 			{(void CYFAR *)(CYDEV_UCFG_B1_P2_U0_BASE), 640u},
 419:Generated_Source\PSoC5/cyfitter_cfg.c **** 			{(void CYFAR *)(CYDEV_UCFG_B1_P3_ROUTE_BASE), 1280u},
 420:Generated_Source\PSoC5/cyfitter_cfg.c **** 			{(void CYFAR *)(CYDEV_UCFG_DSI0_BASE), 2560u},
 421:Generated_Source\PSoC5/cyfitter_cfg.c **** 			{(void CYFAR *)(CYDEV_UCFG_DSI12_BASE), 512u},
 422:Generated_Source\PSoC5/cyfitter_cfg.c **** 			{(void CYFAR *)(CYREG_BCTL0_MDCLK_EN), 32u},
ARM GAS  C:\Users\pasan savindu\AppData\Local\Temp\ccsLYcXY.s 			page 17


 423:Generated_Source\PSoC5/cyfitter_cfg.c **** 		};
 424:Generated_Source\PSoC5/cyfitter_cfg.c **** 
 425:Generated_Source\PSoC5/cyfitter_cfg.c **** 		static const cfg_memcpy_t CYCODE cfg_memcpy_list [] = {
 426:Generated_Source\PSoC5/cyfitter_cfg.c **** 			/* dest, src, size */
 427:Generated_Source\PSoC5/cyfitter_cfg.c **** 			{(void CYFAR *)(CYDEV_UCFG_B0_P2_U1_BASE), BS_UDB_1_3_1_CONFIG_VAL, 128u},
 428:Generated_Source\PSoC5/cyfitter_cfg.c **** 			{(void CYFAR *)(CYDEV_UCFG_B0_P3_U1_BASE), BS_UDB_1_2_0_CONFIG_VAL, 128u},
 429:Generated_Source\PSoC5/cyfitter_cfg.c **** 			{(void CYFAR *)(CYDEV_UCFG_B0_P6_U1_BASE), BS_UDB_0_4_0_CONFIG_VAL, 128u},
 430:Generated_Source\PSoC5/cyfitter_cfg.c **** 			{(void CYFAR *)(CYDEV_UCFG_B0_P7_U0_BASE), BS_UDB_0_5_0_CONFIG_VAL, 128u},
 431:Generated_Source\PSoC5/cyfitter_cfg.c **** 			{(void CYFAR *)(CYDEV_UCFG_B1_P3_U1_BASE), BS_UDB_1_1_0_CONFIG_VAL, 128u},
 432:Generated_Source\PSoC5/cyfitter_cfg.c **** 		};
 433:Generated_Source\PSoC5/cyfitter_cfg.c **** 
 434:Generated_Source\PSoC5/cyfitter_cfg.c **** 		uint8 CYDATA i;
 435:Generated_Source\PSoC5/cyfitter_cfg.c **** 
 436:Generated_Source\PSoC5/cyfitter_cfg.c **** 		/* Zero out critical memory blocks before beginning configuration */
 437:Generated_Source\PSoC5/cyfitter_cfg.c **** 		for (i = 0u; i < (sizeof(cfg_memset_list)/sizeof(cfg_memset_list[0])); i++)
 445              		.loc 1 437 0
 446 000e 0024     		movs	r4, #0
 447 0010 0CE0     		b	.L28
 448              	.LVL30:
 449              	.L29:
 450              	.LBB4:
 438:Generated_Source\PSoC5/cyfitter_cfg.c **** 		{
 439:Generated_Source\PSoC5/cyfitter_cfg.c **** 			const cfg_memset_t CYCODE * CYDATA ms = &cfg_memset_list[i];
 440:Generated_Source\PSoC5/cyfitter_cfg.c **** 			CYMEMZERO(ms->address, (size_t)(uint32)(ms->size));
 451              		.loc 1 440 0 discriminator 3
 452 0012 424D     		ldr	r5, .L33+4
 453 0014 6300     		lsls	r3, r4, #1
 454 0016 1919     		adds	r1, r3, r4
 455 0018 4A00     		lsls	r2, r1, #1
 456 001a 1146     		mov	r1, r2
 457 001c 2A44     		add	r2, r2, r5
 458 001e 0846     		mov	r0, r1
 459 0020 9188     		ldrh	r1, [r2, #4]
 460 0022 2858     		ldr	r0, [r5, r0]	@ unaligned
 461 0024 FFF7FEFF 		bl	CYMEMZERO
 462              	.LVL31:
 463              	.LBE4:
 437:Generated_Source\PSoC5/cyfitter_cfg.c **** 		{
 464              		.loc 1 437 0 discriminator 3
 465 0028 0134     		adds	r4, r4, #1
 466              	.LVL32:
 467 002a E4B2     		uxtb	r4, r4
 468              	.LVL33:
 469              	.L28:
 437:Generated_Source\PSoC5/cyfitter_cfg.c **** 		{
 470              		.loc 1 437 0 is_stmt 0 discriminator 1
 471 002c 0C2C     		cmp	r4, #12
 472 002e F0D9     		bls	.L29
 473 0030 0024     		movs	r4, #0
 474              	.LVL34:
 475 0032 0CE0     		b	.L30
 476              	.LVL35:
 477              	.L31:
 478              	.LBB5:
 441:Generated_Source\PSoC5/cyfitter_cfg.c **** 		}
 442:Generated_Source\PSoC5/cyfitter_cfg.c **** 
 443:Generated_Source\PSoC5/cyfitter_cfg.c **** 		/* Copy device configuration data into registers */
ARM GAS  C:\Users\pasan savindu\AppData\Local\Temp\ccsLYcXY.s 			page 18


 444:Generated_Source\PSoC5/cyfitter_cfg.c **** 		for (i = 0u; i < (sizeof(cfg_memcpy_list)/sizeof(cfg_memcpy_list[0])); i++)
 445:Generated_Source\PSoC5/cyfitter_cfg.c **** 		{
 446:Generated_Source\PSoC5/cyfitter_cfg.c **** 			const cfg_memcpy_t CYCODE * CYDATA mc = &cfg_memcpy_list[i];
 447:Generated_Source\PSoC5/cyfitter_cfg.c **** 			void * CYDATA destPtr = mc->dest;
 479              		.loc 1 447 0 is_stmt 1 discriminator 3
 480 0034 3948     		ldr	r0, .L33+4
 481 0036 A200     		lsls	r2, r4, #2
 482 0038 1119     		adds	r1, r2, r4
 483 003a 4B00     		lsls	r3, r1, #1
 484 003c 0344     		add	r3, r3, r0
 485              	.LVL36:
 448:Generated_Source\PSoC5/cyfitter_cfg.c **** 			const void * CYDATA srcPtr = mc->src;
 449:Generated_Source\PSoC5/cyfitter_cfg.c **** 			uint16 CYDATA numBytes = mc->size;
 450:Generated_Source\PSoC5/cyfitter_cfg.c **** 			CYCONFIGCPY(destPtr, srcPtr, numBytes);
 486              		.loc 1 450 0 discriminator 3
 487 003e B3F85820 		ldrh	r2, [r3, #88]
 488 0042 596D     		ldr	r1, [r3, #84]	@ unaligned
 489              	.LVL37:
 490 0044 186D     		ldr	r0, [r3, #80]	@ unaligned
 491              	.LVL38:
 492 0046 FFF7FEFF 		bl	CYCONFIGCPY
 493              	.LVL39:
 494              	.LBE5:
 444:Generated_Source\PSoC5/cyfitter_cfg.c **** 		{
 495              		.loc 1 444 0 discriminator 3
 496 004a 0134     		adds	r4, r4, #1
 497              	.LVL40:
 498 004c E4B2     		uxtb	r4, r4
 499              	.LVL41:
 500              	.L30:
 444:Generated_Source\PSoC5/cyfitter_cfg.c **** 		{
 501              		.loc 1 444 0 is_stmt 0 discriminator 1
 502 004e 042C     		cmp	r4, #4
 503 0050 F0D9     		bls	.L31
 451:Generated_Source\PSoC5/cyfitter_cfg.c **** 		}
 452:Generated_Source\PSoC5/cyfitter_cfg.c **** 
 453:Generated_Source\PSoC5/cyfitter_cfg.c **** 		cfg_write_bytes32(cy_cfg_addr_table, cy_cfg_data_table);
 504              		.loc 1 453 0 is_stmt 1
 505 0052 3349     		ldr	r1, .L33+8
 506 0054 4FF09040 		mov	r0, #1207959552
 507 0058 FFF7FEFF 		bl	cfg_write_bytes32
 508              	.LVL42:
 454:Generated_Source\PSoC5/cyfitter_cfg.c **** 
 455:Generated_Source\PSoC5/cyfitter_cfg.c **** 		/* B0_P1_U1_CFG24 Starting address: CYDEV_UCFG_B0_P1_U1_CFG24 */
 456:Generated_Source\PSoC5/cyfitter_cfg.c **** 		CY_SET_XTND_REG32((void CYFAR *)(CYREG_B0_P1_U1_CFG24), 0x44040404u);
 509              		.loc 1 456 0
 510 005c 314A     		ldr	r2, .L33+12
 511 005e 324B     		ldr	r3, .L33+16
 512 0060 1A60     		str	r2, [r3]
 457:Generated_Source\PSoC5/cyfitter_cfg.c **** 
 458:Generated_Source\PSoC5/cyfitter_cfg.c **** 		/* B0_P5_U0_CFG24 Starting address: CYDEV_UCFG_B0_P5_U0_CFG24 */
 459:Generated_Source\PSoC5/cyfitter_cfg.c **** 		CY_SET_XTND_REG32((void CYFAR *)(CYREG_B0_P5_U0_CFG24), 0x84040404u);
 513              		.loc 1 459 0
 514 0062 324B     		ldr	r3, .L33+20
 515 0064 3249     		ldr	r1, .L33+24
 516 0066 0B60     		str	r3, [r1]
 460:Generated_Source\PSoC5/cyfitter_cfg.c **** 
ARM GAS  C:\Users\pasan savindu\AppData\Local\Temp\ccsLYcXY.s 			page 19


 461:Generated_Source\PSoC5/cyfitter_cfg.c **** 		/* B0_P5_U1_CFG24 Starting address: CYDEV_UCFG_B0_P5_U1_CFG24 */
 462:Generated_Source\PSoC5/cyfitter_cfg.c **** 		CY_SET_XTND_REG32((void CYFAR *)(CYREG_B0_P5_U1_CFG24), 0x44040404u);
 517              		.loc 1 462 0
 518 0068 8031     		adds	r1, r1, #128
 519 006a 0A60     		str	r2, [r1]
 463:Generated_Source\PSoC5/cyfitter_cfg.c **** 
 464:Generated_Source\PSoC5/cyfitter_cfg.c **** 		/* B0_P6_U0_CFG24 Starting address: CYDEV_UCFG_B0_P6_U0_CFG24 */
 465:Generated_Source\PSoC5/cyfitter_cfg.c **** 		CY_SET_XTND_REG32((void CYFAR *)(CYREG_B0_P6_U0_CFG24), 0x84040404u);
 520              		.loc 1 465 0
 521 006c 01F5C071 		add	r1, r1, #384
 522 0070 0B60     		str	r3, [r1]
 466:Generated_Source\PSoC5/cyfitter_cfg.c **** 
 467:Generated_Source\PSoC5/cyfitter_cfg.c **** 		/* B0_P7_U0_CFG24 Starting address: CYDEV_UCFG_B0_P7_U0_CFG24 */
 468:Generated_Source\PSoC5/cyfitter_cfg.c **** 		CY_SET_XTND_REG32((void CYFAR *)(CYREG_B0_P7_U0_CFG24), 0x44040404u);
 523              		.loc 1 468 0
 524 0072 01F50071 		add	r1, r1, #512
 525 0076 0A60     		str	r2, [r1]
 469:Generated_Source\PSoC5/cyfitter_cfg.c **** 
 470:Generated_Source\PSoC5/cyfitter_cfg.c **** 		/* B1_P3_U1_CFG24 Starting address: CYDEV_UCFG_B1_P3_U1_CFG24 */
 471:Generated_Source\PSoC5/cyfitter_cfg.c **** 		CY_SET_XTND_REG32((void CYFAR *)(CYREG_B1_P3_U1_CFG24), 0x84040404u);
 526              		.loc 1 471 0
 527 0078 2E4A     		ldr	r2, .L33+28
 528 007a 1360     		str	r3, [r2]
 472:Generated_Source\PSoC5/cyfitter_cfg.c **** 
 473:Generated_Source\PSoC5/cyfitter_cfg.c **** 		/* Enable digital routing */
 474:Generated_Source\PSoC5/cyfitter_cfg.c **** 		CY_SET_XTND_REG8((void CYFAR *)CYREG_BCTL0_BANK_CTL, CY_GET_XTND_REG8((void CYFAR *)CYREG_BCTL0_B
 529              		.loc 1 474 0
 530 007c 02F56452 		add	r2, r2, #14592
 531 0080 2B32     		adds	r2, r2, #43
 532 0082 1378     		ldrb	r3, [r2]	@ zero_extendqisi2
 533 0084 43F00203 		orr	r3, r3, #2
 534 0088 1370     		strb	r3, [r2]
 475:Generated_Source\PSoC5/cyfitter_cfg.c **** 		CY_SET_XTND_REG8((void CYFAR *)CYREG_BCTL1_BANK_CTL, CY_GET_XTND_REG8((void CYFAR *)CYREG_BCTL1_B
 535              		.loc 1 475 0
 536 008a 1032     		adds	r2, r2, #16
 537 008c 1378     		ldrb	r3, [r2]	@ zero_extendqisi2
 538 008e 43F00203 		orr	r3, r3, #2
 539 0092 1370     		strb	r3, [r2]
 476:Generated_Source\PSoC5/cyfitter_cfg.c **** 
 477:Generated_Source\PSoC5/cyfitter_cfg.c **** 		/* Enable UDB array */
 478:Generated_Source\PSoC5/cyfitter_cfg.c **** 		CY_SET_XTND_REG8((void CYFAR *)CYREG_PM_ACT_CFG0, CY_GET_XTND_REG8((void CYFAR *)CYREG_PM_ACT_CFG
 540              		.loc 1 478 0
 541 0094 284C     		ldr	r4, .L33+32
 542              	.LVL43:
 543 0096 2378     		ldrb	r3, [r4]	@ zero_extendqisi2
 544 0098 43F04003 		orr	r3, r3, #64
 545 009c 2370     		strb	r3, [r4]
 479:Generated_Source\PSoC5/cyfitter_cfg.c **** 		CY_SET_XTND_REG8((void CYFAR *)CYREG_PM_AVAIL_CR2, CY_GET_XTND_REG8((void CYFAR *)CYREG_PM_AVAIL_
 546              		.loc 1 479 0
 547 009e A2F58632 		sub	r2, r2, #68608
 548 00a2 513A     		subs	r2, r2, #81
 549 00a4 1378     		ldrb	r3, [r2]	@ zero_extendqisi2
 550 00a6 43F01003 		orr	r3, r3, #16
 551 00aa 1370     		strb	r3, [r2]
 552              	.LBE3:
 480:Generated_Source\PSoC5/cyfitter_cfg.c **** 	}
 481:Generated_Source\PSoC5/cyfitter_cfg.c **** 
ARM GAS  C:\Users\pasan savindu\AppData\Local\Temp\ccsLYcXY.s 			page 20


 482:Generated_Source\PSoC5/cyfitter_cfg.c **** 
 483:Generated_Source\PSoC5/cyfitter_cfg.c **** 	/* Perform second pass device configuration. These items must be configured in specific order afte
 484:Generated_Source\PSoC5/cyfitter_cfg.c **** 	CYCONFIGCPY((void CYFAR *)(CYREG_PRT0_DM0), (const void CYFAR *)(BS_IOPINS0_0_VAL), 8u);
 553              		.loc 1 484 0
 554 00ac 0822     		movs	r2, #8
 555 00ae 2349     		ldr	r1, .L33+36
 556 00b0 2348     		ldr	r0, .L33+40
 557 00b2 FFF7FEFF 		bl	CYCONFIGCPY
 558              	.LVL44:
 485:Generated_Source\PSoC5/cyfitter_cfg.c **** 	CYCONFIGCPY((void CYFAR *)(CYREG_PRT12_DR), (const void CYFAR *)(BS_IOPINS0_7_VAL), 10u);
 559              		.loc 1 485 0
 560 00b6 0A22     		movs	r2, #10
 561 00b8 2249     		ldr	r1, .L33+44
 562 00ba 2348     		ldr	r0, .L33+48
 563 00bc FFF7FEFF 		bl	CYCONFIGCPY
 564              	.LVL45:
 486:Generated_Source\PSoC5/cyfitter_cfg.c **** 	CYCONFIGCPY((void CYFAR *)(CYREG_PRT15_DM0), (const void CYFAR *)(BS_IOPINS0_8_VAL), 8u);
 565              		.loc 1 486 0
 566 00c0 0822     		movs	r2, #8
 567 00c2 2249     		ldr	r1, .L33+52
 568 00c4 2248     		ldr	r0, .L33+56
 569 00c6 FFF7FEFF 		bl	CYCONFIGCPY
 570              	.LVL46:
 487:Generated_Source\PSoC5/cyfitter_cfg.c **** 	CYCONFIGCPY((void CYFAR *)(CYREG_PRT1_DM0), (const void CYFAR *)(BS_IOPINS0_1_VAL), 8u);
 571              		.loc 1 487 0
 572 00ca 0822     		movs	r2, #8
 573 00cc 2149     		ldr	r1, .L33+60
 574 00ce 2248     		ldr	r0, .L33+64
 575 00d0 FFF7FEFF 		bl	CYCONFIGCPY
 576              	.LVL47:
 488:Generated_Source\PSoC5/cyfitter_cfg.c **** 	CYCONFIGCPY((void CYFAR *)(CYREG_PRT2_DM0), (const void CYFAR *)(BS_IOPINS0_2_VAL), 8u);
 577              		.loc 1 488 0
 578 00d4 0822     		movs	r2, #8
 579 00d6 2149     		ldr	r1, .L33+68
 580 00d8 2148     		ldr	r0, .L33+72
 581 00da FFF7FEFF 		bl	CYCONFIGCPY
 582              	.LVL48:
 489:Generated_Source\PSoC5/cyfitter_cfg.c **** 	CYCONFIGCPY((void CYFAR *)(CYREG_PRT3_DR), (const void CYFAR *)(BS_IOPINS0_3_VAL), 10u);
 583              		.loc 1 489 0
 584 00de 0A22     		movs	r2, #10
 585 00e0 2049     		ldr	r1, .L33+76
 586 00e2 2148     		ldr	r0, .L33+80
 587 00e4 FFF7FEFF 		bl	CYCONFIGCPY
 588              	.LVL49:
 490:Generated_Source\PSoC5/cyfitter_cfg.c **** 	/* Switch Boost to the precision bandgap reference from its internal reference */
 491:Generated_Source\PSoC5/cyfitter_cfg.c **** 	CY_SET_REG8((void CYXDATA *)CYREG_BOOST_CR2, (CY_GET_REG8((void CYXDATA *)CYREG_BOOST_CR2) | 0x08u
 589              		.loc 1 491 0
 590 00e8 204A     		ldr	r2, .L33+84
 591 00ea 1378     		ldrb	r3, [r2]	@ zero_extendqisi2
 592 00ec 43F00803 		orr	r3, r3, #8
 593 00f0 1370     		strb	r3, [r2]
 492:Generated_Source\PSoC5/cyfitter_cfg.c **** 
 493:Generated_Source\PSoC5/cyfitter_cfg.c **** 	/* Set Flash Cycles based on max possible frequency in case a glitch occurs during ClockSetup(). *
 494:Generated_Source\PSoC5/cyfitter_cfg.c **** 	CY_SET_XTND_REG8((void CYFAR *)(CYREG_CACHE_CC_CTL), (((CYDEV_INSTRUCT_CACHE_ENABLED) != 0) ? 0x61
 594              		.loc 1 494 0
 595 00f2 1F4D     		ldr	r5, .L33+88
 596 00f4 6123     		movs	r3, #97
ARM GAS  C:\Users\pasan savindu\AppData\Local\Temp\ccsLYcXY.s 			page 21


 597 00f6 2B70     		strb	r3, [r5]
 495:Generated_Source\PSoC5/cyfitter_cfg.c **** 	/* Setup clocks based on selections from Clock DWR */
 496:Generated_Source\PSoC5/cyfitter_cfg.c **** 	ClockSetup();
 598              		.loc 1 496 0
 599 00f8 FFF7FEFF 		bl	ClockSetup
 600              	.LVL50:
 497:Generated_Source\PSoC5/cyfitter_cfg.c **** 	/* Set Flash Cycles based on newly configured 24.00MHz Bus Clock. */
 498:Generated_Source\PSoC5/cyfitter_cfg.c **** 	CY_SET_XTND_REG8((void CYFAR *)(CYREG_CACHE_CC_CTL), (((CYDEV_INSTRUCT_CACHE_ENABLED) != 0) ? 0x81
 601              		.loc 1 498 0
 602 00fc 8123     		movs	r3, #129
 603 00fe 2B70     		strb	r3, [r5]
 499:Generated_Source\PSoC5/cyfitter_cfg.c **** 	CY_SET_XTND_REG8((void CYFAR *)(CYREG_PANTHER_WAITPIPE), 0x01u);
 604              		.loc 1 499 0
 605 0100 0122     		movs	r2, #1
 606 0102 1C4B     		ldr	r3, .L33+92
 607 0104 1A70     		strb	r2, [r3]
 500:Generated_Source\PSoC5/cyfitter_cfg.c **** 
 501:Generated_Source\PSoC5/cyfitter_cfg.c **** 	/* Perform basic analog initialization to defaults */
 502:Generated_Source\PSoC5/cyfitter_cfg.c **** 	AnalogSetDefault();
 608              		.loc 1 502 0
 609 0106 FFF7FEFF 		bl	AnalogSetDefault
 610              	.LVL51:
 503:Generated_Source\PSoC5/cyfitter_cfg.c **** 
 504:Generated_Source\PSoC5/cyfitter_cfg.c **** 	/* Configure alternate active mode */
 505:Generated_Source\PSoC5/cyfitter_cfg.c **** 	CYCONFIGCPY((void CYFAR *)CYDEV_PM_STBY_BASE, (const void CYFAR *)CYDEV_PM_ACT_BASE, 14u);
 611              		.loc 1 505 0
 612 010a 0E22     		movs	r2, #14
 613 010c 2146     		mov	r1, r4
 614 010e 1A48     		ldr	r0, .L33+96
 615 0110 FFF7FEFF 		bl	CYCONFIGCPY
 616              	.LVL52:
 617 0114 38BD     		pop	{r3, r4, r5, pc}
 618              	.L34:
 619 0116 00BF     		.align	2
 620              	.L33:
 621 0118 E8460040 		.word	1073759976
 622 011c 00000000 		.word	.LANCHOR0
 623 0120 AC000048 		.word	1207959724
 624 0124 04040444 		.word	1141113860
 625 0128 D8020140 		.word	1073808088
 626 012c 04040484 		.word	-2080111612
 627 0130 580A0140 		.word	1073810008
 628 0134 D8160140 		.word	1073813208
 629 0138 A0430040 		.word	1073759136
 630 013c 10140048 		.word	1207964688
 631 0140 02510040 		.word	1073762562
 632 0144 18140048 		.word	1207964696
 633 0148 C0510040 		.word	1073762752
 634 014c 24140048 		.word	1207964708
 635 0150 F2510040 		.word	1073762802
 636 0154 2C140048 		.word	1207964716
 637 0158 12510040 		.word	1073762578
 638 015c 34140048 		.word	1207964724
 639 0160 22510040 		.word	1073762594
 640 0164 3C140048 		.word	1207964732
 641 0168 30510040 		.word	1073762608
 642 016c 22430040 		.word	1073759010
ARM GAS  C:\Users\pasan savindu\AppData\Local\Temp\ccsLYcXY.s 			page 22


 643 0170 00480040 		.word	1073760256
 644 0174 04000840 		.word	1074266116
 645 0178 B0430040 		.word	1073759152
 646              		.cfi_endproc
 647              	.LFE8:
 648              		.size	cyfitter_cfg, .-cyfitter_cfg
 649              		.section	.rodata
 650              		.align	2
 651              		.set	.LANCHOR0,. + 0
 652              		.type	cfg_memset_list.5018, %object
 653              		.size	cfg_memset_list.5018, 78
 654              	cfg_memset_list.5018:
 655 0000 C8490040 		.word	1073760712
 656 0004 1900     		.short	25
 657 0006 004F0040 		.4byte	1073762048
 658 000a 0C00     		.short	12
 659 000c 40510040 		.word	1073762624
 660 0010 3000     		.short	48
 661 0012 00000140 		.4byte	1073807360
 662 0016 8004     		.short	1152
 663 0018 00050140 		.word	1073808640
 664 001c 8001     		.short	384
 665 001e 00070140 		.4byte	1073809152
 666 0022 8005     		.short	1408
 667 0024 000D0140 		.word	1073810688
 668 0028 0001     		.short	256
 669 002a 800E0140 		.4byte	1073811072
 670 002e 8001     		.short	384
 671 0030 00140140 		.word	1073812480
 672 0034 8002     		.short	640
 673 0036 00170140 		.4byte	1073813248
 674 003a 0005     		.short	1280
 675 003c 00400140 		.word	1073823744
 676 0040 000A     		.short	2560
 677 0042 004C0140 		.4byte	1073826816
 678 0046 0002     		.short	512
 679 0048 00500140 		.word	1073827840
 680 004c 2000     		.short	32
 681 004e 0000     		.space	2
 682              		.type	cfg_memcpy_list.5019, %object
 683              		.size	cfg_memcpy_list.5019, 50
 684              	cfg_memcpy_list.5019:
 685 0050 80040140 		.word	1073808512
 686 0054 90110048 		.word	1207964048
 687 0058 8000     		.short	128
 688 005a 80060140 		.4byte	1073809024
 689 005e 10120048 		.4byte	1207964176
 690 0062 8000     		.short	128
 691 0064 800C0140 		.word	1073810560
 692 0068 90120048 		.word	1207964304
 693 006c 8000     		.short	128
 694 006e 000E0140 		.4byte	1073810944
 695 0072 10130048 		.4byte	1207964432
 696 0076 8000     		.short	128
 697 0078 80160140 		.word	1073813120
 698 007c 90130048 		.word	1207964560
 699 0080 8000     		.short	128
ARM GAS  C:\Users\pasan savindu\AppData\Local\Temp\ccsLYcXY.s 			page 23


 700              		.text
 701              	.Letext0:
 702              		.file 2 "c:\\program files (x86)\\cypress\\psoc creator\\4.2\\psoc creator\\import\\gnu\\arm\\5.4.
 703              		.file 3 "Generated_Source\\PSoC5\\cytypes.h"
 704              		.file 4 "Generated_Source\\PSoC5\\CyLib.h"