ARM GAS  C:\Users\pasan savindu\AppData\Local\Temp\ccY2T3Z5.s 			page 1


   1              		.syntax unified
   2              		.cpu cortex-m3
   3              		.fpu softvfp
   4              		.eabi_attribute 20, 1
   5              		.eabi_attribute 21, 1
   6              		.eabi_attribute 23, 3
   7              		.eabi_attribute 24, 1
   8              		.eabi_attribute 25, 1
   9              		.eabi_attribute 26, 1
  10              		.eabi_attribute 30, 1
  11              		.eabi_attribute 34, 1
  12              		.eabi_attribute 18, 4
  13              		.thumb
  14              		.syntax unified
  15              		.file	"main.c"
  16              		.text
  17              	.Ltext0:
  18              		.cfi_sections	.debug_frame
  19              		.global	__aeabi_i2f
  20              		.global	__aeabi_fcmplt
  21              		.global	__aeabi_fcmpgt
  22              		.section	.text.S1_handler,"ax",%progbits
  23              		.align	2
  24              		.global	S1_handler
  25              		.thumb
  26              		.thumb_func
  27              		.type	S1_handler, %function
  28              	S1_handler:
  29              	.LFB64:
  30              		.file 1 "main.c"
   1:main.c        **** /* ========================================
   2:main.c        ****  *
   3:main.c        ****  * Copyright YOUR COMPANY, THE YEAR
   4:main.c        ****  * All Rights Reserved
   5:main.c        ****  * UNPUBLISHED, LICENSED SOFTWARE.
   6:main.c        ****  *
   7:main.c        ****  * CONFIDENTIAL AND PROPRIETARY INFORMATION
   8:main.c        ****  * WHICH IS THE PROPERTY OF your company.
   9:main.c        ****  *
  10:main.c        ****  * ========================================
  11:main.c        **** */
  12:main.c        **** #include "project.h"
  13:main.c        **** #include "stdio.h"
  14:main.c        **** #include "math.h"
  15:main.c        **** #define DeviceID 0x0D
  16:main.c        **** #define SPEED 80
  17:main.c        **** #define SYNC 10
  18:main.c        **** #define L_DEGREE 13250
  19:main.c        **** #define R_DEGREE 16250
  20:main.c        **** #define PUCK_END_ZONE 96000
  21:main.c        **** #define GAP 40000
  22:main.c        **** #define CAPTURE_ZONE 35
  23:main.c        **** #define WALL_ALLIGNMENT 25     //**CONFIGURE
  24:main.c        **** #define OPPONENT 15
  25:main.c        **** //Define Global Variables.
  26:main.c        **** int8 state=0;
  27:main.c        **** int Base;
ARM GAS  C:\Users\pasan savindu\AppData\Local\Temp\ccY2T3Z5.s 			page 2


  28:main.c        **** int countL;int countR;
  29:main.c        **** int8 speedL;int speedR;
  30:main.c        **** int8 obstacle1 = 0;int8 obstacle2 = 0;
  31:main.c        **** int8 obstacle3 = 0;int8 obstacle4 = 0;
  32:main.c        **** int S1_distance=OPPONENT;int S2_distance=OPPONENT;
  33:main.c        **** int S3_distance=OPPONENT;int S4_distance=OPPONENT;
  34:main.c        **** int8 puckdetected;
  35:main.c        **** uint16_t iFreq = 0;
  36:main.c        **** int dataReady = 0;
  37:main.c        **** char string1[20];
  38:main.c        **** int position =0;
  39:main.c        **** 
  40:main.c        **** 
  41:main.c        **** //Define Function Declarations.
  42:main.c        **** void encode_sync(char Move);
  43:main.c        **** void move_straight(char direction,int distance);
  44:main.c        **** void motorcontrl(char opt);
  45:main.c        **** void move_straight(char direction,int distance);
  46:main.c        **** void turn(char direction,int degree);
  47:main.c        **** void wall_allignment();
  48:main.c        **** void start_measure();
  49:main.c        **** int color_sense();
  50:main.c        **** int get_frequency(int color_sense);
  51:main.c        **** void select_color(int color_to_sense);
  52:main.c        **** void compass();
  53:main.c        **** void side_allignment(char side);
  54:main.c        **** 
  55:main.c        **** void baseRoute(int Base);
  56:main.c        **** void searchPuck();
  57:main.c        **** void grabPuck();
  58:main.c        **** void back2Base(int Base);
  59:main.c        **** void sortPuck();
  60:main.c        **** void back2Zone(int Base,int counter);
  61:main.c        **** 
  62:main.c        **** //Interrupts for Obstacle Aviodance
  63:main.c        **** CY_ISR(S1_handler) {//Front LEFT(S1) Ultrasonic Sensor 
  31              		.loc 1 63 0
  32              		.cfi_startproc
  33              		@ args = 0, pretend = 0, frame = 0
  34              		@ frame_needed = 0, uses_anonymous_args = 0
  35 0000 38B5     		push	{r3, r4, r5, lr}
  36              		.cfi_def_cfa_offset 16
  37              		.cfi_offset 3, -16
  38              		.cfi_offset 4, -12
  39              		.cfi_offset 5, -8
  40              		.cfi_offset 14, -4
  64:main.c        **** 	float range1;
  65:main.c        **** 	S1_Timer_ReadStatusRegister();
  41              		.loc 1 65 0
  42 0002 FFF7FEFF 		bl	S1_Timer_ReadStatusRegister
  43              	.LVL0:
  66:main.c        **** 	range1 = (65535 - S1_Timer_ReadCounter()) / 58;
  44              		.loc 1 66 0
  45 0006 FFF7FEFF 		bl	S1_Timer_ReadCounter
  46              	.LVL1:
  47 000a C0F57F43 		rsb	r3, r0, #65280
  48 000e FF33     		adds	r3, r3, #255
ARM GAS  C:\Users\pasan savindu\AppData\Local\Temp\ccY2T3Z5.s 			page 3


  49 0010 1048     		ldr	r0, .L10
  50 0012 80FB0320 		smull	r2, r0, r0, r3
  51 0016 1844     		add	r0, r0, r3
  52 0018 DB17     		asrs	r3, r3, #31
  53 001a C3EB6010 		rsb	r0, r3, r0, asr #5
  54 001e FFF7FEFF 		bl	__aeabi_i2f
  55              	.LVL2:
  56 0022 0446     		mov	r4, r0
  57              	.LVL3:
  67:main.c        **** 	if (range1 <S1_distance) {
  58              		.loc 1 67 0
  59 0024 0C4B     		ldr	r3, .L10+4
  60 0026 1868     		ldr	r0, [r3]
  61              	.LVL4:
  62 0028 FFF7FEFF 		bl	__aeabi_i2f
  63              	.LVL5:
  64 002c 0546     		mov	r5, r0
  65 002e 0146     		mov	r1, r0
  66 0030 2046     		mov	r0, r4
  67 0032 FFF7FEFF 		bl	__aeabi_fcmplt
  68              	.LVL6:
  69 0036 18B1     		cbz	r0, .L8
  68:main.c        **** 		obstacle1 = 1;
  70              		.loc 1 68 0
  71 0038 0122     		movs	r2, #1
  72 003a 084B     		ldr	r3, .L10+8
  73 003c 1A70     		strb	r2, [r3]
  74 003e 38BD     		pop	{r3, r4, r5, pc}
  75              	.LVL7:
  76              	.L8:
  69:main.c        **** 	}
  70:main.c        **** 	else if (range1 > S1_distance) {
  77              		.loc 1 70 0
  78 0040 2946     		mov	r1, r5
  79 0042 2046     		mov	r0, r4
  80 0044 FFF7FEFF 		bl	__aeabi_fcmpgt
  81              	.LVL8:
  82 0048 10B1     		cbz	r0, .L1
  71:main.c        **** 		obstacle1 = 0;
  83              		.loc 1 71 0
  84 004a 0022     		movs	r2, #0
  85 004c 034B     		ldr	r3, .L10+8
  86 004e 1A70     		strb	r2, [r3]
  87              	.L1:
  88 0050 38BD     		pop	{r3, r4, r5, pc}
  89              	.LVL9:
  90              	.L11:
  91 0052 00BF     		.align	2
  92              	.L10:
  93 0054 09CB3D8D 		.word	-1925330167
  94 0058 00000000 		.word	.LANCHOR0
  95 005c 00000000 		.word	.LANCHOR1
  96              		.cfi_endproc
  97              	.LFE64:
  98              		.size	S1_handler, .-S1_handler
  99              		.section	.text.S2_handler,"ax",%progbits
 100              		.align	2
ARM GAS  C:\Users\pasan savindu\AppData\Local\Temp\ccY2T3Z5.s 			page 4


 101              		.global	S2_handler
 102              		.thumb
 103              		.thumb_func
 104              		.type	S2_handler, %function
 105              	S2_handler:
 106              	.LFB65:
  72:main.c        **** 	}
  73:main.c        **** }
  74:main.c        **** CY_ISR(S2_handler) {//Front RIGHT (S2) Ultrasonic Sensor 
 107              		.loc 1 74 0
 108              		.cfi_startproc
 109              		@ args = 0, pretend = 0, frame = 0
 110              		@ frame_needed = 0, uses_anonymous_args = 0
 111 0000 38B5     		push	{r3, r4, r5, lr}
 112              		.cfi_def_cfa_offset 16
 113              		.cfi_offset 3, -16
 114              		.cfi_offset 4, -12
 115              		.cfi_offset 5, -8
 116              		.cfi_offset 14, -4
  75:main.c        **** 	float range2;
  76:main.c        **** 	S2_Timer_ReadStatusRegister();
 117              		.loc 1 76 0
 118 0002 FFF7FEFF 		bl	S2_Timer_ReadStatusRegister
 119              	.LVL10:
  77:main.c        **** 	range2 = (65535 - S2_Timer_ReadCounter()) / 58;
 120              		.loc 1 77 0
 121 0006 FFF7FEFF 		bl	S2_Timer_ReadCounter
 122              	.LVL11:
 123 000a C0F57F43 		rsb	r3, r0, #65280
 124 000e FF33     		adds	r3, r3, #255
 125 0010 1048     		ldr	r0, .L21
 126 0012 80FB0320 		smull	r2, r0, r0, r3
 127 0016 1844     		add	r0, r0, r3
 128 0018 DB17     		asrs	r3, r3, #31
 129 001a C3EB6010 		rsb	r0, r3, r0, asr #5
 130 001e FFF7FEFF 		bl	__aeabi_i2f
 131              	.LVL12:
 132 0022 0446     		mov	r4, r0
 133              	.LVL13:
  78:main.c        **** 	if (range2 < S2_distance) {
 134              		.loc 1 78 0
 135 0024 0C4B     		ldr	r3, .L21+4
 136 0026 5868     		ldr	r0, [r3, #4]
 137              	.LVL14:
 138 0028 FFF7FEFF 		bl	__aeabi_i2f
 139              	.LVL15:
 140 002c 0546     		mov	r5, r0
 141 002e 0146     		mov	r1, r0
 142 0030 2046     		mov	r0, r4
 143 0032 FFF7FEFF 		bl	__aeabi_fcmplt
 144              	.LVL16:
 145 0036 18B1     		cbz	r0, .L19
  79:main.c        **** 		obstacle2 = 1;
 146              		.loc 1 79 0
 147 0038 0122     		movs	r2, #1
 148 003a 084B     		ldr	r3, .L21+8
 149 003c 5A70     		strb	r2, [r3, #1]
ARM GAS  C:\Users\pasan savindu\AppData\Local\Temp\ccY2T3Z5.s 			page 5


 150 003e 38BD     		pop	{r3, r4, r5, pc}
 151              	.LVL17:
 152              	.L19:
  80:main.c        **** 	}
  81:main.c        **** 	else if (range2 > S2_distance) {
 153              		.loc 1 81 0
 154 0040 2946     		mov	r1, r5
 155 0042 2046     		mov	r0, r4
 156 0044 FFF7FEFF 		bl	__aeabi_fcmpgt
 157              	.LVL18:
 158 0048 10B1     		cbz	r0, .L12
  82:main.c        **** 		obstacle2 = 0;
 159              		.loc 1 82 0
 160 004a 0022     		movs	r2, #0
 161 004c 034B     		ldr	r3, .L21+8
 162 004e 5A70     		strb	r2, [r3, #1]
 163              	.L12:
 164 0050 38BD     		pop	{r3, r4, r5, pc}
 165              	.LVL19:
 166              	.L22:
 167 0052 00BF     		.align	2
 168              	.L21:
 169 0054 09CB3D8D 		.word	-1925330167
 170 0058 00000000 		.word	.LANCHOR0
 171 005c 00000000 		.word	.LANCHOR1
 172              		.cfi_endproc
 173              	.LFE65:
 174              		.size	S2_handler, .-S2_handler
 175              		.section	.text.S3_handler,"ax",%progbits
 176              		.align	2
 177              		.global	S3_handler
 178              		.thumb
 179              		.thumb_func
 180              		.type	S3_handler, %function
 181              	S3_handler:
 182              	.LFB66:
  83:main.c        **** 	}
  84:main.c        **** }
  85:main.c        **** CY_ISR(S3_handler) {//Side Right (S3) Ultrasonic Sensor
 183              		.loc 1 85 0
 184              		.cfi_startproc
 185              		@ args = 0, pretend = 0, frame = 0
 186              		@ frame_needed = 0, uses_anonymous_args = 0
 187 0000 38B5     		push	{r3, r4, r5, lr}
 188              		.cfi_def_cfa_offset 16
 189              		.cfi_offset 3, -16
 190              		.cfi_offset 4, -12
 191              		.cfi_offset 5, -8
 192              		.cfi_offset 14, -4
  86:main.c        **** 	float range3;
  87:main.c        **** 	S3_Timer_ReadStatusRegister();
 193              		.loc 1 87 0
 194 0002 FFF7FEFF 		bl	S3_Timer_ReadStatusRegister
 195              	.LVL20:
  88:main.c        **** 	range3 = (65535 - S3_Timer_ReadCounter()) / 58;
 196              		.loc 1 88 0
 197 0006 FFF7FEFF 		bl	S3_Timer_ReadCounter
ARM GAS  C:\Users\pasan savindu\AppData\Local\Temp\ccY2T3Z5.s 			page 6


 198              	.LVL21:
 199 000a C0F57F43 		rsb	r3, r0, #65280
 200 000e FF33     		adds	r3, r3, #255
 201 0010 1048     		ldr	r0, .L32
 202 0012 80FB0320 		smull	r2, r0, r0, r3
 203 0016 1844     		add	r0, r0, r3
 204 0018 DB17     		asrs	r3, r3, #31
 205 001a C3EB6010 		rsb	r0, r3, r0, asr #5
 206 001e FFF7FEFF 		bl	__aeabi_i2f
 207              	.LVL22:
 208 0022 0446     		mov	r4, r0
 209              	.LVL23:
  89:main.c        **** 	if (range3 < S3_distance) {
 210              		.loc 1 89 0
 211 0024 0C4B     		ldr	r3, .L32+4
 212 0026 9868     		ldr	r0, [r3, #8]
 213              	.LVL24:
 214 0028 FFF7FEFF 		bl	__aeabi_i2f
 215              	.LVL25:
 216 002c 0546     		mov	r5, r0
 217 002e 0146     		mov	r1, r0
 218 0030 2046     		mov	r0, r4
 219 0032 FFF7FEFF 		bl	__aeabi_fcmplt
 220              	.LVL26:
 221 0036 18B1     		cbz	r0, .L30
  90:main.c        **** 		obstacle3 = 1;
 222              		.loc 1 90 0
 223 0038 0122     		movs	r2, #1
 224 003a 084B     		ldr	r3, .L32+8
 225 003c 9A70     		strb	r2, [r3, #2]
 226 003e 38BD     		pop	{r3, r4, r5, pc}
 227              	.LVL27:
 228              	.L30:
  91:main.c        **** 		
  92:main.c        **** 	}
  93:main.c        **** 	else if (range3 > S3_distance) {
 229              		.loc 1 93 0
 230 0040 2946     		mov	r1, r5
 231 0042 2046     		mov	r0, r4
 232 0044 FFF7FEFF 		bl	__aeabi_fcmpgt
 233              	.LVL28:
 234 0048 10B1     		cbz	r0, .L23
  94:main.c        **** 		obstacle3 = 0;
 235              		.loc 1 94 0
 236 004a 0022     		movs	r2, #0
 237 004c 034B     		ldr	r3, .L32+8
 238 004e 9A70     		strb	r2, [r3, #2]
 239              	.L23:
 240 0050 38BD     		pop	{r3, r4, r5, pc}
 241              	.LVL29:
 242              	.L33:
 243 0052 00BF     		.align	2
 244              	.L32:
 245 0054 09CB3D8D 		.word	-1925330167
 246 0058 00000000 		.word	.LANCHOR0
 247 005c 00000000 		.word	.LANCHOR1
 248              		.cfi_endproc
ARM GAS  C:\Users\pasan savindu\AppData\Local\Temp\ccY2T3Z5.s 			page 7


 249              	.LFE66:
 250              		.size	S3_handler, .-S3_handler
 251              		.section	.text.S4_handler,"ax",%progbits
 252              		.align	2
 253              		.global	S4_handler
 254              		.thumb
 255              		.thumb_func
 256              		.type	S4_handler, %function
 257              	S4_handler:
 258              	.LFB67:
  95:main.c        **** 		
  96:main.c        **** 	}
  97:main.c        **** }
  98:main.c        **** CY_ISR(S4_handler) {//Side Left (S4) Ultrasonic Sensor 
 259              		.loc 1 98 0
 260              		.cfi_startproc
 261              		@ args = 0, pretend = 0, frame = 0
 262              		@ frame_needed = 0, uses_anonymous_args = 0
 263 0000 38B5     		push	{r3, r4, r5, lr}
 264              		.cfi_def_cfa_offset 16
 265              		.cfi_offset 3, -16
 266              		.cfi_offset 4, -12
 267              		.cfi_offset 5, -8
 268              		.cfi_offset 14, -4
  99:main.c        **** 	float range4;
 100:main.c        **** 	S4_Timer_ReadStatusRegister();
 269              		.loc 1 100 0
 270 0002 FFF7FEFF 		bl	S4_Timer_ReadStatusRegister
 271              	.LVL30:
 101:main.c        **** 	range4 = (65535 - S4_Timer_ReadCounter()) / 58;
 272              		.loc 1 101 0
 273 0006 FFF7FEFF 		bl	S4_Timer_ReadCounter
 274              	.LVL31:
 275 000a C0F57F43 		rsb	r3, r0, #65280
 276 000e FF33     		adds	r3, r3, #255
 277 0010 1048     		ldr	r0, .L43
 278 0012 80FB0320 		smull	r2, r0, r0, r3
 279 0016 1844     		add	r0, r0, r3
 280 0018 DB17     		asrs	r3, r3, #31
 281 001a C3EB6010 		rsb	r0, r3, r0, asr #5
 282 001e FFF7FEFF 		bl	__aeabi_i2f
 283              	.LVL32:
 284 0022 0446     		mov	r4, r0
 285              	.LVL33:
 102:main.c        **** 	//sprintf(string1,"%d\n",(int)range4);
 103:main.c        **** 	//UART_PutString(string1);
 104:main.c        **** 	if (range4 < S4_distance) 
 286              		.loc 1 104 0
 287 0024 0C4B     		ldr	r3, .L43+4
 288 0026 D868     		ldr	r0, [r3, #12]
 289              	.LVL34:
 290 0028 FFF7FEFF 		bl	__aeabi_i2f
 291              	.LVL35:
 292 002c 0546     		mov	r5, r0
 293 002e 0146     		mov	r1, r0
 294 0030 2046     		mov	r0, r4
 295 0032 FFF7FEFF 		bl	__aeabi_fcmplt
ARM GAS  C:\Users\pasan savindu\AppData\Local\Temp\ccY2T3Z5.s 			page 8


 296              	.LVL36:
 297 0036 18B1     		cbz	r0, .L41
 105:main.c        ****     {
 106:main.c        **** 		obstacle4 = 1;
 298              		.loc 1 106 0
 299 0038 0122     		movs	r2, #1
 300 003a 084B     		ldr	r3, .L43+8
 301 003c DA70     		strb	r2, [r3, #3]
 302 003e 38BD     		pop	{r3, r4, r5, pc}
 303              	.LVL37:
 304              	.L41:
 107:main.c        **** 		//move_straight('B',10000);
 108:main.c        **** 	}
 109:main.c        **** 	else if (range4 >S4_distance) 
 305              		.loc 1 109 0
 306 0040 2946     		mov	r1, r5
 307 0042 2046     		mov	r0, r4
 308 0044 FFF7FEFF 		bl	__aeabi_fcmpgt
 309              	.LVL38:
 310 0048 10B1     		cbz	r0, .L34
 110:main.c        ****     {
 111:main.c        **** 		obstacle4 = 0;
 311              		.loc 1 111 0
 312 004a 0022     		movs	r2, #0
 313 004c 034B     		ldr	r3, .L43+8
 314 004e DA70     		strb	r2, [r3, #3]
 315              	.L34:
 316 0050 38BD     		pop	{r3, r4, r5, pc}
 317              	.LVL39:
 318              	.L44:
 319 0052 00BF     		.align	2
 320              	.L43:
 321 0054 09CB3D8D 		.word	-1925330167
 322 0058 00000000 		.word	.LANCHOR0
 323 005c 00000000 		.word	.LANCHOR1
 324              		.cfi_endproc
 325              	.LFE67:
 326              		.size	S4_handler, .-S4_handler
 327              		.section	.text.interrupt6_handler,"ax",%progbits
 328              		.align	2
 329              		.global	interrupt6_handler
 330              		.thumb
 331              		.thumb_func
 332              		.type	interrupt6_handler, %function
 333              	interrupt6_handler:
 334              	.LFB69:
 112:main.c        **** 		
 113:main.c        **** 	}
 114:main.c        **** }
 115:main.c        **** 
 116:main.c        **** //Interrupts for IR senosr- Puck Detecting
 117:main.c        **** CY_ISR(interrupt5_handler)
 118:main.c        **** { 
 119:main.c        ****     if (IR_Out_Read() ==1){
 120:main.c        ****     puckdetected=0;
 121:main.c        ****     IR_Out_ClearInterrupt();
 122:main.c        ****     }
ARM GAS  C:\Users\pasan savindu\AppData\Local\Temp\ccY2T3Z5.s 			page 9


 123:main.c        ****     else if (IR_Out_Read()==0){
 124:main.c        ****         puckdetected=1;
 125:main.c        ****         IR_Out_ClearInterrupt();
 126:main.c        ****     }
 127:main.c        **** }
 128:main.c        **** //Interrupts for Color Detection
 129:main.c        **** CY_ISR(interrupt6_handler) {
 335              		.loc 1 129 0
 336              		.cfi_startproc
 337              		@ args = 0, pretend = 0, frame = 0
 338              		@ frame_needed = 0, uses_anonymous_args = 0
 339 0000 08B5     		push	{r3, lr}
 340              		.cfi_def_cfa_offset 8
 341              		.cfi_offset 3, -8
 342              		.cfi_offset 14, -4
 130:main.c        **** 	Color_Counter_Stop();
 343              		.loc 1 130 0
 344 0002 FFF7FEFF 		bl	Color_Counter_Stop
 345              	.LVL40:
 131:main.c        **** 	Color_Timer_Stop();
 346              		.loc 1 131 0
 347 0006 FFF7FEFF 		bl	Color_Timer_Stop
 348              	.LVL41:
 132:main.c        **** 	Color_LED_Write(0);
 349              		.loc 1 132 0
 350 000a 0020     		movs	r0, #0
 351 000c FFF7FEFF 		bl	Color_LED_Write
 352              	.LVL42:
 133:main.c        **** 	Color_Timer_ReadStatusRegister();
 353              		.loc 1 133 0
 354 0010 FFF7FEFF 		bl	Color_Timer_ReadStatusRegister
 355              	.LVL43:
 134:main.c        **** 	isr_6_ClearPending();
 356              		.loc 1 134 0
 357 0014 FFF7FEFF 		bl	isr_6_ClearPending
 358              	.LVL44:
 135:main.c        **** 	iFreq = Color_Counter_ReadCounter();
 359              		.loc 1 135 0
 360 0018 FFF7FEFF 		bl	Color_Counter_ReadCounter
 361              	.LVL45:
 362 001c 024B     		ldr	r3, .L47
 363 001e 9880     		strh	r0, [r3, #4]	@ movhi
 136:main.c        **** 	dataReady = 1;
 364              		.loc 1 136 0
 365 0020 0122     		movs	r2, #1
 366 0022 9A60     		str	r2, [r3, #8]
 367 0024 08BD     		pop	{r3, pc}
 368              	.L48:
 369 0026 00BF     		.align	2
 370              	.L47:
 371 0028 00000000 		.word	.LANCHOR1
 372              		.cfi_endproc
 373              	.LFE69:
 374              		.size	interrupt6_handler, .-interrupt6_handler
 375              		.section	.text.interrupt5_handler,"ax",%progbits
 376              		.align	2
 377              		.global	interrupt5_handler
ARM GAS  C:\Users\pasan savindu\AppData\Local\Temp\ccY2T3Z5.s 			page 10


 378              		.thumb
 379              		.thumb_func
 380              		.type	interrupt5_handler, %function
 381              	interrupt5_handler:
 382              	.LFB68:
 118:main.c        ****     if (IR_Out_Read() ==1){
 383              		.loc 1 118 0
 384              		.cfi_startproc
 385              		@ args = 0, pretend = 0, frame = 0
 386              		@ frame_needed = 0, uses_anonymous_args = 0
 387 0000 08B5     		push	{r3, lr}
 388              		.cfi_def_cfa_offset 8
 389              		.cfi_offset 3, -8
 390              		.cfi_offset 14, -4
 119:main.c        ****     puckdetected=0;
 391              		.loc 1 119 0
 392 0002 FFF7FEFF 		bl	IR_Out_Read
 393              	.LVL46:
 394 0006 0128     		cmp	r0, #1
 395 0008 05D1     		bne	.L50
 120:main.c        ****     IR_Out_ClearInterrupt();
 396              		.loc 1 120 0
 397 000a 0022     		movs	r2, #0
 398 000c 064B     		ldr	r3, .L53
 399 000e 1A70     		strb	r2, [r3]
 121:main.c        ****     }
 400              		.loc 1 121 0
 401 0010 FFF7FEFF 		bl	IR_Out_ClearInterrupt
 402              	.LVL47:
 403 0014 08BD     		pop	{r3, pc}
 404              	.L50:
 123:main.c        ****         puckdetected=1;
 405              		.loc 1 123 0
 406 0016 FFF7FEFF 		bl	IR_Out_Read
 407              	.LVL48:
 408 001a 20B9     		cbnz	r0, .L49
 124:main.c        ****         IR_Out_ClearInterrupt();
 409              		.loc 1 124 0
 410 001c 0122     		movs	r2, #1
 411 001e 024B     		ldr	r3, .L53
 412 0020 1A70     		strb	r2, [r3]
 125:main.c        ****     }
 413              		.loc 1 125 0
 414 0022 FFF7FEFF 		bl	IR_Out_ClearInterrupt
 415              	.LVL49:
 416              	.L49:
 417 0026 08BD     		pop	{r3, pc}
 418              	.L54:
 419              		.align	2
 420              	.L53:
 421 0028 00000000 		.word	puckdetected
 422              		.cfi_endproc
 423              	.LFE68:
 424              		.size	interrupt5_handler, .-interrupt5_handler
 425              		.section	.text.encode_sync,"ax",%progbits
 426              		.align	2
 427              		.global	encode_sync
ARM GAS  C:\Users\pasan savindu\AppData\Local\Temp\ccY2T3Z5.s 			page 11


 428              		.thumb
 429              		.thumb_func
 430              		.type	encode_sync, %function
 431              	encode_sync:
 432              	.LFB72:
 137:main.c        **** }
 138:main.c        **** 
 139:main.c        **** //Initializing Code Blocks
 140:main.c        **** void Initialize(void)
 141:main.c        **** {
 142:main.c        **** 	PWM_Motor_Start();
 143:main.c        **** 	QuadDec_L_Start();
 144:main.c        **** 	QuadDec_R_Start();
 145:main.c        **** 	S1_Timer_Start();
 146:main.c        **** 	S2_Timer_Start();
 147:main.c        **** 	S3_Timer_Start();
 148:main.c        **** 	S4_Timer_Start();
 149:main.c        **** 	Flicker_Servo_Start();
 150:main.c        **** 	RobotArm_Servo_Start();
 151:main.c        **** 	start_measure();
 152:main.c        **** 	isr_1_StartEx(S1_handler);
 153:main.c        **** 	isr_2_StartEx(S2_handler);
 154:main.c        **** 	isr_3_StartEx(S3_handler);
 155:main.c        **** 	isr_4_StartEx(S4_handler);
 156:main.c        ****     //isr_5_StartEx(interrupt5_handler);
 157:main.c        **** 	UART_Start();
 158:main.c        ****     I2C_Start();
 159:main.c        ****     RobotArm_Servo_WriteCompare2(500);//Gripper Closes Up
 160:main.c        ****     RobotArm_Servo_WriteCompare1(2200); //tower up
 161:main.c        ****     Flicker_Servo_WriteCompare(900);//flicker in position
 162:main.c        ****     
 163:main.c        **** }
 164:main.c        **** int main(void)
 165:main.c        **** {
 166:main.c        ****    CyGlobalIntEnable; /* Enable global interrupts. */
 167:main.c        ****    Initialize();
 168:main.c        **** 
 169:main.c        ****   
 170:main.c        ****    int counter=0;
 171:main.c        **** 
 172:main.c        ****    if (Base_Selector_Read()==1)//Button not Pressed
 173:main.c        ****         {
 174:main.c        ****          Base =1;   
 175:main.c        ****         }
 176:main.c        ****    else if (Base_Selector_Read() ==0) //Button pressed
 177:main.c        ****         {
 178:main.c        ****          Base =2;  
 179:main.c        ****         }
 180:main.c        ****         
 181:main.c        ****    for(;;)
 182:main.c        ****    {
 183:main.c        ****     switch(state){
 184:main.c        ****         case 0:
 185:main.c        ****         
 186:main.c        ****         baseRoute(Base);
 187:main.c        ****         //state++;
 188:main.c        ****         break;
ARM GAS  C:\Users\pasan savindu\AppData\Local\Temp\ccY2T3Z5.s 			page 12


 189:main.c        ****         case 1:
 190:main.c        ****         searchPuck();
 191:main.c        ****         //state++;
 192:main.c        ****         break;
 193:main.c        ****         case 2:
 194:main.c        ****         grabPuck();
 195:main.c        ****         //state++;
 196:main.c        ****         break;
 197:main.c        ****         case 3:
 198:main.c        ****         back2Base(Base);
 199:main.c        ****         break;
 200:main.c        ****         case 4:
 201:main.c        ****         sortPuck();
 202:main.c        ****         break;
 203:main.c        ****         case 5:
 204:main.c        ****         back2Zone(Base,counter);
 205:main.c        ****         counter++;
 206:main.c        ****         //state =1;
 207:main.c        ****         break;
 208:main.c        ****         default:
 209:main.c        ****         break;
 210:main.c        ****     }
 211:main.c        ****     
 212:main.c        ****    //Triggers for Obstacle Detection  
 213:main.c        **** //     while (S1_Echo_Read() == 0){
 214:main.c        **** //		S1_Trigger_Write(1);
 215:main.c        **** //		CyDelayUs(10);
 216:main.c        **** //		S1_Trigger_Write(0);
 217:main.c        **** //	    }
 218:main.c        **** //	    CyDelay(10);
 219:main.c        **** //	while (S2_Echo_Read() == 0) {
 220:main.c        **** //		S2_Trigger_Write(1);
 221:main.c        **** //		CyDelayUs(10);
 222:main.c        **** //		S2_Trigger_Write(0);
 223:main.c        **** //	     }
 224:main.c        **** //        CyDelay(10);
 225:main.c        **** 	
 226:main.c        **** //////////	CyDelay(10);
 227:main.c        **** //	while (S3_Echo_Read() == 0) {
 228:main.c        **** //		S3_Trigger_Write(1);
 229:main.c        **** //		CyDelayUs(10);
 230:main.c        **** //		S3_Trigger_Write(0);
 231:main.c        **** //	}
 232:main.c        **** //	CyDelay(10);
 233:main.c        **** //	while (S4_Echo_Read() == 0) {
 234:main.c        **** //		S4_Trigger_Write(1);
 235:main.c        **** //		CyDelayUs(10);
 236:main.c        **** //		S4_Trigger_Write(0);
 237:main.c        **** //	}
 238:main.c        **** 	CyDelay(10);
 239:main.c        **** }
 240:main.c        **** }
 241:main.c        **** 
 242:main.c        **** //Syncronize the Speeds
 243:main.c        **** void encode_sync(char Move) {
 433              		.loc 1 243 0
 434              		.cfi_startproc
ARM GAS  C:\Users\pasan savindu\AppData\Local\Temp\ccY2T3Z5.s 			page 13


 435              		@ args = 0, pretend = 0, frame = 0
 436              		@ frame_needed = 0, uses_anonymous_args = 0
 437              	.LVL50:
 438 0000 10B5     		push	{r4, lr}
 439              		.cfi_def_cfa_offset 8
 440              		.cfi_offset 4, -8
 441              		.cfi_offset 14, -4
 442 0002 0446     		mov	r4, r0
 244:main.c        ****     
 245:main.c        ****         countL = QuadDec_L_GetCounter();
 443              		.loc 1 245 0
 444 0004 FFF7FEFF 		bl	QuadDec_L_GetCounter
 445              	.LVL51:
 446 0008 1C4B     		ldr	r3, .L63
 447 000a 1860     		str	r0, [r3]
 246:main.c        ****         countR = QuadDec_R_GetCounter();
 448              		.loc 1 246 0
 449 000c FFF7FEFF 		bl	QuadDec_R_GetCounter
 450              	.LVL52:
 451 0010 1B4B     		ldr	r3, .L63+4
 452 0012 1860     		str	r0, [r3]
 247:main.c        ****    if(Move=='F')
 453              		.loc 1 247 0
 454 0014 462C     		cmp	r4, #70
 455 0016 16D1     		bne	.L56
 248:main.c        ****     {
 249:main.c        **** 	if ((countL - countR >= SYNC) || (countL - countR == 0)) {
 456              		.loc 1 249 0
 457 0018 184B     		ldr	r3, .L63
 458 001a 1B68     		ldr	r3, [r3]
 459 001c 1A1A     		subs	r2, r3, r0
 460 001e 092A     		cmp	r2, #9
 461 0020 01DC     		bgt	.L57
 462              		.loc 1 249 0 is_stmt 0 discriminator 1
 463 0022 9842     		cmp	r0, r3
 464 0024 06D1     		bne	.L58
 465              	.L57:
 250:main.c        **** 		speedL = SPEED-40;
 466              		.loc 1 250 0 is_stmt 1
 467 0026 2822     		movs	r2, #40
 468 0028 164B     		ldr	r3, .L63+8
 469 002a 1A70     		strb	r2, [r3]
 251:main.c        **** 		speedR = SPEED;  
 470              		.loc 1 251 0
 471 002c 5022     		movs	r2, #80
 472 002e 164B     		ldr	r3, .L63+12
 473 0030 1A60     		str	r2, [r3]
 474 0032 08E0     		b	.L56
 475              	.L58:
 252:main.c        **** 	}
 253:main.c        **** 	else if (countR - countL >= SYNC) {
 476              		.loc 1 253 0
 477 0034 C31A     		subs	r3, r0, r3
 478 0036 092B     		cmp	r3, #9
 479 0038 05DD     		ble	.L56
 254:main.c        **** 		speedL = SPEED+10;     //should increase
 480              		.loc 1 254 0
ARM GAS  C:\Users\pasan savindu\AppData\Local\Temp\ccY2T3Z5.s 			page 14


 481 003a 5A22     		movs	r2, #90
 482 003c 114B     		ldr	r3, .L63+8
 483 003e 1A70     		strb	r2, [r3]
 255:main.c        **** 		speedR = SPEED;
 484              		.loc 1 255 0
 485 0040 5022     		movs	r2, #80
 486 0042 114B     		ldr	r3, .L63+12
 487 0044 1A60     		str	r2, [r3]
 488              	.L56:
 256:main.c        **** 	}
 257:main.c        ****     }
 258:main.c        ****    if(Move=='B')
 489              		.loc 1 258 0
 490 0046 422C     		cmp	r4, #66
 491 0048 16D1     		bne	.L55
 259:main.c        ****     {
 260:main.c        ****       if ((countL - countR >= SYNC) || (countL - countR == 0)) {
 492              		.loc 1 260 0
 493 004a 0C4B     		ldr	r3, .L63
 494 004c 1B68     		ldr	r3, [r3]
 495 004e 1A1A     		subs	r2, r3, r0
 496 0050 092A     		cmp	r2, #9
 497 0052 01DC     		bgt	.L60
 498              		.loc 1 260 0 is_stmt 0 discriminator 1
 499 0054 9842     		cmp	r0, r3
 500 0056 06D1     		bne	.L61
 501              	.L60:
 261:main.c        **** 		speedL = SPEED+10;
 502              		.loc 1 261 0 is_stmt 1
 503 0058 5A22     		movs	r2, #90
 504 005a 0A4B     		ldr	r3, .L63+8
 505 005c 1A70     		strb	r2, [r3]
 262:main.c        **** 		speedR = SPEED;  
 506              		.loc 1 262 0
 507 005e 5022     		movs	r2, #80
 508 0060 094B     		ldr	r3, .L63+12
 509 0062 1A60     		str	r2, [r3]
 510 0064 10BD     		pop	{r4, pc}
 511              	.L61:
 263:main.c        **** 	}
 264:main.c        **** 	else if (countR - countL >= SYNC) {
 512              		.loc 1 264 0
 513 0066 C01A     		subs	r0, r0, r3
 514 0068 0928     		cmp	r0, #9
 515 006a 05DD     		ble	.L55
 265:main.c        **** 		speedL = SPEED-40;     //should increase
 516              		.loc 1 265 0
 517 006c 2822     		movs	r2, #40
 518 006e 054B     		ldr	r3, .L63+8
 519 0070 1A70     		strb	r2, [r3]
 266:main.c        **** 		speedR = SPEED;
 520              		.loc 1 266 0
 521 0072 5022     		movs	r2, #80
 522 0074 044B     		ldr	r3, .L63+12
 523 0076 1A60     		str	r2, [r3]
 524              	.L55:
 525 0078 10BD     		pop	{r4, pc}
ARM GAS  C:\Users\pasan savindu\AppData\Local\Temp\ccY2T3Z5.s 			page 15


 526              	.L64:
 527 007a 00BF     		.align	2
 528              	.L63:
 529 007c 00000000 		.word	countL
 530 0080 00000000 		.word	countR
 531 0084 00000000 		.word	speedL
 532 0088 00000000 		.word	speedR
 533              		.cfi_endproc
 534              	.LFE72:
 535              		.size	encode_sync, .-encode_sync
 536              		.section	.text.motorcontrl,"ax",%progbits
 537              		.align	2
 538              		.global	motorcontrl
 539              		.thumb
 540              		.thumb_func
 541              		.type	motorcontrl, %function
 542              	motorcontrl:
 543              	.LFB73:
 267:main.c        **** 	}
 268:main.c        ****     }
 269:main.c        **** }
 270:main.c        **** 
 271:main.c        **** // Control Inputs For Motors
 272:main.c        **** void motorcontrl(char opt) {
 544              		.loc 1 272 0
 545              		.cfi_startproc
 546              		@ args = 0, pretend = 0, frame = 0
 547              		@ frame_needed = 0, uses_anonymous_args = 0
 548              	.LVL53:
 549 0000 08B5     		push	{r3, lr}
 550              		.cfi_def_cfa_offset 8
 551              		.cfi_offset 3, -8
 552              		.cfi_offset 14, -4
 273:main.c        **** 	switch (opt) //opt==>option
 553              		.loc 1 273 0
 554 0002 4238     		subs	r0, r0, #66
 555              	.LVL54:
 556 0004 2428     		cmp	r0, #36
 557 0006 00F20581 		bhi	.L65
 558 000a DFE810F0 		tbh	[pc, r0, lsl #1]
 559              	.L68:
 560 000e 5500     		.2byte	(.L67-.L68)/2
 561 0010 CB00     		.2byte	(.L69-.L68)/2
 562 0012 0301     		.2byte	(.L65-.L68)/2
 563 0014 0301     		.2byte	(.L65-.L68)/2
 564 0016 2500     		.2byte	(.L70-.L68)/2
 565 0018 0301     		.2byte	(.L65-.L68)/2
 566 001a 0301     		.2byte	(.L65-.L68)/2
 567 001c 0301     		.2byte	(.L65-.L68)/2
 568 001e 0301     		.2byte	(.L65-.L68)/2
 569 0020 0301     		.2byte	(.L65-.L68)/2
 570 0022 A500     		.2byte	(.L71-.L68)/2
 571 0024 0301     		.2byte	(.L65-.L68)/2
 572 0026 0301     		.2byte	(.L65-.L68)/2
 573 0028 0301     		.2byte	(.L65-.L68)/2
 574 002a 0301     		.2byte	(.L65-.L68)/2
 575 002c 0301     		.2byte	(.L65-.L68)/2
ARM GAS  C:\Users\pasan savindu\AppData\Local\Temp\ccY2T3Z5.s 			page 16


 576 002e B800     		.2byte	(.L72-.L68)/2
 577 0030 8C00     		.2byte	(.L73-.L68)/2
 578 0032 0301     		.2byte	(.L65-.L68)/2
 579 0034 0301     		.2byte	(.L65-.L68)/2
 580 0036 0301     		.2byte	(.L65-.L68)/2
 581 0038 0301     		.2byte	(.L65-.L68)/2
 582 003a DE00     		.2byte	(.L74-.L68)/2
 583 003c F100     		.2byte	(.L75-.L68)/2
 584 003e 0301     		.2byte	(.L65-.L68)/2
 585 0040 0301     		.2byte	(.L65-.L68)/2
 586 0042 0301     		.2byte	(.L65-.L68)/2
 587 0044 0301     		.2byte	(.L65-.L68)/2
 588 0046 0301     		.2byte	(.L65-.L68)/2
 589 0048 0301     		.2byte	(.L65-.L68)/2
 590 004a 0301     		.2byte	(.L65-.L68)/2
 591 004c 0301     		.2byte	(.L65-.L68)/2
 592 004e 6F00     		.2byte	(.L76-.L68)/2
 593 0050 0301     		.2byte	(.L65-.L68)/2
 594 0052 0301     		.2byte	(.L65-.L68)/2
 595 0054 0301     		.2byte	(.L65-.L68)/2
 596 0056 3F00     		.2byte	(.L77-.L68)/2
 597              		.p2align 1
 598              	.L70:
 274:main.c        **** 	{
 275:main.c        **** 	case 'F': //Forward - high speed motion
 276:main.c        **** 		encode_sync('F');
 599              		.loc 1 276 0
 600 0058 4620     		movs	r0, #70
 601 005a FFF7FEFF 		bl	encode_sync
 602              	.LVL55:
 277:main.c        **** 		Forward_L_Write(1);
 603              		.loc 1 277 0
 604 005e 0120     		movs	r0, #1
 605 0060 FFF7FEFF 		bl	Forward_L_Write
 606              	.LVL56:
 278:main.c        **** 		Backward_L_Write(0);
 607              		.loc 1 278 0
 608 0064 0020     		movs	r0, #0
 609 0066 FFF7FEFF 		bl	Backward_L_Write
 610              	.LVL57:
 279:main.c        **** 		Forwad_R_Write(1);
 611              		.loc 1 279 0
 612 006a 0120     		movs	r0, #1
 613 006c FFF7FEFF 		bl	Forwad_R_Write
 614              	.LVL58:
 280:main.c        **** 		Backward_R_Write(0);
 615              		.loc 1 280 0
 616 0070 0020     		movs	r0, #0
 617 0072 FFF7FEFF 		bl	Backward_R_Write
 618              	.LVL59:
 281:main.c        **** 		PWM_Motor_WriteCompare1(speedL);
 619              		.loc 1 281 0
 620 0076 684B     		ldr	r3, .L79
 621 0078 93F90000 		ldrsb	r0, [r3]
 622 007c 80B2     		uxth	r0, r0
 623 007e FFF7FEFF 		bl	PWM_Motor_WriteCompare1
 624              	.LVL60:
ARM GAS  C:\Users\pasan savindu\AppData\Local\Temp\ccY2T3Z5.s 			page 17


 282:main.c        **** 		PWM_Motor_WriteCompare2(speedR);
 625              		.loc 1 282 0
 626 0082 664B     		ldr	r3, .L79+4
 627 0084 1888     		ldrh	r0, [r3]
 628 0086 FFF7FEFF 		bl	PWM_Motor_WriteCompare2
 629              	.LVL61:
 283:main.c        **** 		break;
 630              		.loc 1 283 0
 631 008a 08BD     		pop	{r3, pc}
 632              	.L77:
 284:main.c        ****     case 'f': //Forward - low speed motion
 285:main.c        **** 		encode_sync('F');
 633              		.loc 1 285 0
 634 008c 4620     		movs	r0, #70
 635 008e FFF7FEFF 		bl	encode_sync
 636              	.LVL62:
 286:main.c        **** 		Forward_L_Write(1);
 637              		.loc 1 286 0
 638 0092 0120     		movs	r0, #1
 639 0094 FFF7FEFF 		bl	Forward_L_Write
 640              	.LVL63:
 287:main.c        **** 		Backward_L_Write(0);
 641              		.loc 1 287 0
 642 0098 0020     		movs	r0, #0
 643 009a FFF7FEFF 		bl	Backward_L_Write
 644              	.LVL64:
 288:main.c        **** 		Forwad_R_Write(1);
 645              		.loc 1 288 0
 646 009e 0120     		movs	r0, #1
 647 00a0 FFF7FEFF 		bl	Forwad_R_Write
 648              	.LVL65:
 289:main.c        **** 		Backward_R_Write(0);
 649              		.loc 1 289 0
 650 00a4 0020     		movs	r0, #0
 651 00a6 FFF7FEFF 		bl	Backward_R_Write
 652              	.LVL66:
 290:main.c        **** 		PWM_Motor_WriteCompare1(SPEED);
 653              		.loc 1 290 0
 654 00aa 5020     		movs	r0, #80
 655 00ac FFF7FEFF 		bl	PWM_Motor_WriteCompare1
 656              	.LVL67:
 291:main.c        **** 		PWM_Motor_WriteCompare2(SPEED);
 657              		.loc 1 291 0
 658 00b0 5020     		movs	r0, #80
 659 00b2 FFF7FEFF 		bl	PWM_Motor_WriteCompare2
 660              	.LVL68:
 292:main.c        **** 		break;
 661              		.loc 1 292 0
 662 00b6 08BD     		pop	{r3, pc}
 663              	.L67:
 293:main.c        **** 	case 'B': //Backward - high speed motion
 294:main.c        **** 	    encode_sync('B');
 664              		.loc 1 294 0
 665 00b8 4220     		movs	r0, #66
 666 00ba FFF7FEFF 		bl	encode_sync
 667              	.LVL69:
 295:main.c        **** 		Forward_L_Write(0);
ARM GAS  C:\Users\pasan savindu\AppData\Local\Temp\ccY2T3Z5.s 			page 18


 668              		.loc 1 295 0
 669 00be 0020     		movs	r0, #0
 670 00c0 FFF7FEFF 		bl	Forward_L_Write
 671              	.LVL70:
 296:main.c        **** 		Backward_L_Write(1);
 672              		.loc 1 296 0
 673 00c4 0120     		movs	r0, #1
 674 00c6 FFF7FEFF 		bl	Backward_L_Write
 675              	.LVL71:
 297:main.c        **** 		Forwad_R_Write(0);
 676              		.loc 1 297 0
 677 00ca 0020     		movs	r0, #0
 678 00cc FFF7FEFF 		bl	Forwad_R_Write
 679              	.LVL72:
 298:main.c        **** 		Backward_R_Write(1);
 680              		.loc 1 298 0
 681 00d0 0120     		movs	r0, #1
 682 00d2 FFF7FEFF 		bl	Backward_R_Write
 683              	.LVL73:
 299:main.c        **** 		PWM_Motor_WriteCompare1(speedL);
 684              		.loc 1 299 0
 685 00d6 504B     		ldr	r3, .L79
 686 00d8 93F90000 		ldrsb	r0, [r3]
 687 00dc 80B2     		uxth	r0, r0
 688 00de FFF7FEFF 		bl	PWM_Motor_WriteCompare1
 689              	.LVL74:
 300:main.c        **** 		PWM_Motor_WriteCompare2(speedR);
 690              		.loc 1 300 0
 691 00e2 4E4B     		ldr	r3, .L79+4
 692 00e4 1888     		ldrh	r0, [r3]
 693 00e6 FFF7FEFF 		bl	PWM_Motor_WriteCompare2
 694              	.LVL75:
 301:main.c        **** 		break;
 695              		.loc 1 301 0
 696 00ea 08BD     		pop	{r3, pc}
 697              	.L76:
 302:main.c        ****     case 'b'://Back - low speed motion
 303:main.c        ****         encode_sync('B');
 698              		.loc 1 303 0
 699 00ec 4220     		movs	r0, #66
 700 00ee FFF7FEFF 		bl	encode_sync
 701              	.LVL76:
 304:main.c        ****         Forward_L_Write(0);
 702              		.loc 1 304 0
 703 00f2 0020     		movs	r0, #0
 704 00f4 FFF7FEFF 		bl	Forward_L_Write
 705              	.LVL77:
 305:main.c        **** 		Backward_L_Write(1);
 706              		.loc 1 305 0
 707 00f8 0120     		movs	r0, #1
 708 00fa FFF7FEFF 		bl	Backward_L_Write
 709              	.LVL78:
 306:main.c        **** 		Forwad_R_Write(0);
 710              		.loc 1 306 0
 711 00fe 0020     		movs	r0, #0
 712 0100 FFF7FEFF 		bl	Forwad_R_Write
 713              	.LVL79:
ARM GAS  C:\Users\pasan savindu\AppData\Local\Temp\ccY2T3Z5.s 			page 19


 307:main.c        **** 		Backward_R_Write(1);
 714              		.loc 1 307 0
 715 0104 0120     		movs	r0, #1
 716 0106 FFF7FEFF 		bl	Backward_R_Write
 717              	.LVL80:
 308:main.c        **** 		PWM_Motor_WriteCompare1(speedL-20);
 718              		.loc 1 308 0
 719 010a 434B     		ldr	r3, .L79
 720 010c 93F90000 		ldrsb	r0, [r3]
 721 0110 1438     		subs	r0, r0, #20
 722 0112 80B2     		uxth	r0, r0
 723 0114 FFF7FEFF 		bl	PWM_Motor_WriteCompare1
 724              	.LVL81:
 309:main.c        **** 		PWM_Motor_WriteCompare2(speedR-20);
 725              		.loc 1 309 0
 726 0118 404B     		ldr	r3, .L79+4
 727 011a 1868     		ldr	r0, [r3]
 728 011c 1438     		subs	r0, r0, #20
 729 011e 80B2     		uxth	r0, r0
 730 0120 FFF7FEFF 		bl	PWM_Motor_WriteCompare2
 731              	.LVL82:
 310:main.c        ****         break;
 732              		.loc 1 310 0
 733 0124 08BD     		pop	{r3, pc}
 734              	.L73:
 311:main.c        **** 	case 'S': //Stop
 312:main.c        **** 		Forward_L_Write(0);
 735              		.loc 1 312 0
 736 0126 0020     		movs	r0, #0
 737 0128 FFF7FEFF 		bl	Forward_L_Write
 738              	.LVL83:
 313:main.c        **** 		Backward_L_Write(0);
 739              		.loc 1 313 0
 740 012c 0020     		movs	r0, #0
 741 012e FFF7FEFF 		bl	Backward_L_Write
 742              	.LVL84:
 314:main.c        **** 		Forwad_R_Write(0);
 743              		.loc 1 314 0
 744 0132 0020     		movs	r0, #0
 745 0134 FFF7FEFF 		bl	Forwad_R_Write
 746              	.LVL85:
 315:main.c        **** 		Backward_R_Write(0);
 747              		.loc 1 315 0
 748 0138 0020     		movs	r0, #0
 749 013a FFF7FEFF 		bl	Backward_R_Write
 750              	.LVL86:
 316:main.c        **** 		PWM_Motor_WriteCompare1(0);
 751              		.loc 1 316 0
 752 013e 0020     		movs	r0, #0
 753 0140 FFF7FEFF 		bl	PWM_Motor_WriteCompare1
 754              	.LVL87:
 317:main.c        **** 		PWM_Motor_WriteCompare2(0);
 755              		.loc 1 317 0
 756 0144 0020     		movs	r0, #0
 757 0146 FFF7FEFF 		bl	PWM_Motor_WriteCompare2
 758              	.LVL88:
 318:main.c        **** 		QuadDec_L_SetCounter(0);
ARM GAS  C:\Users\pasan savindu\AppData\Local\Temp\ccY2T3Z5.s 			page 20


 759              		.loc 1 318 0
 760 014a 0020     		movs	r0, #0
 761 014c FFF7FEFF 		bl	QuadDec_L_SetCounter
 762              	.LVL89:
 319:main.c        **** 		QuadDec_R_SetCounter(0);
 763              		.loc 1 319 0
 764 0150 0020     		movs	r0, #0
 765 0152 FFF7FEFF 		bl	QuadDec_R_SetCounter
 766              	.LVL90:
 320:main.c        **** 		break;
 767              		.loc 1 320 0
 768 0156 08BD     		pop	{r3, pc}
 769              	.L71:
 321:main.c        **** 	case 'L': //Left
 322:main.c        **** 		Forward_L_Write(0);
 770              		.loc 1 322 0
 771 0158 0020     		movs	r0, #0
 772 015a FFF7FEFF 		bl	Forward_L_Write
 773              	.LVL91:
 323:main.c        **** 		Backward_L_Write(1);
 774              		.loc 1 323 0
 775 015e 0120     		movs	r0, #1
 776 0160 FFF7FEFF 		bl	Backward_L_Write
 777              	.LVL92:
 324:main.c        **** 		Forwad_R_Write(1);
 778              		.loc 1 324 0
 779 0164 0120     		movs	r0, #1
 780 0166 FFF7FEFF 		bl	Forwad_R_Write
 781              	.LVL93:
 325:main.c        **** 		Backward_R_Write(0);
 782              		.loc 1 325 0
 783 016a 0020     		movs	r0, #0
 784 016c FFF7FEFF 		bl	Backward_R_Write
 785              	.LVL94:
 326:main.c        **** 		PWM_Motor_WriteCompare1(SPEED);
 786              		.loc 1 326 0
 787 0170 5020     		movs	r0, #80
 788 0172 FFF7FEFF 		bl	PWM_Motor_WriteCompare1
 789              	.LVL95:
 327:main.c        **** 		PWM_Motor_WriteCompare2(SPEED);
 790              		.loc 1 327 0
 791 0176 5020     		movs	r0, #80
 792 0178 FFF7FEFF 		bl	PWM_Motor_WriteCompare2
 793              	.LVL96:
 328:main.c        **** 		break;
 794              		.loc 1 328 0
 795 017c 08BD     		pop	{r3, pc}
 796              	.L72:
 329:main.c        **** 	case 'R': //Right
 330:main.c        **** 		Forward_L_Write(1);
 797              		.loc 1 330 0
 798 017e 0120     		movs	r0, #1
 799 0180 FFF7FEFF 		bl	Forward_L_Write
 800              	.LVL97:
 331:main.c        **** 		Backward_L_Write(0);
 801              		.loc 1 331 0
 802 0184 0020     		movs	r0, #0
ARM GAS  C:\Users\pasan savindu\AppData\Local\Temp\ccY2T3Z5.s 			page 21


 803 0186 FFF7FEFF 		bl	Backward_L_Write
 804              	.LVL98:
 332:main.c        **** 		Forwad_R_Write(0);
 805              		.loc 1 332 0
 806 018a 0020     		movs	r0, #0
 807 018c FFF7FEFF 		bl	Forwad_R_Write
 808              	.LVL99:
 333:main.c        **** 		Backward_R_Write(1);
 809              		.loc 1 333 0
 810 0190 0120     		movs	r0, #1
 811 0192 FFF7FEFF 		bl	Backward_R_Write
 812              	.LVL100:
 334:main.c        **** 		PWM_Motor_WriteCompare1(SPEED);
 813              		.loc 1 334 0
 814 0196 5020     		movs	r0, #80
 815 0198 FFF7FEFF 		bl	PWM_Motor_WriteCompare1
 816              	.LVL101:
 335:main.c        **** 		PWM_Motor_WriteCompare2(SPEED);
 817              		.loc 1 335 0
 818 019c 5020     		movs	r0, #80
 819 019e FFF7FEFF 		bl	PWM_Motor_WriteCompare2
 820              	.LVL102:
 336:main.c        **** 		break;
 821              		.loc 1 336 0
 822 01a2 08BD     		pop	{r3, pc}
 823              	.L69:
 337:main.c        **** 	case 'C': //Callibrate
 338:main.c        **** 		Forward_L_Write(1);
 824              		.loc 1 338 0
 825 01a4 0120     		movs	r0, #1
 826 01a6 FFF7FEFF 		bl	Forward_L_Write
 827              	.LVL103:
 339:main.c        **** 		Backward_L_Write(0);
 828              		.loc 1 339 0
 829 01aa 0020     		movs	r0, #0
 830 01ac FFF7FEFF 		bl	Backward_L_Write
 831              	.LVL104:
 340:main.c        **** 		Forwad_R_Write(1);
 832              		.loc 1 340 0
 833 01b0 0120     		movs	r0, #1
 834 01b2 FFF7FEFF 		bl	Forwad_R_Write
 835              	.LVL105:
 341:main.c        **** 		Backward_R_Write(0);
 836              		.loc 1 341 0
 837 01b6 0020     		movs	r0, #0
 838 01b8 FFF7FEFF 		bl	Backward_R_Write
 839              	.LVL106:
 342:main.c        **** 		PWM_Motor_WriteCompare1(SPEED);
 840              		.loc 1 342 0
 841 01bc 5020     		movs	r0, #80
 842 01be FFF7FEFF 		bl	PWM_Motor_WriteCompare1
 843              	.LVL107:
 343:main.c        **** 		PWM_Motor_WriteCompare2(SPEED);
 844              		.loc 1 343 0
 845 01c2 5020     		movs	r0, #80
 846 01c4 FFF7FEFF 		bl	PWM_Motor_WriteCompare2
 847              	.LVL108:
ARM GAS  C:\Users\pasan savindu\AppData\Local\Temp\ccY2T3Z5.s 			page 22


 344:main.c        **** 		break;
 848              		.loc 1 344 0
 849 01c8 08BD     		pop	{r3, pc}
 850              	.L74:
 345:main.c        **** 	case 'X': // Reverse Left
 346:main.c        **** 		Forward_L_Write(0);
 851              		.loc 1 346 0
 852 01ca 0020     		movs	r0, #0
 853 01cc FFF7FEFF 		bl	Forward_L_Write
 854              	.LVL109:
 347:main.c        **** 		Backward_L_Write(1);
 855              		.loc 1 347 0
 856 01d0 0120     		movs	r0, #1
 857 01d2 FFF7FEFF 		bl	Backward_L_Write
 858              	.LVL110:
 348:main.c        **** 		Forwad_R_Write(0);
 859              		.loc 1 348 0
 860 01d6 0020     		movs	r0, #0
 861 01d8 FFF7FEFF 		bl	Forwad_R_Write
 862              	.LVL111:
 349:main.c        **** 		Backward_R_Write(0);
 863              		.loc 1 349 0
 864 01dc 0020     		movs	r0, #0
 865 01de FFF7FEFF 		bl	Backward_R_Write
 866              	.LVL112:
 350:main.c        **** 		PWM_Motor_WriteCompare1(SPEED);
 867              		.loc 1 350 0
 868 01e2 5020     		movs	r0, #80
 869 01e4 FFF7FEFF 		bl	PWM_Motor_WriteCompare1
 870              	.LVL113:
 351:main.c        **** 		PWM_Motor_WriteCompare2(0);
 871              		.loc 1 351 0
 872 01e8 0020     		movs	r0, #0
 873 01ea FFF7FEFF 		bl	PWM_Motor_WriteCompare2
 874              	.LVL114:
 352:main.c        **** 		break;
 875              		.loc 1 352 0
 876 01ee 08BD     		pop	{r3, pc}
 877              	.L75:
 353:main.c        **** 	case 'Y': //Reverse Right
 354:main.c        **** 		Forward_L_Write(0);
 878              		.loc 1 354 0
 879 01f0 0020     		movs	r0, #0
 880 01f2 FFF7FEFF 		bl	Forward_L_Write
 881              	.LVL115:
 355:main.c        **** 		Backward_L_Write(0);
 882              		.loc 1 355 0
 883 01f6 0020     		movs	r0, #0
 884 01f8 FFF7FEFF 		bl	Backward_L_Write
 885              	.LVL116:
 356:main.c        **** 		Forwad_R_Write(0);
 886              		.loc 1 356 0
 887 01fc 0020     		movs	r0, #0
 888 01fe FFF7FEFF 		bl	Forwad_R_Write
 889              	.LVL117:
 357:main.c        **** 		Backward_R_Write(1);
 890              		.loc 1 357 0
ARM GAS  C:\Users\pasan savindu\AppData\Local\Temp\ccY2T3Z5.s 			page 23


 891 0202 0120     		movs	r0, #1
 892 0204 FFF7FEFF 		bl	Backward_R_Write
 893              	.LVL118:
 358:main.c        **** 		PWM_Motor_WriteCompare1(0);
 894              		.loc 1 358 0
 895 0208 0020     		movs	r0, #0
 896 020a FFF7FEFF 		bl	PWM_Motor_WriteCompare1
 897              	.LVL119:
 359:main.c        **** 		PWM_Motor_WriteCompare2(SPEED);
 898              		.loc 1 359 0
 899 020e 5020     		movs	r0, #80
 900 0210 FFF7FEFF 		bl	PWM_Motor_WriteCompare2
 901              	.LVL120:
 902              	.L65:
 903 0214 08BD     		pop	{r3, pc}
 904              	.L80:
 905 0216 00BF     		.align	2
 906              	.L79:
 907 0218 00000000 		.word	speedL
 908 021c 00000000 		.word	speedR
 909              		.cfi_endproc
 910              	.LFE73:
 911              		.size	motorcontrl, .-motorcontrl
 912              		.section	.text.move_straight,"ax",%progbits
 913              		.align	2
 914              		.global	move_straight
 915              		.thumb
 916              		.thumb_func
 917              		.type	move_straight, %function
 918              	move_straight:
 919              	.LFB74:
 360:main.c        **** 		break;
 361:main.c        **** 	default:
 362:main.c        **** 		break;
 363:main.c        **** 	}
 364:main.c        **** }
 365:main.c        **** 
 366:main.c        **** //To move forward/Backward a certain distance
 367:main.c        **** void move_straight(char direction,int distance){
 920              		.loc 1 367 0
 921              		.cfi_startproc
 922              		@ args = 0, pretend = 0, frame = 0
 923              		@ frame_needed = 0, uses_anonymous_args = 0
 924              	.LVL121:
 925 0000 70B5     		push	{r4, r5, r6, lr}
 926              		.cfi_def_cfa_offset 16
 927              		.cfi_offset 4, -16
 928              		.cfi_offset 5, -12
 929              		.cfi_offset 6, -8
 930              		.cfi_offset 14, -4
 931 0002 0546     		mov	r5, r0
 932 0004 0E46     		mov	r6, r1
 933              	.LVL122:
 368:main.c        ****     int8 command=0;
 934              		.loc 1 368 0
 935 0006 0024     		movs	r4, #0
 369:main.c        **** 	while (command == 0) 
ARM GAS  C:\Users\pasan savindu\AppData\Local\Temp\ccY2T3Z5.s 			page 24


 936              		.loc 1 369 0
 937 0008 0BE0     		b	.L82
 938              	.LVL123:
 939              	.L83:
 370:main.c        ****     {
 371:main.c        **** 		QuadDec_L_SetCounter(0);
 940              		.loc 1 371 0
 941 000a 0020     		movs	r0, #0
 942 000c FFF7FEFF 		bl	QuadDec_L_SetCounter
 943              	.LVL124:
 372:main.c        **** 		QuadDec_R_SetCounter(0);
 944              		.loc 1 372 0
 945 0010 0020     		movs	r0, #0
 946 0012 FFF7FEFF 		bl	QuadDec_R_SetCounter
 947              	.LVL125:
 373:main.c        **** 		countL = 0;
 948              		.loc 1 373 0
 949 0016 0023     		movs	r3, #0
 950 0018 1E4A     		ldr	r2, .L93
 951 001a 1360     		str	r3, [r2]
 374:main.c        **** 		countR = 0;
 952              		.loc 1 374 0
 953 001c 1E4A     		ldr	r2, .L93+4
 954 001e 1360     		str	r3, [r2]
 955              	.LVL126:
 375:main.c        **** 		command = 1;
 956              		.loc 1 375 0
 957 0020 0124     		movs	r4, #1
 958              	.LVL127:
 959              	.L82:
 369:main.c        ****     {
 960              		.loc 1 369 0
 961 0022 002C     		cmp	r4, #0
 962 0024 F1D0     		beq	.L83
 963 0026 31E0     		b	.L84
 964              	.L91:
 376:main.c        **** 	}
 377:main.c        ****     while(command==1)
 378:main.c        ****     {
 379:main.c        ****         countL = QuadDec_L_GetCounter();
 965              		.loc 1 379 0
 966 0028 FFF7FEFF 		bl	QuadDec_L_GetCounter
 967              	.LVL128:
 968 002c 194B     		ldr	r3, .L93
 969 002e 1860     		str	r0, [r3]
 380:main.c        ****         countR = QuadDec_R_GetCounter();
 970              		.loc 1 380 0
 971 0030 FFF7FEFF 		bl	QuadDec_R_GetCounter
 972              	.LVL129:
 973 0034 184B     		ldr	r3, .L93+4
 974 0036 1860     		str	r0, [r3]
 381:main.c        **** //        sprintf(string1,"Left Counter Value = %d\n",countR);
 382:main.c        **** //        UART_PutString(string1);
 383:main.c        ****         if(direction == 'F')
 975              		.loc 1 383 0
 976 0038 462D     		cmp	r5, #70
 977 003a 12D1     		bne	.L85
ARM GAS  C:\Users\pasan savindu\AppData\Local\Temp\ccY2T3Z5.s 			page 25


 384:main.c        ****         {
 385:main.c        **** 	      if ((countR <= distance) || (countL <= distance))
 978              		.loc 1 385 0
 979 003c B042     		cmp	r0, r6
 980 003e 03DD     		ble	.L86
 981              		.loc 1 385 0 is_stmt 0 discriminator 1
 982 0040 144B     		ldr	r3, .L93
 983 0042 1B68     		ldr	r3, [r3]
 984 0044 9E42     		cmp	r6, r3
 985 0046 03DB     		blt	.L87
 986              	.L86:
 386:main.c        **** 	        {
 387:main.c        **** 		     motorcontrl('F');
 987              		.loc 1 387 0 is_stmt 1
 988 0048 4620     		movs	r0, #70
 989 004a FFF7FEFF 		bl	motorcontrl
 990              	.LVL130:
 991 004e 1DE0     		b	.L84
 992              	.L87:
 388:main.c        **** 	        }
 389:main.c        **** 	      else
 390:main.c        **** 	       {
 391:main.c        **** 		     motorcontrl('S');
 993              		.loc 1 391 0
 994 0050 5320     		movs	r0, #83
 995 0052 FFF7FEFF 		bl	motorcontrl
 996              	.LVL131:
 392:main.c        **** 		     countL = 0;
 997              		.loc 1 392 0
 998 0056 0024     		movs	r4, #0
 999              	.LVL132:
 1000 0058 0E4B     		ldr	r3, .L93
 1001 005a 1C60     		str	r4, [r3]
 393:main.c        **** 		     countR = 0;
 1002              		.loc 1 393 0
 1003 005c 0E4B     		ldr	r3, .L93+4
 1004 005e 1C60     		str	r4, [r3]
 1005              	.LVL133:
 1006 0060 14E0     		b	.L84
 1007              	.LVL134:
 1008              	.L85:
 394:main.c        **** 		     command = 0;
 395:main.c        **** 	       }
 396:main.c        ****         }
 397:main.c        ****         else if (direction == 'B')
 1009              		.loc 1 397 0
 1010 0062 422D     		cmp	r5, #66
 1011 0064 12D1     		bne	.L84
 398:main.c        ****         {
 399:main.c        ****             if ((countR >= -1 * distance) || (countL >= -1 * distance))
 1012              		.loc 1 399 0
 1013 0066 7342     		negs	r3, r6
 1014 0068 9842     		cmp	r0, r3
 1015 006a 03DA     		bge	.L89
 1016              		.loc 1 399 0 is_stmt 0 discriminator 1
 1017 006c 094A     		ldr	r2, .L93
 1018 006e 1268     		ldr	r2, [r2]
ARM GAS  C:\Users\pasan savindu\AppData\Local\Temp\ccY2T3Z5.s 			page 26


 1019 0070 9342     		cmp	r3, r2
 1020 0072 03DC     		bgt	.L90
 1021              	.L89:
 400:main.c        **** 	            {
 401:main.c        **** 		          motorcontrl('B');
 1022              		.loc 1 401 0 is_stmt 1
 1023 0074 4220     		movs	r0, #66
 1024 0076 FFF7FEFF 		bl	motorcontrl
 1025              	.LVL135:
 1026 007a 07E0     		b	.L84
 1027              	.L90:
 402:main.c        **** 	            }
 403:main.c        **** 	        else
 404:main.c        **** 	            {
 405:main.c        **** 		         motorcontrl('S');
 1028              		.loc 1 405 0
 1029 007c 5320     		movs	r0, #83
 1030 007e FFF7FEFF 		bl	motorcontrl
 1031              	.LVL136:
 406:main.c        **** 		         countL = 0;
 1032              		.loc 1 406 0
 1033 0082 0024     		movs	r4, #0
 1034              	.LVL137:
 1035 0084 034B     		ldr	r3, .L93
 1036 0086 1C60     		str	r4, [r3]
 407:main.c        **** 		         countR = 0;
 1037              		.loc 1 407 0
 1038 0088 034B     		ldr	r3, .L93+4
 1039 008a 1C60     		str	r4, [r3]
 1040              	.LVL138:
 1041              	.L84:
 377:main.c        ****     {
 1042              		.loc 1 377 0
 1043 008c 002C     		cmp	r4, #0
 1044 008e CBD1     		bne	.L91
 408:main.c        **** 		         command = 0;
 409:main.c        **** 	            }
 410:main.c        ****         }
 411:main.c        ****     }
 412:main.c        **** }
 1045              		.loc 1 412 0
 1046 0090 70BD     		pop	{r4, r5, r6, pc}
 1047              	.LVL139:
 1048              	.L94:
 1049 0092 00BF     		.align	2
 1050              	.L93:
 1051 0094 00000000 		.word	countL
 1052 0098 00000000 		.word	countR
 1053              		.cfi_endproc
 1054              	.LFE74:
 1055              		.size	move_straight, .-move_straight
 1056              		.section	.text.turn,"ax",%progbits
 1057              		.align	2
 1058              		.global	turn
 1059              		.thumb
 1060              		.thumb_func
 1061              		.type	turn, %function
ARM GAS  C:\Users\pasan savindu\AppData\Local\Temp\ccY2T3Z5.s 			page 27


 1062              	turn:
 1063              	.LFB75:
 413:main.c        **** 
 414:main.c        **** //To Turn 90 Degree Angles.
 415:main.c        **** void turn(char direction,int degree){
 1064              		.loc 1 415 0
 1065              		.cfi_startproc
 1066              		@ args = 0, pretend = 0, frame = 0
 1067              		@ frame_needed = 0, uses_anonymous_args = 0
 1068              	.LVL140:
 1069 0000 70B5     		push	{r4, r5, r6, lr}
 1070              		.cfi_def_cfa_offset 16
 1071              		.cfi_offset 4, -16
 1072              		.cfi_offset 5, -12
 1073              		.cfi_offset 6, -8
 1074              		.cfi_offset 14, -4
 1075 0002 0546     		mov	r5, r0
 1076 0004 0E46     		mov	r6, r1
 1077              	.LVL141:
 416:main.c        ****     int8 command=0;
 1078              		.loc 1 416 0
 1079 0006 0024     		movs	r4, #0
 417:main.c        **** 	while (command == 0) 
 1080              		.loc 1 417 0
 1081 0008 0BE0     		b	.L96
 1082              	.LVL142:
 1083              	.L97:
 418:main.c        ****     {
 419:main.c        **** 		QuadDec_L_SetCounter(0);
 1084              		.loc 1 419 0
 1085 000a 0020     		movs	r0, #0
 1086 000c FFF7FEFF 		bl	QuadDec_L_SetCounter
 1087              	.LVL143:
 420:main.c        **** 		QuadDec_R_SetCounter(0);
 1088              		.loc 1 420 0
 1089 0010 0020     		movs	r0, #0
 1090 0012 FFF7FEFF 		bl	QuadDec_R_SetCounter
 1091              	.LVL144:
 421:main.c        **** 		countL = 0;
 1092              		.loc 1 421 0
 1093 0016 0023     		movs	r3, #0
 1094 0018 1A4A     		ldr	r2, .L105
 1095 001a 1360     		str	r3, [r2]
 422:main.c        **** 		countR = 0;
 1096              		.loc 1 422 0
 1097 001c 1A4A     		ldr	r2, .L105+4
 1098 001e 1360     		str	r3, [r2]
 1099              	.LVL145:
 423:main.c        **** 		command = 1;
 1100              		.loc 1 423 0
 1101 0020 0124     		movs	r4, #1
 1102              	.LVL146:
 1103              	.L96:
 417:main.c        ****     {
 1104              		.loc 1 417 0
 1105 0022 002C     		cmp	r4, #0
 1106 0024 F1D0     		beq	.L97
ARM GAS  C:\Users\pasan savindu\AppData\Local\Temp\ccY2T3Z5.s 			page 28


 1107 0026 2AE0     		b	.L98
 1108              	.L103:
 424:main.c        **** 	}
 425:main.c        ****     while(command ==1)
 426:main.c        ****     {
 427:main.c        ****         countL = QuadDec_L_GetCounter();
 1109              		.loc 1 427 0
 1110 0028 FFF7FEFF 		bl	QuadDec_L_GetCounter
 1111              	.LVL147:
 1112 002c 154B     		ldr	r3, .L105
 1113 002e 1860     		str	r0, [r3]
 428:main.c        ****         countR = QuadDec_R_GetCounter();
 1114              		.loc 1 428 0
 1115 0030 FFF7FEFF 		bl	QuadDec_R_GetCounter
 1116              	.LVL148:
 1117 0034 144B     		ldr	r3, .L105+4
 1118 0036 1860     		str	r0, [r3]
 429:main.c        ****         
 430:main.c        ****          if (direction =='L')
 1119              		.loc 1 430 0
 1120 0038 4C2D     		cmp	r5, #76
 1121 003a 0ED1     		bne	.L99
 431:main.c        ****           {
 432:main.c        ****             if (countR <= degree)
 1122              		.loc 1 432 0
 1123 003c B042     		cmp	r0, r6
 1124 003e 03DC     		bgt	.L100
 433:main.c        **** 	          {
 434:main.c        **** 		       motorcontrl('L');
 1125              		.loc 1 434 0
 1126 0040 4C20     		movs	r0, #76
 1127 0042 FFF7FEFF 		bl	motorcontrl
 1128              	.LVL149:
 1129 0046 1AE0     		b	.L98
 1130              	.L100:
 435:main.c        **** 	          }
 436:main.c        **** 	        else
 437:main.c        ****             {
 438:main.c        **** 		      motorcontrl('S');
 1131              		.loc 1 438 0
 1132 0048 5320     		movs	r0, #83
 1133 004a FFF7FEFF 		bl	motorcontrl
 1134              	.LVL150:
 439:main.c        **** 		      countL = 0;
 1135              		.loc 1 439 0
 1136 004e 0024     		movs	r4, #0
 1137              	.LVL151:
 1138 0050 0C4B     		ldr	r3, .L105
 1139 0052 1C60     		str	r4, [r3]
 440:main.c        **** 		      countR = 0;
 1140              		.loc 1 440 0
 1141 0054 0C4B     		ldr	r3, .L105+4
 1142 0056 1C60     		str	r4, [r3]
 1143              	.LVL152:
 1144 0058 11E0     		b	.L98
 1145              	.LVL153:
 1146              	.L99:
ARM GAS  C:\Users\pasan savindu\AppData\Local\Temp\ccY2T3Z5.s 			page 29


 441:main.c        ****               command=0;
 442:main.c        **** 	         }
 443:main.c        ****           }
 444:main.c        ****          else if(direction=='R')
 1147              		.loc 1 444 0
 1148 005a 522D     		cmp	r5, #82
 1149 005c 0FD1     		bne	.L98
 445:main.c        ****           {
 446:main.c        ****             if (countL <= degree)
 1150              		.loc 1 446 0
 1151 005e 094B     		ldr	r3, .L105
 1152 0060 1B68     		ldr	r3, [r3]
 1153 0062 9E42     		cmp	r6, r3
 1154 0064 03DB     		blt	.L102
 447:main.c        **** 	          {
 448:main.c        **** 		      motorcontrl('R');
 1155              		.loc 1 448 0
 1156 0066 5220     		movs	r0, #82
 1157 0068 FFF7FEFF 		bl	motorcontrl
 1158              	.LVL154:
 1159 006c 07E0     		b	.L98
 1160              	.L102:
 449:main.c        **** 	          }
 450:main.c        **** 	        else {
 451:main.c        **** 		      motorcontrl('S');
 1161              		.loc 1 451 0
 1162 006e 5320     		movs	r0, #83
 1163 0070 FFF7FEFF 		bl	motorcontrl
 1164              	.LVL155:
 452:main.c        **** 		      countL = 0;
 1165              		.loc 1 452 0
 1166 0074 0024     		movs	r4, #0
 1167              	.LVL156:
 1168 0076 034B     		ldr	r3, .L105
 1169 0078 1C60     		str	r4, [r3]
 453:main.c        **** 		      countR = 0;
 1170              		.loc 1 453 0
 1171 007a 034B     		ldr	r3, .L105+4
 1172 007c 1C60     		str	r4, [r3]
 1173              	.LVL157:
 1174              	.L98:
 425:main.c        ****     {
 1175              		.loc 1 425 0
 1176 007e 002C     		cmp	r4, #0
 1177 0080 D2D1     		bne	.L103
 454:main.c        ****               command=0;
 455:main.c        **** 	             }
 456:main.c        ****           }
 457:main.c        ****     }
 458:main.c        ****     
 459:main.c        **** }
 1178              		.loc 1 459 0
 1179 0082 70BD     		pop	{r4, r5, r6, pc}
 1180              	.LVL158:
 1181              	.L106:
 1182              		.align	2
 1183              	.L105:
ARM GAS  C:\Users\pasan savindu\AppData\Local\Temp\ccY2T3Z5.s 			page 30


 1184 0084 00000000 		.word	countL
 1185 0088 00000000 		.word	countR
 1186              		.cfi_endproc
 1187              	.LFE75:
 1188              		.size	turn, .-turn
 1189              		.section	.text.wall_allignment,"ax",%progbits
 1190              		.align	2
 1191              		.global	wall_allignment
 1192              		.thumb
 1193              		.thumb_func
 1194              		.type	wall_allignment, %function
 1195              	wall_allignment:
 1196              	.LFB76:
 460:main.c        **** 
 461:main.c        **** //Wall Allignment
 462:main.c        **** void wall_allignment(){
 1197              		.loc 1 462 0
 1198              		.cfi_startproc
 1199              		@ args = 0, pretend = 0, frame = 0
 1200              		@ frame_needed = 0, uses_anonymous_args = 0
 1201 0000 10B5     		push	{r4, lr}
 1202              		.cfi_def_cfa_offset 8
 1203              		.cfi_offset 4, -8
 1204              		.cfi_offset 14, -4
 1205              	.LVL159:
 463:main.c        ****     int wall_detected=0;
 1206              		.loc 1 463 0
 1207 0002 0024     		movs	r4, #0
 464:main.c        ****     
 465:main.c        ****     while (wall_detected == 0)
 1208              		.loc 1 465 0
 1209 0004 32E0     		b	.L108
 1210              	.LVL160:
 1211              	.L113:
 466:main.c        ****     {
 467:main.c        ****         if(limitSW_1_Read()==1 && limitSW_2_Read()==1)
 1212              		.loc 1 467 0
 1213 0006 FFF7FEFF 		bl	limitSW_1_Read
 1214              	.LVL161:
 1215 000a 0128     		cmp	r0, #1
 1216 000c 0AD1     		bne	.L109
 1217              		.loc 1 467 0 is_stmt 0 discriminator 1
 1218 000e FFF7FEFF 		bl	limitSW_2_Read
 1219              	.LVL162:
 1220 0012 0128     		cmp	r0, #1
 1221 0014 06D1     		bne	.L109
 468:main.c        ****             {
 469:main.c        ****               CyDelay(200);
 1222              		.loc 1 469 0 is_stmt 1
 1223 0016 C820     		movs	r0, #200
 1224 0018 FFF7FEFF 		bl	CyDelay
 1225              	.LVL163:
 470:main.c        ****               motorcontrl('B');
 1226              		.loc 1 470 0
 1227 001c 4220     		movs	r0, #66
 1228 001e FFF7FEFF 		bl	motorcontrl
 1229              	.LVL164:
ARM GAS  C:\Users\pasan savindu\AppData\Local\Temp\ccY2T3Z5.s 			page 31


 1230 0022 23E0     		b	.L108
 1231              	.L109:
 471:main.c        ****              }
 472:main.c        ****         else  if (limitSW_1_Read()==1 && limitSW_2_Read() ==0 )
 1232              		.loc 1 472 0
 1233 0024 FFF7FEFF 		bl	limitSW_1_Read
 1234              	.LVL165:
 1235 0028 0128     		cmp	r0, #1
 1236 002a 09D1     		bne	.L111
 1237              		.loc 1 472 0 is_stmt 0 discriminator 1
 1238 002c FFF7FEFF 		bl	limitSW_2_Read
 1239              	.LVL166:
 1240 0030 30B9     		cbnz	r0, .L111
 473:main.c        ****             {
 474:main.c        ****                 CyDelay(200);
 1241              		.loc 1 474 0 is_stmt 1
 1242 0032 C820     		movs	r0, #200
 1243 0034 FFF7FEFF 		bl	CyDelay
 1244              	.LVL167:
 475:main.c        ****                 motorcontrl('Y');
 1245              		.loc 1 475 0
 1246 0038 5920     		movs	r0, #89
 1247 003a FFF7FEFF 		bl	motorcontrl
 1248              	.LVL168:
 1249 003e 15E0     		b	.L108
 1250              	.L111:
 476:main.c        ****             }
 477:main.c        ****         else if (limitSW_1_Read()==0 && limitSW_2_Read()==1)
 1251              		.loc 1 477 0
 1252 0040 FFF7FEFF 		bl	limitSW_1_Read
 1253              	.LVL169:
 1254 0044 50B9     		cbnz	r0, .L112
 1255              		.loc 1 477 0 is_stmt 0 discriminator 1
 1256 0046 FFF7FEFF 		bl	limitSW_2_Read
 1257              	.LVL170:
 1258 004a 0128     		cmp	r0, #1
 1259 004c 06D1     		bne	.L112
 478:main.c        ****             {
 479:main.c        ****                 CyDelay(200);
 1260              		.loc 1 479 0 is_stmt 1
 1261 004e C820     		movs	r0, #200
 1262 0050 FFF7FEFF 		bl	CyDelay
 1263              	.LVL171:
 480:main.c        ****                 motorcontrl('X');                
 1264              		.loc 1 480 0
 1265 0054 5820     		movs	r0, #88
 1266 0056 FFF7FEFF 		bl	motorcontrl
 1267              	.LVL172:
 1268 005a 07E0     		b	.L108
 1269              	.L112:
 481:main.c        ****             }
 482:main.c        ****         else //robot has reached the wall.
 483:main.c        ****             {
 484:main.c        ****                 motorcontrl('S');
 1270              		.loc 1 484 0
 1271 005c 5320     		movs	r0, #83
 1272 005e FFF7FEFF 		bl	motorcontrl
ARM GAS  C:\Users\pasan savindu\AppData\Local\Temp\ccY2T3Z5.s 			page 32


 1273              	.LVL173:
 485:main.c        ****                 CyDelay(500);
 1274              		.loc 1 485 0
 1275 0062 4FF4FA70 		mov	r0, #500
 1276 0066 FFF7FEFF 		bl	CyDelay
 1277              	.LVL174:
 486:main.c        ****                 wall_detected = 1;
 1278              		.loc 1 486 0
 1279 006a 0124     		movs	r4, #1
 1280              	.LVL175:
 1281              	.L108:
 465:main.c        ****     {
 1282              		.loc 1 465 0
 1283 006c 002C     		cmp	r4, #0
 1284 006e CAD0     		beq	.L113
 487:main.c        ****             }
 488:main.c        ****     }   
 489:main.c        **** }
 1285              		.loc 1 489 0
 1286 0070 10BD     		pop	{r4, pc}
 1287              		.cfi_endproc
 1288              	.LFE76:
 1289              		.size	wall_allignment, .-wall_allignment
 1290 0072 00BF     		.section	.text.side_allignment,"ax",%progbits
 1291              		.align	2
 1292              		.global	side_allignment
 1293              		.thumb
 1294              		.thumb_func
 1295              		.type	side_allignment, %function
 1296              	side_allignment:
 1297              	.LFB77:
 490:main.c        **** 
 491:main.c        **** //allignment using side Ultrasonic Sensors
 492:main.c        **** void side_allignment(char side)
 493:main.c        **** {
 1298              		.loc 1 493 0
 1299              		.cfi_startproc
 1300              		@ args = 0, pretend = 0, frame = 0
 1301              		@ frame_needed = 0, uses_anonymous_args = 0
 1302              	.LVL176:
 1303 0000 38B5     		push	{r3, r4, r5, lr}
 1304              		.cfi_def_cfa_offset 16
 1305              		.cfi_offset 3, -16
 1306              		.cfi_offset 4, -12
 1307              		.cfi_offset 5, -8
 1308              		.cfi_offset 14, -4
 1309 0002 0446     		mov	r4, r0
 494:main.c        ****     S3_distance=S4_distance=WALL_ALLIGNMENT;
 1310              		.loc 1 494 0
 1311 0004 294B     		ldr	r3, .L128
 1312 0006 1922     		movs	r2, #25
 1313 0008 DA60     		str	r2, [r3, #12]
 1314 000a 9A60     		str	r2, [r3, #8]
 1315              	.LVL177:
 495:main.c        ****     int temp=0;
 1316              		.loc 1 495 0
 1317 000c 0025     		movs	r5, #0
ARM GAS  C:\Users\pasan savindu\AppData\Local\Temp\ccY2T3Z5.s 			page 33


 496:main.c        ****     while(temp==0)
 1318              		.loc 1 496 0
 1319 000e 45E0     		b	.L122
 1320              	.LVL178:
 1321              	.L126:
 497:main.c        ****     {
 498:main.c        ****         
 499:main.c        ****     if (side == 'L')
 1322              		.loc 1 499 0
 1323 0010 4C2C     		cmp	r4, #76
 1324 0012 20D1     		bne	.L118
 1325 0014 08E0     		b	.L117
 1326              	.L119:
 500:main.c        ****     {
 501:main.c        ****     while (S3_Echo_Read() == 0) {
 502:main.c        **** 		S3_Trigger_Write(1);
 1327              		.loc 1 502 0
 1328 0016 0120     		movs	r0, #1
 1329 0018 FFF7FEFF 		bl	S3_Trigger_Write
 1330              	.LVL179:
 503:main.c        **** 		CyDelayUs(10);
 1331              		.loc 1 503 0
 1332 001c 0A20     		movs	r0, #10
 1333 001e FFF7FEFF 		bl	CyDelayUs
 1334              	.LVL180:
 504:main.c        **** 		S3_Trigger_Write(0);
 1335              		.loc 1 504 0
 1336 0022 0020     		movs	r0, #0
 1337 0024 FFF7FEFF 		bl	S3_Trigger_Write
 1338              	.LVL181:
 1339              	.L117:
 501:main.c        **** 		S3_Trigger_Write(1);
 1340              		.loc 1 501 0
 1341 0028 FFF7FEFF 		bl	S3_Echo_Read
 1342              	.LVL182:
 1343 002c 0028     		cmp	r0, #0
 1344 002e F2D0     		beq	.L119
 505:main.c        **** 	}
 506:main.c        ****     CyDelay(10);
 1345              		.loc 1 506 0
 1346 0030 0A20     		movs	r0, #10
 1347 0032 FFF7FEFF 		bl	CyDelay
 1348              	.LVL183:
 507:main.c        ****     if (obstacle3==1)
 1349              		.loc 1 507 0
 1350 0036 1E4B     		ldr	r3, .L128+4
 1351 0038 93F90230 		ldrsb	r3, [r3, #2]
 1352 003c 012B     		cmp	r3, #1
 1353 003e 03D1     		bne	.L120
 508:main.c        ****     {
 509:main.c        ****         motorcontrl('S');
 1354              		.loc 1 509 0
 1355 0040 5320     		movs	r0, #83
 1356 0042 FFF7FEFF 		bl	motorcontrl
 1357              	.LVL184:
 510:main.c        ****         temp=1;
 1358              		.loc 1 510 0
ARM GAS  C:\Users\pasan savindu\AppData\Local\Temp\ccY2T3Z5.s 			page 34


 1359 0046 0125     		movs	r5, #1
 1360              	.LVL185:
 1361              	.L120:
 511:main.c        ****     }
 512:main.c        ****     if (obstacle3==0)
 1362              		.loc 1 512 0
 1363 0048 194B     		ldr	r3, .L128+4
 1364 004a 93F90230 		ldrsb	r3, [r3, #2]
 1365 004e 13B9     		cbnz	r3, .L118
 513:main.c        ****     {
 514:main.c        ****         motorcontrl('R');
 1366              		.loc 1 514 0
 1367 0050 5220     		movs	r0, #82
 1368 0052 FFF7FEFF 		bl	motorcontrl
 1369              	.LVL186:
 1370              	.L118:
 515:main.c        ****     }
 516:main.c        ****     }
 517:main.c        ****     if(side=='R')
 1371              		.loc 1 517 0
 1372 0056 522C     		cmp	r4, #82
 1373 0058 20D1     		bne	.L122
 1374 005a 08E0     		b	.L121
 1375              	.L123:
 518:main.c        ****     {
 519:main.c        ****         while (S4_Echo_Read() == 0) {
 520:main.c        **** 		S4_Trigger_Write(1);
 1376              		.loc 1 520 0
 1377 005c 0120     		movs	r0, #1
 1378 005e FFF7FEFF 		bl	S4_Trigger_Write
 1379              	.LVL187:
 521:main.c        **** 		CyDelayUs(10);
 1380              		.loc 1 521 0
 1381 0062 0A20     		movs	r0, #10
 1382 0064 FFF7FEFF 		bl	CyDelayUs
 1383              	.LVL188:
 522:main.c        **** 		S4_Trigger_Write(0);
 1384              		.loc 1 522 0
 1385 0068 0020     		movs	r0, #0
 1386 006a FFF7FEFF 		bl	S4_Trigger_Write
 1387              	.LVL189:
 1388              	.L121:
 519:main.c        **** 		S4_Trigger_Write(1);
 1389              		.loc 1 519 0
 1390 006e FFF7FEFF 		bl	S4_Echo_Read
 1391              	.LVL190:
 1392 0072 0028     		cmp	r0, #0
 1393 0074 F2D0     		beq	.L123
 523:main.c        ****         }
 524:main.c        ****         CyDelay(10);
 1394              		.loc 1 524 0
 1395 0076 0A20     		movs	r0, #10
 1396 0078 FFF7FEFF 		bl	CyDelay
 1397              	.LVL191:
 525:main.c        ****         
 526:main.c        ****     if (obstacle4==1)
 1398              		.loc 1 526 0
ARM GAS  C:\Users\pasan savindu\AppData\Local\Temp\ccY2T3Z5.s 			page 35


 1399 007c 0C4B     		ldr	r3, .L128+4
 1400 007e 93F90330 		ldrsb	r3, [r3, #3]
 1401 0082 012B     		cmp	r3, #1
 1402 0084 03D1     		bne	.L124
 527:main.c        ****     {
 528:main.c        ****         motorcontrl('S');
 1403              		.loc 1 528 0
 1404 0086 5320     		movs	r0, #83
 1405 0088 FFF7FEFF 		bl	motorcontrl
 1406              	.LVL192:
 529:main.c        ****         temp=1;
 1407              		.loc 1 529 0
 1408 008c 0125     		movs	r5, #1
 1409              	.LVL193:
 1410              	.L124:
 530:main.c        ****     }
 531:main.c        ****     if (obstacle4==0)
 1411              		.loc 1 531 0
 1412 008e 084B     		ldr	r3, .L128+4
 1413 0090 93F90330 		ldrsb	r3, [r3, #3]
 1414 0094 13B9     		cbnz	r3, .L122
 532:main.c        ****     {
 533:main.c        ****         motorcontrl('L');
 1415              		.loc 1 533 0
 1416 0096 4C20     		movs	r0, #76
 1417 0098 FFF7FEFF 		bl	motorcontrl
 1418              	.LVL194:
 1419              	.L122:
 496:main.c        ****     {
 1420              		.loc 1 496 0
 1421 009c 002D     		cmp	r5, #0
 1422 009e B7D0     		beq	.L126
 534:main.c        ****     }
 535:main.c        ****    }
 536:main.c        ****  }
 537:main.c        ****    S3_distance=S4_distance=OPPONENT; 
 1423              		.loc 1 537 0
 1424 00a0 024B     		ldr	r3, .L128
 1425 00a2 0F22     		movs	r2, #15
 1426 00a4 DA60     		str	r2, [r3, #12]
 1427 00a6 9A60     		str	r2, [r3, #8]
 1428 00a8 38BD     		pop	{r3, r4, r5, pc}
 1429              	.LVL195:
 1430              	.L129:
 1431 00aa 00BF     		.align	2
 1432              	.L128:
 1433 00ac 00000000 		.word	.LANCHOR0
 1434 00b0 00000000 		.word	.LANCHOR1
 1435              		.cfi_endproc
 1436              	.LFE77:
 1437              		.size	side_allignment, .-side_allignment
 1438              		.section	.text.start_measure,"ax",%progbits
 1439              		.align	2
 1440              		.global	start_measure
 1441              		.thumb
 1442              		.thumb_func
 1443              		.type	start_measure, %function
ARM GAS  C:\Users\pasan savindu\AppData\Local\Temp\ccY2T3Z5.s 			page 36


 1444              	start_measure:
 1445              	.LFB78:
 538:main.c        **** }
 539:main.c        **** //Initiate the Interrupt for color sensor
 540:main.c        **** void start_measure() {
 1446              		.loc 1 540 0
 1447              		.cfi_startproc
 1448              		@ args = 0, pretend = 0, frame = 0
 1449              		@ frame_needed = 0, uses_anonymous_args = 0
 1450 0000 08B5     		push	{r3, lr}
 1451              		.cfi_def_cfa_offset 8
 1452              		.cfi_offset 3, -8
 1453              		.cfi_offset 14, -4
 541:main.c        **** 	Color_LED_Write(1);
 1454              		.loc 1 541 0
 1455 0002 0120     		movs	r0, #1
 1456 0004 FFF7FEFF 		bl	Color_LED_Write
 1457              	.LVL196:
 542:main.c        **** 	Control_Reg_Color_Write(1);
 1458              		.loc 1 542 0
 1459 0008 0120     		movs	r0, #1
 1460 000a FFF7FEFF 		bl	Control_Reg_Color_Write
 1461              	.LVL197:
 543:main.c        **** 	CyDelay(1);
 1462              		.loc 1 543 0
 1463 000e 0120     		movs	r0, #1
 1464 0010 FFF7FEFF 		bl	CyDelay
 1465              	.LVL198:
 544:main.c        **** 	Control_Reg_Color_Write(0);
 1466              		.loc 1 544 0
 1467 0014 0020     		movs	r0, #0
 1468 0016 FFF7FEFF 		bl	Control_Reg_Color_Write
 1469              	.LVL199:
 545:main.c        **** 	dataReady = 0;
 1470              		.loc 1 545 0
 1471 001a 0022     		movs	r2, #0
 1472 001c 044B     		ldr	r3, .L132
 1473 001e 9A60     		str	r2, [r3, #8]
 546:main.c        **** 	Color_Counter_Start();
 1474              		.loc 1 546 0
 1475 0020 FFF7FEFF 		bl	Color_Counter_Start
 1476              	.LVL200:
 547:main.c        **** 	isr_6_StartEx(interrupt6_handler);
 1477              		.loc 1 547 0
 1478 0024 0348     		ldr	r0, .L132+4
 1479 0026 FFF7FEFF 		bl	isr_6_StartEx
 1480              	.LVL201:
 548:main.c        **** 	Color_Timer_Start();
 1481              		.loc 1 548 0
 1482 002a FFF7FEFF 		bl	Color_Timer_Start
 1483              	.LVL202:
 1484 002e 08BD     		pop	{r3, pc}
 1485              	.L133:
 1486              		.align	2
 1487              	.L132:
 1488 0030 00000000 		.word	.LANCHOR1
 1489 0034 00000000 		.word	interrupt6_handler
ARM GAS  C:\Users\pasan savindu\AppData\Local\Temp\ccY2T3Z5.s 			page 37


 1490              		.cfi_endproc
 1491              	.LFE78:
 1492              		.size	start_measure, .-start_measure
 1493              		.section	.text.Initialize,"ax",%progbits
 1494              		.align	2
 1495              		.global	Initialize
 1496              		.thumb
 1497              		.thumb_func
 1498              		.type	Initialize, %function
 1499              	Initialize:
 1500              	.LFB70:
 141:main.c        **** 	PWM_Motor_Start();
 1501              		.loc 1 141 0
 1502              		.cfi_startproc
 1503              		@ args = 0, pretend = 0, frame = 0
 1504              		@ frame_needed = 0, uses_anonymous_args = 0
 1505 0000 08B5     		push	{r3, lr}
 1506              		.cfi_def_cfa_offset 8
 1507              		.cfi_offset 3, -8
 1508              		.cfi_offset 14, -4
 142:main.c        **** 	QuadDec_L_Start();
 1509              		.loc 1 142 0
 1510 0002 FFF7FEFF 		bl	PWM_Motor_Start
 1511              	.LVL203:
 143:main.c        **** 	QuadDec_R_Start();
 1512              		.loc 1 143 0
 1513 0006 FFF7FEFF 		bl	QuadDec_L_Start
 1514              	.LVL204:
 144:main.c        **** 	S1_Timer_Start();
 1515              		.loc 1 144 0
 1516 000a FFF7FEFF 		bl	QuadDec_R_Start
 1517              	.LVL205:
 145:main.c        **** 	S2_Timer_Start();
 1518              		.loc 1 145 0
 1519 000e FFF7FEFF 		bl	S1_Timer_Start
 1520              	.LVL206:
 146:main.c        **** 	S3_Timer_Start();
 1521              		.loc 1 146 0
 1522 0012 FFF7FEFF 		bl	S2_Timer_Start
 1523              	.LVL207:
 147:main.c        **** 	S4_Timer_Start();
 1524              		.loc 1 147 0
 1525 0016 FFF7FEFF 		bl	S3_Timer_Start
 1526              	.LVL208:
 148:main.c        **** 	Flicker_Servo_Start();
 1527              		.loc 1 148 0
 1528 001a FFF7FEFF 		bl	S4_Timer_Start
 1529              	.LVL209:
 149:main.c        **** 	RobotArm_Servo_Start();
 1530              		.loc 1 149 0
 1531 001e FFF7FEFF 		bl	Flicker_Servo_Start
 1532              	.LVL210:
 150:main.c        **** 	start_measure();
 1533              		.loc 1 150 0
 1534 0022 FFF7FEFF 		bl	RobotArm_Servo_Start
 1535              	.LVL211:
 151:main.c        **** 	isr_1_StartEx(S1_handler);
ARM GAS  C:\Users\pasan savindu\AppData\Local\Temp\ccY2T3Z5.s 			page 38


 1536              		.loc 1 151 0
 1537 0026 FFF7FEFF 		bl	start_measure
 1538              	.LVL212:
 152:main.c        **** 	isr_2_StartEx(S2_handler);
 1539              		.loc 1 152 0
 1540 002a 0E48     		ldr	r0, .L136
 1541 002c FFF7FEFF 		bl	isr_1_StartEx
 1542              	.LVL213:
 153:main.c        **** 	isr_3_StartEx(S3_handler);
 1543              		.loc 1 153 0
 1544 0030 0D48     		ldr	r0, .L136+4
 1545 0032 FFF7FEFF 		bl	isr_2_StartEx
 1546              	.LVL214:
 154:main.c        **** 	isr_4_StartEx(S4_handler);
 1547              		.loc 1 154 0
 1548 0036 0D48     		ldr	r0, .L136+8
 1549 0038 FFF7FEFF 		bl	isr_3_StartEx
 1550              	.LVL215:
 155:main.c        ****     //isr_5_StartEx(interrupt5_handler);
 1551              		.loc 1 155 0
 1552 003c 0C48     		ldr	r0, .L136+12
 1553 003e FFF7FEFF 		bl	isr_4_StartEx
 1554              	.LVL216:
 157:main.c        ****     I2C_Start();
 1555              		.loc 1 157 0
 1556 0042 FFF7FEFF 		bl	UART_Start
 1557              	.LVL217:
 158:main.c        ****     RobotArm_Servo_WriteCompare2(500);//Gripper Closes Up
 1558              		.loc 1 158 0
 1559 0046 FFF7FEFF 		bl	I2C_Start
 1560              	.LVL218:
 159:main.c        ****     RobotArm_Servo_WriteCompare1(2200); //tower up
 1561              		.loc 1 159 0
 1562 004a 4FF4FA70 		mov	r0, #500
 1563 004e FFF7FEFF 		bl	RobotArm_Servo_WriteCompare2
 1564              	.LVL219:
 160:main.c        ****     Flicker_Servo_WriteCompare(900);//flicker in position
 1565              		.loc 1 160 0
 1566 0052 40F69800 		movw	r0, #2200
 1567 0056 FFF7FEFF 		bl	RobotArm_Servo_WriteCompare1
 1568              	.LVL220:
 161:main.c        ****     
 1569              		.loc 1 161 0
 1570 005a 4FF46170 		mov	r0, #900
 1571 005e FFF7FEFF 		bl	Flicker_Servo_WriteCompare
 1572              	.LVL221:
 1573 0062 08BD     		pop	{r3, pc}
 1574              	.L137:
 1575              		.align	2
 1576              	.L136:
 1577 0064 00000000 		.word	S1_handler
 1578 0068 00000000 		.word	S2_handler
 1579 006c 00000000 		.word	S3_handler
 1580 0070 00000000 		.word	S4_handler
 1581              		.cfi_endproc
 1582              	.LFE70:
 1583              		.size	Initialize, .-Initialize
ARM GAS  C:\Users\pasan savindu\AppData\Local\Temp\ccY2T3Z5.s 			page 39


 1584              		.section	.text.select_color,"ax",%progbits
 1585              		.align	2
 1586              		.global	select_color
 1587              		.thumb
 1588              		.thumb_func
 1589              		.type	select_color, %function
 1590              	select_color:
 1591              	.LFB81:
 549:main.c        **** }
 550:main.c        **** 
 551:main.c        **** //Color Sensing
 552:main.c        **** int color_sense() {
 553:main.c        **** 	uint freq = 0;
 554:main.c        **** 	int RGB_freq[4];
 555:main.c        **** 
 556:main.c        **** 	for (int color_sense = 0; color_sense < 4; color_sense++)
 557:main.c        **** 	{
 558:main.c        **** 		freq = get_frequency(color_sense);
 559:main.c        **** 		RGB_freq[color_sense] = freq;
 560:main.c        **** 	}
 561:main.c        **** 	// Color Choice
 562:main.c        **** 	if (RGB_freq[0] > RGB_freq[1])
 563:main.c        **** 	{
 564:main.c        **** 		if (RGB_freq[0] > RGB_freq[3]) {
 565:main.c        **** 			return 1;
 566:main.c        **** 		}
 567:main.c        **** 		else {
 568:main.c        **** 			return 2;
 569:main.c        **** 		}
 570:main.c        **** 	}
 571:main.c        **** 	else if (RGB_freq[1] > RGB_freq[3])
 572:main.c        **** 	{
 573:main.c        **** 		return 3;
 574:main.c        **** 	}
 575:main.c        **** 	else {
 576:main.c        **** 		return 2;
 577:main.c        **** 	}
 578:main.c        **** }
 579:main.c        **** 
 580:main.c        **** //Calling from Color_sense
 581:main.c        **** int get_frequency(int color_sense) {
 582:main.c        **** 	select_color(color_sense);
 583:main.c        **** 	Color_S0_Write(1);
 584:main.c        **** 	Color_S1_Write(0);
 585:main.c        **** 	start_measure();
 586:main.c        **** 	while (!dataReady) 
 587:main.c        ****     {
 588:main.c        **** 		;
 589:main.c        **** 	}
 590:main.c        **** 	return iFreq;
 591:main.c        **** }
 592:main.c        **** 
 593:main.c        **** //Calling from get_frequency
 594:main.c        **** void select_color(int color_to_sense) {
 1592              		.loc 1 594 0
 1593              		.cfi_startproc
 1594              		@ args = 0, pretend = 0, frame = 0
ARM GAS  C:\Users\pasan savindu\AppData\Local\Temp\ccY2T3Z5.s 			page 40


 1595              		@ frame_needed = 0, uses_anonymous_args = 0
 1596              	.LVL222:
 1597 0000 08B5     		push	{r3, lr}
 1598              		.cfi_def_cfa_offset 8
 1599              		.cfi_offset 3, -8
 1600              		.cfi_offset 14, -4
 595:main.c        **** 	switch (color_to_sense) {
 1601              		.loc 1 595 0
 1602 0002 0328     		cmp	r0, #3
 1603 0004 1ED8     		bhi	.L138
 1604 0006 DFE800F0 		tbb	[pc, r0]
 1605              	.L141:
 1606 000a 02       		.byte	(.L140-.L141)/2
 1607 000b 09       		.byte	(.L142-.L141)/2
 1608 000c 10       		.byte	(.L143-.L141)/2
 1609 000d 17       		.byte	(.L144-.L141)/2
 1610              		.p2align 1
 1611              	.L140:
 596:main.c        **** 	case 0://RED
 597:main.c        **** 		Color_S2_Write(0);
 1612              		.loc 1 597 0
 1613 000e 0020     		movs	r0, #0
 1614              	.LVL223:
 1615 0010 FFF7FEFF 		bl	Color_S2_Write
 1616              	.LVL224:
 598:main.c        **** 		Color_S3_Write(0);
 1617              		.loc 1 598 0
 1618 0014 0020     		movs	r0, #0
 1619 0016 FFF7FEFF 		bl	Color_S3_Write
 1620              	.LVL225:
 599:main.c        **** 		break;
 1621              		.loc 1 599 0
 1622 001a 08BD     		pop	{r3, pc}
 1623              	.LVL226:
 1624              	.L142:
 600:main.c        **** 	case 1: //BLUE
 601:main.c        **** 		Color_S2_Write(0);
 1625              		.loc 1 601 0
 1626 001c 0020     		movs	r0, #0
 1627              	.LVL227:
 1628 001e FFF7FEFF 		bl	Color_S2_Write
 1629              	.LVL228:
 602:main.c        **** 		Color_S3_Write(1);
 1630              		.loc 1 602 0
 1631 0022 0120     		movs	r0, #1
 1632 0024 FFF7FEFF 		bl	Color_S3_Write
 1633              	.LVL229:
 603:main.c        **** 		break;
 1634              		.loc 1 603 0
 1635 0028 08BD     		pop	{r3, pc}
 1636              	.LVL230:
 1637              	.L143:
 604:main.c        **** 	case 2: //NO FILTER
 605:main.c        **** 		Color_S2_Write(1);
 1638              		.loc 1 605 0
 1639 002a 0120     		movs	r0, #1
 1640              	.LVL231:
ARM GAS  C:\Users\pasan savindu\AppData\Local\Temp\ccY2T3Z5.s 			page 41


 1641 002c FFF7FEFF 		bl	Color_S2_Write
 1642              	.LVL232:
 606:main.c        **** 		Color_S2_Write(0);
 1643              		.loc 1 606 0
 1644 0030 0020     		movs	r0, #0
 1645 0032 FFF7FEFF 		bl	Color_S2_Write
 1646              	.LVL233:
 607:main.c        **** 		break;
 1647              		.loc 1 607 0
 1648 0036 08BD     		pop	{r3, pc}
 1649              	.LVL234:
 1650              	.L144:
 608:main.c        **** 	case 3: //GREEN
 609:main.c        **** 		Color_S2_Write(1);
 1651              		.loc 1 609 0
 1652 0038 0120     		movs	r0, #1
 1653              	.LVL235:
 1654 003a FFF7FEFF 		bl	Color_S2_Write
 1655              	.LVL236:
 610:main.c        **** 		Color_S3_Write(1);
 1656              		.loc 1 610 0
 1657 003e 0120     		movs	r0, #1
 1658 0040 FFF7FEFF 		bl	Color_S3_Write
 1659              	.LVL237:
 1660              	.L138:
 1661 0044 08BD     		pop	{r3, pc}
 1662              		.cfi_endproc
 1663              	.LFE81:
 1664              		.size	select_color, .-select_color
 1665 0046 00BF     		.section	.text.get_frequency,"ax",%progbits
 1666              		.align	2
 1667              		.global	get_frequency
 1668              		.thumb
 1669              		.thumb_func
 1670              		.type	get_frequency, %function
 1671              	get_frequency:
 1672              	.LFB80:
 581:main.c        **** 	select_color(color_sense);
 1673              		.loc 1 581 0
 1674              		.cfi_startproc
 1675              		@ args = 0, pretend = 0, frame = 0
 1676              		@ frame_needed = 0, uses_anonymous_args = 0
 1677              	.LVL238:
 1678 0000 08B5     		push	{r3, lr}
 1679              		.cfi_def_cfa_offset 8
 1680              		.cfi_offset 3, -8
 1681              		.cfi_offset 14, -4
 582:main.c        **** 	Color_S0_Write(1);
 1682              		.loc 1 582 0
 1683 0002 FFF7FEFF 		bl	select_color
 1684              	.LVL239:
 583:main.c        **** 	Color_S1_Write(0);
 1685              		.loc 1 583 0
 1686 0006 0120     		movs	r0, #1
 1687 0008 FFF7FEFF 		bl	Color_S0_Write
 1688              	.LVL240:
 584:main.c        **** 	start_measure();
ARM GAS  C:\Users\pasan savindu\AppData\Local\Temp\ccY2T3Z5.s 			page 42


 1689              		.loc 1 584 0
 1690 000c 0020     		movs	r0, #0
 1691 000e FFF7FEFF 		bl	Color_S1_Write
 1692              	.LVL241:
 585:main.c        **** 	while (!dataReady) 
 1693              		.loc 1 585 0
 1694 0012 FFF7FEFF 		bl	start_measure
 1695              	.LVL242:
 1696              	.L147:
 586:main.c        ****     {
 1697              		.loc 1 586 0 discriminator 1
 1698 0016 034B     		ldr	r3, .L149
 1699 0018 9B68     		ldr	r3, [r3, #8]
 1700 001a 002B     		cmp	r3, #0
 1701 001c FBD0     		beq	.L147
 591:main.c        **** 
 1702              		.loc 1 591 0
 1703 001e 014B     		ldr	r3, .L149
 1704 0020 9888     		ldrh	r0, [r3, #4]
 1705 0022 08BD     		pop	{r3, pc}
 1706              	.L150:
 1707              		.align	2
 1708              	.L149:
 1709 0024 00000000 		.word	.LANCHOR1
 1710              		.cfi_endproc
 1711              	.LFE80:
 1712              		.size	get_frequency, .-get_frequency
 1713              		.section	.text.color_sense,"ax",%progbits
 1714              		.align	2
 1715              		.global	color_sense
 1716              		.thumb
 1717              		.thumb_func
 1718              		.type	color_sense, %function
 1719              	color_sense:
 1720              	.LFB79:
 552:main.c        **** 	uint freq = 0;
 1721              		.loc 1 552 0
 1722              		.cfi_startproc
 1723              		@ args = 0, pretend = 0, frame = 16
 1724              		@ frame_needed = 0, uses_anonymous_args = 0
 1725 0000 10B5     		push	{r4, lr}
 1726              		.cfi_def_cfa_offset 8
 1727              		.cfi_offset 4, -8
 1728              		.cfi_offset 14, -4
 1729 0002 84B0     		sub	sp, sp, #16
 1730              		.cfi_def_cfa_offset 24
 1731              	.LVL243:
 1732              	.LBB2:
 556:main.c        **** 	{
 1733              		.loc 1 556 0
 1734 0004 0024     		movs	r4, #0
 1735 0006 08E0     		b	.L152
 1736              	.LVL244:
 1737              	.L153:
 558:main.c        **** 		RGB_freq[color_sense] = freq;
 1738              		.loc 1 558 0 discriminator 3
 1739 0008 2046     		mov	r0, r4
ARM GAS  C:\Users\pasan savindu\AppData\Local\Temp\ccY2T3Z5.s 			page 43


 1740 000a FFF7FEFF 		bl	get_frequency
 1741              	.LVL245:
 559:main.c        **** 	}
 1742              		.loc 1 559 0 discriminator 3
 1743 000e 04AB     		add	r3, sp, #16
 1744 0010 03EB8403 		add	r3, r3, r4, lsl #2
 1745 0014 43F8100C 		str	r0, [r3, #-16]
 556:main.c        **** 	{
 1746              		.loc 1 556 0 discriminator 3
 1747 0018 0134     		adds	r4, r4, #1
 1748              	.LVL246:
 1749              	.L152:
 556:main.c        **** 	{
 1750              		.loc 1 556 0 is_stmt 0 discriminator 1
 1751 001a 032C     		cmp	r4, #3
 1752 001c F4DD     		ble	.L153
 1753              	.LBE2:
 562:main.c        **** 	{
 1754              		.loc 1 562 0 is_stmt 1
 1755 001e 009A     		ldr	r2, [sp]
 1756 0020 019B     		ldr	r3, [sp, #4]
 1757 0022 9A42     		cmp	r2, r3
 1758 0024 04DD     		ble	.L154
 564:main.c        **** 			return 1;
 1759              		.loc 1 564 0
 1760 0026 039B     		ldr	r3, [sp, #12]
 1761 0028 9A42     		cmp	r2, r3
 1762 002a 06DD     		ble	.L156
 565:main.c        **** 		}
 1763              		.loc 1 565 0
 1764 002c 0120     		movs	r0, #1
 1765 002e 07E0     		b	.L155
 1766              	.L154:
 571:main.c        **** 	{
 1767              		.loc 1 571 0
 1768 0030 039A     		ldr	r2, [sp, #12]
 1769 0032 9342     		cmp	r3, r2
 1770 0034 03DD     		ble	.L157
 573:main.c        **** 	}
 1771              		.loc 1 573 0
 1772 0036 0320     		movs	r0, #3
 1773 0038 02E0     		b	.L155
 1774              	.L156:
 568:main.c        **** 		}
 1775              		.loc 1 568 0
 1776 003a 0220     		movs	r0, #2
 1777 003c 00E0     		b	.L155
 1778              	.L157:
 576:main.c        **** 	}
 1779              		.loc 1 576 0
 1780 003e 0220     		movs	r0, #2
 1781              	.L155:
 578:main.c        **** 
 1782              		.loc 1 578 0
 1783 0040 04B0     		add	sp, sp, #16
 1784              		.cfi_def_cfa_offset 8
 1785              		@ sp needed
ARM GAS  C:\Users\pasan savindu\AppData\Local\Temp\ccY2T3Z5.s 			page 44


 1786 0042 10BD     		pop	{r4, pc}
 1787              		.cfi_endproc
 1788              	.LFE79:
 1789              		.size	color_sense, .-color_sense
 1790              		.global	__aeabi_i2d
 1791              		.global	__aeabi_dcmpgt
 1792              		.global	__aeabi_dsub
 1793              		.global	__aeabi_dcmplt
 1794              		.global	__aeabi_dadd
 1795              		.global	__aeabi_dmul
 1796              		.global	__aeabi_d2iz
 1797              		.section	.text.compass,"ax",%progbits
 1798              		.align	2
 1799              		.global	compass
 1800              		.thumb
 1801              		.thumb_func
 1802              		.type	compass, %function
 1803              	compass:
 1804              	.LFB82:
 611:main.c        **** 		break;
 612:main.c        **** 	default:
 613:main.c        **** 		break;
 614:main.c        **** 	}
 615:main.c        **** }
 616:main.c        **** 
 617:main.c        **** //For compass 
 618:main.c        **** void compass(){
 1805              		.loc 1 618 0
 1806              		.cfi_startproc
 1807              		@ args = 0, pretend = 0, frame = 0
 1808              		@ frame_needed = 0, uses_anonymous_args = 0
 1809 0000 2DE9F843 		push	{r3, r4, r5, r6, r7, r8, r9, lr}
 1810              		.cfi_def_cfa_offset 32
 1811              		.cfi_offset 3, -32
 1812              		.cfi_offset 4, -28
 1813              		.cfi_offset 5, -24
 1814              		.cfi_offset 6, -20
 1815              		.cfi_offset 7, -16
 1816              		.cfi_offset 8, -12
 1817              		.cfi_offset 9, -8
 1818              		.cfi_offset 14, -4
 1819              	.LVL247:
 619:main.c        ****             //UART_PutString("hi\n");
 620:main.c        ****     
 621:main.c        ****     
 622:main.c        ****     int16 array[6]; //create an array to get x,y,z coordinates
 623:main.c        ****     //int16 x;
 624:main.c        ****     int16 y;
 625:main.c        ****     int16 z;
 626:main.c        ****     double orientation;
 627:main.c        ****     int temp =0;
 628:main.c        ****     
 629:main.c        ****     I2C_MasterSendStart(DeviceID,I2C_WRITE_XFER_MODE);
 1820              		.loc 1 629 0
 1821 0004 0021     		movs	r1, #0
 1822 0006 0D20     		movs	r0, #13
 1823 0008 FFF7FEFF 		bl	I2C_MasterSendStart
ARM GAS  C:\Users\pasan savindu\AppData\Local\Temp\ccY2T3Z5.s 			page 45


 1824              	.LVL248:
 630:main.c        ****     I2C_MasterWriteByte(0x0B);
 1825              		.loc 1 630 0
 1826 000c 0B20     		movs	r0, #11
 1827 000e FFF7FEFF 		bl	I2C_MasterWriteByte
 1828              	.LVL249:
 631:main.c        ****     I2C_MasterWriteByte(0X01);
 1829              		.loc 1 631 0
 1830 0012 0120     		movs	r0, #1
 1831 0014 FFF7FEFF 		bl	I2C_MasterWriteByte
 1832              	.LVL250:
 632:main.c        ****     I2C_MasterSendStop();
 1833              		.loc 1 632 0
 1834 0018 FFF7FEFF 		bl	I2C_MasterSendStop
 1835              	.LVL251:
 633:main.c        ****     CyDelay(100);
 1836              		.loc 1 633 0
 1837 001c 6420     		movs	r0, #100
 1838 001e FFF7FEFF 		bl	CyDelay
 1839              	.LVL252:
 634:main.c        ****     
 635:main.c        ****     I2C_MasterSendStart(DeviceID,I2C_WRITE_XFER_MODE);
 1840              		.loc 1 635 0
 1841 0022 0021     		movs	r1, #0
 1842 0024 0D20     		movs	r0, #13
 1843 0026 FFF7FEFF 		bl	I2C_MasterSendStart
 1844              	.LVL253:
 636:main.c        ****     I2C_MasterWriteByte(0x09);
 1845              		.loc 1 636 0
 1846 002a 0920     		movs	r0, #9
 1847 002c FFF7FEFF 		bl	I2C_MasterWriteByte
 1848              	.LVL254:
 637:main.c        ****     I2C_MasterWriteByte(0X1D);
 1849              		.loc 1 637 0
 1850 0030 1D20     		movs	r0, #29
 1851 0032 FFF7FEFF 		bl	I2C_MasterWriteByte
 1852              	.LVL255:
 638:main.c        ****     I2C_MasterSendStop();
 1853              		.loc 1 638 0
 1854 0036 FFF7FEFF 		bl	I2C_MasterSendStop
 1855              	.LVL256:
 639:main.c        ****     CyDelay(100);
 1856              		.loc 1 639 0
 1857 003a 6420     		movs	r0, #100
 1858 003c FFF7FEFF 		bl	CyDelay
 1859              	.LVL257:
 627:main.c        ****     
 1860              		.loc 1 627 0
 1861 0040 0026     		movs	r6, #0
 640:main.c        ****     
 641:main.c        ****     //for (;;)
 642:main.c        ****     while (temp==0)
 1862              		.loc 1 642 0
 1863 0042 B6E0     		b	.L160
 1864              	.LVL258:
 1865              	.L177:
 643:main.c        ****     {
ARM GAS  C:\Users\pasan savindu\AppData\Local\Temp\ccY2T3Z5.s 			page 46


 644:main.c        ****         //motorcontrl('F');
 645:main.c        ****         //UART_PutString("hi\n");
 646:main.c        ****         I2C_MasterSendStart(DeviceID,I2C_WRITE_XFER_MODE);
 1866              		.loc 1 646 0
 1867 0044 0021     		movs	r1, #0
 1868 0046 0D20     		movs	r0, #13
 1869 0048 FFF7FEFF 		bl	I2C_MasterSendStart
 1870              	.LVL259:
 647:main.c        ****         I2C_MasterWriteByte(0x00);
 1871              		.loc 1 647 0
 1872 004c 0020     		movs	r0, #0
 1873 004e FFF7FEFF 		bl	I2C_MasterWriteByte
 1874              	.LVL260:
 648:main.c        ****         I2C_MasterSendStop();
 1875              		.loc 1 648 0
 1876 0052 FFF7FEFF 		bl	I2C_MasterSendStop
 1877              	.LVL261:
 649:main.c        ****         
 650:main.c        ****         //Send read Data.
 651:main.c        ****         I2C_MasterSendStart(DeviceID,I2C_READ_XFER_MODE);
 1878              		.loc 1 651 0
 1879 0056 0121     		movs	r1, #1
 1880 0058 0D20     		movs	r0, #13
 1881 005a FFF7FEFF 		bl	I2C_MasterSendStart
 1882              	.LVL262:
 652:main.c        ****         array[0] = I2C_MasterReadByte(I2C_ACK_DATA);
 1883              		.loc 1 652 0
 1884 005e 0120     		movs	r0, #1
 1885 0060 FFF7FEFF 		bl	I2C_MasterReadByte
 1886              	.LVL263:
 653:main.c        ****         array[1] = I2C_MasterReadByte(I2C_ACK_DATA);
 1887              		.loc 1 653 0
 1888 0064 0120     		movs	r0, #1
 1889 0066 FFF7FEFF 		bl	I2C_MasterReadByte
 1890              	.LVL264:
 654:main.c        ****         array[2] = I2C_MasterReadByte(I2C_ACK_DATA);
 1891              		.loc 1 654 0
 1892 006a 0120     		movs	r0, #1
 1893 006c FFF7FEFF 		bl	I2C_MasterReadByte
 1894              	.LVL265:
 1895 0070 04B2     		sxth	r4, r0
 655:main.c        ****         array[3] = I2C_MasterReadByte(I2C_ACK_DATA);
 1896              		.loc 1 655 0
 1897 0072 0120     		movs	r0, #1
 1898 0074 FFF7FEFF 		bl	I2C_MasterReadByte
 1899              	.LVL266:
 1900 0078 0FFA80F8 		sxth	r8, r0
 656:main.c        ****         array[4] = I2C_MasterReadByte(I2C_ACK_DATA);
 1901              		.loc 1 656 0
 1902 007c 0120     		movs	r0, #1
 1903 007e FFF7FEFF 		bl	I2C_MasterReadByte
 1904              	.LVL267:
 1905 0082 05B2     		sxth	r5, r0
 657:main.c        ****         array[5] = I2C_MasterReadByte(I2C_NAK_DATA);
 1906              		.loc 1 657 0
 1907 0084 0020     		movs	r0, #0
 1908 0086 FFF7FEFF 		bl	I2C_MasterReadByte
ARM GAS  C:\Users\pasan savindu\AppData\Local\Temp\ccY2T3Z5.s 			page 47


 1909              	.LVL268:
 1910 008a 07B2     		sxth	r7, r0
 658:main.c        ****         I2C_MasterSendStop();
 1911              		.loc 1 658 0
 1912 008c FFF7FEFF 		bl	I2C_MasterSendStop
 1913              	.LVL269:
 659:main.c        ****         
 660:main.c        ****         //x = array[1]<<8|array[0]; //x-value //shift to left by 8 bits 
 661:main.c        **** 	    y = array[3]<<8|array[2]; //z-value //shift to left by 8 bits 
 1914              		.loc 1 661 0
 1915 0090 44EA0824 		orr	r4, r4, r8, lsl #8
 1916 0094 24B2     		sxth	r4, r4
 1917              	.LVL270:
 662:main.c        **** 	    z = array[5]<<8|array[4]; //y-value //shift to left by 8 bits
 1918              		.loc 1 662 0
 1919 0096 45EA0720 		orr	r0, r5, r7, lsl #8
 1920              	.LVL271:
 663:main.c        ****         orientation = atan2(z,y);
 1921              		.loc 1 663 0
 1922 009a 00B2     		sxth	r0, r0
 1923 009c FFF7FEFF 		bl	__aeabi_i2d
 1924              	.LVL272:
 1925 00a0 8046     		mov	r8, r0
 1926 00a2 8946     		mov	r9, r1
 1927 00a4 2046     		mov	r0, r4
 1928 00a6 FFF7FEFF 		bl	__aeabi_i2d
 1929              	.LVL273:
 1930 00aa 0246     		mov	r2, r0
 1931 00ac 0B46     		mov	r3, r1
 1932 00ae 4046     		mov	r0, r8
 1933 00b0 4946     		mov	r1, r9
 1934 00b2 FFF7FEFF 		bl	atan2
 1935              	.LVL274:
 1936 00b6 0446     		mov	r4, r0
 1937              	.LVL275:
 1938 00b8 0D46     		mov	r5, r1
 1939              	.LVL276:
 664:main.c        ****         if (orientation>2*3.14)
 1940              		.loc 1 664 0
 1941 00ba 41A3     		adr	r3, .L190
 1942 00bc D3E90023 		ldrd	r2, [r3]
 1943 00c0 FFF7FEFF 		bl	__aeabi_dcmpgt
 1944              	.LVL277:
 1945 00c4 48B1     		cbz	r0, .L188
 665:main.c        ****         {
 666:main.c        ****         orientation -= 2*3.14;
 1946              		.loc 1 666 0
 1947 00c6 3EA3     		adr	r3, .L190
 1948 00c8 D3E90023 		ldrd	r2, [r3]
 1949 00cc 2046     		mov	r0, r4
 1950 00ce 2946     		mov	r1, r5
 1951 00d0 FFF7FEFF 		bl	__aeabi_dsub
 1952              	.LVL278:
 1953 00d4 0446     		mov	r4, r0
 1954              	.LVL279:
 1955 00d6 0D46     		mov	r5, r1
 1956              	.LVL280:
ARM GAS  C:\Users\pasan savindu\AppData\Local\Temp\ccY2T3Z5.s 			page 48


 1957 00d8 0FE0     		b	.L163
 1958              	.L188:
 667:main.c        ****         }
 668:main.c        ****         else if (orientation<0)
 1959              		.loc 1 668 0
 1960 00da 0022     		movs	r2, #0
 1961 00dc 0023     		movs	r3, #0
 1962 00de 2046     		mov	r0, r4
 1963 00e0 2946     		mov	r1, r5
 1964 00e2 FFF7FEFF 		bl	__aeabi_dcmplt
 1965              	.LVL281:
 1966 00e6 40B1     		cbz	r0, .L163
 669:main.c        ****         {
 670:main.c        ****         orientation += 2*3.14;
 1967              		.loc 1 670 0
 1968 00e8 35A3     		adr	r3, .L190
 1969 00ea D3E90023 		ldrd	r2, [r3]
 1970 00ee 2046     		mov	r0, r4
 1971 00f0 2946     		mov	r1, r5
 1972 00f2 FFF7FEFF 		bl	__aeabi_dadd
 1973              	.LVL282:
 1974 00f6 0446     		mov	r4, r0
 1975              	.LVL283:
 1976 00f8 0D46     		mov	r5, r1
 1977              	.LVL284:
 1978              	.L163:
 671:main.c        ****         }
 672:main.c        ****         orientation = orientation*(180/3.14) ;//To get the angle
 1979              		.loc 1 672 0
 1980 00fa 33A3     		adr	r3, .L190+8
 1981 00fc D3E90023 		ldrd	r2, [r3]
 1982 0100 2046     		mov	r0, r4
 1983 0102 2946     		mov	r1, r5
 1984 0104 FFF7FEFF 		bl	__aeabi_dmul
 1985              	.LVL285:
 1986 0108 0446     		mov	r4, r0
 1987              	.LVL286:
 1988 010a 0D46     		mov	r5, r1
 1989              	.LVL287:
 673:main.c        ****         sprintf(string1,"%d \n",(int)orientation);
 1990              		.loc 1 673 0
 1991 010c FFF7FEFF 		bl	__aeabi_d2iz
 1992              	.LVL288:
 1993 0110 2F4F     		ldr	r7, .L190+16
 1994 0112 0246     		mov	r2, r0
 1995 0114 2F49     		ldr	r1, .L190+20
 1996 0116 3846     		mov	r0, r7
 1997 0118 FFF7FEFF 		bl	sprintf
 1998              	.LVL289:
 674:main.c        ****         UART_PutString(string1);
 1999              		.loc 1 674 0
 2000 011c 3846     		mov	r0, r7
 2001 011e FFF7FEFF 		bl	UART_PutString
 2002              	.LVL290:
 675:main.c        ****         CyDelay(200);
 2003              		.loc 1 675 0
 2004 0122 C820     		movs	r0, #200
ARM GAS  C:\Users\pasan savindu\AppData\Local\Temp\ccY2T3Z5.s 			page 49


 2005 0124 FFF7FEFF 		bl	CyDelay
 2006              	.LVL291:
 676:main.c        ****         if (orientation>180 && orientation<360)
 2007              		.loc 1 676 0
 2008 0128 0022     		movs	r2, #0
 2009 012a 2B4B     		ldr	r3, .L190+24
 2010 012c 2046     		mov	r0, r4
 2011 012e 2946     		mov	r1, r5
 2012 0130 FFF7FEFF 		bl	__aeabi_dcmpgt
 2013              	.LVL292:
 2014 0134 48B1     		cbz	r0, .L165
 2015              		.loc 1 676 0 is_stmt 0 discriminator 1
 2016 0136 0022     		movs	r2, #0
 2017 0138 284B     		ldr	r3, .L190+28
 2018 013a 2046     		mov	r0, r4
 2019 013c 2946     		mov	r1, r5
 2020 013e FFF7FEFF 		bl	__aeabi_dcmplt
 2021              	.LVL293:
 2022 0142 10B1     		cbz	r0, .L165
 677:main.c        ****         {
 678:main.c        ****            motorcontrl('R');
 2023              		.loc 1 678 0 is_stmt 1
 2024 0144 5220     		movs	r0, #82
 2025 0146 FFF7FEFF 		bl	motorcontrl
 2026              	.LVL294:
 2027              	.L165:
 679:main.c        ****         }
 680:main.c        ****         if (orientation<180 && orientation>28)
 2028              		.loc 1 680 0
 2029 014a 0022     		movs	r2, #0
 2030 014c 224B     		ldr	r3, .L190+24
 2031 014e 2046     		mov	r0, r4
 2032 0150 2946     		mov	r1, r5
 2033 0152 FFF7FEFF 		bl	__aeabi_dcmplt
 2034              	.LVL295:
 2035 0156 48B1     		cbz	r0, .L168
 2036              		.loc 1 680 0 is_stmt 0 discriminator 1
 2037 0158 0022     		movs	r2, #0
 2038 015a 214B     		ldr	r3, .L190+32
 2039 015c 2046     		mov	r0, r4
 2040 015e 2946     		mov	r1, r5
 2041 0160 FFF7FEFF 		bl	__aeabi_dcmpgt
 2042              	.LVL296:
 2043 0164 10B1     		cbz	r0, .L168
 681:main.c        ****         {
 682:main.c        ****             motorcontrl('L');
 2044              		.loc 1 682 0 is_stmt 1
 2045 0166 4C20     		movs	r0, #76
 2046 0168 FFF7FEFF 		bl	motorcontrl
 2047              	.LVL297:
 2048              	.L168:
 683:main.c        ****         }
 684:main.c        ****           if (orientation>0 && orientation<22)
 2049              		.loc 1 684 0
 2050 016c 0022     		movs	r2, #0
 2051 016e 0023     		movs	r3, #0
 2052 0170 2046     		mov	r0, r4
ARM GAS  C:\Users\pasan savindu\AppData\Local\Temp\ccY2T3Z5.s 			page 50


 2053 0172 2946     		mov	r1, r5
 2054 0174 FFF7FEFF 		bl	__aeabi_dcmpgt
 2055              	.LVL298:
 2056 0178 48B1     		cbz	r0, .L171
 2057              		.loc 1 684 0 is_stmt 0 discriminator 1
 2058 017a 0022     		movs	r2, #0
 2059 017c 194B     		ldr	r3, .L190+36
 2060 017e 2046     		mov	r0, r4
 2061 0180 2946     		mov	r1, r5
 2062 0182 FFF7FEFF 		bl	__aeabi_dcmplt
 2063              	.LVL299:
 2064 0186 10B1     		cbz	r0, .L171
 685:main.c        ****         {
 686:main.c        ****            motorcontrl('R');
 2065              		.loc 1 686 0 is_stmt 1
 2066 0188 5220     		movs	r0, #82
 2067 018a FFF7FEFF 		bl	motorcontrl
 2068              	.LVL300:
 2069              	.L171:
 687:main.c        ****         }
 688:main.c        ****         if (orientation<28 && orientation>22) 
 2070              		.loc 1 688 0
 2071 018e 0022     		movs	r2, #0
 2072 0190 134B     		ldr	r3, .L190+32
 2073 0192 2046     		mov	r0, r4
 2074 0194 2946     		mov	r1, r5
 2075 0196 FFF7FEFF 		bl	__aeabi_dcmplt
 2076              	.LVL301:
 2077 019a 50B1     		cbz	r0, .L160
 2078              		.loc 1 688 0 is_stmt 0 discriminator 1
 2079 019c 0022     		movs	r2, #0
 2080 019e 114B     		ldr	r3, .L190+36
 2081 01a0 2046     		mov	r0, r4
 2082 01a2 2946     		mov	r1, r5
 2083 01a4 FFF7FEFF 		bl	__aeabi_dcmpgt
 2084              	.LVL302:
 2085 01a8 18B1     		cbz	r0, .L160
 689:main.c        ****         {
 690:main.c        ****             motorcontrl('S');
 2086              		.loc 1 690 0 is_stmt 1
 2087 01aa 5320     		movs	r0, #83
 2088 01ac FFF7FEFF 		bl	motorcontrl
 2089              	.LVL303:
 691:main.c        ****             temp =1;
 2090              		.loc 1 691 0
 2091 01b0 0126     		movs	r6, #1
 2092              	.LVL304:
 2093              	.L160:
 642:main.c        ****     {
 2094              		.loc 1 642 0
 2095 01b2 002E     		cmp	r6, #0
 2096 01b4 3FF446AF 		beq	.L177
 692:main.c        ****         }
 693:main.c        ****     }
 694:main.c        **** }
 2097              		.loc 1 694 0
 2098 01b8 BDE8F883 		pop	{r3, r4, r5, r6, r7, r8, r9, pc}
ARM GAS  C:\Users\pasan savindu\AppData\Local\Temp\ccY2T3Z5.s 			page 51


 2099              	.LVL305:
 2100              	.L191:
 2101 01bc AFF30080 		.align	3
 2102              	.L190:
 2103 01c0 1F85EB51 		.word	1374389535
 2104 01c4 B81E1940 		.word	1075388088
 2105 01c8 E79AD561 		.word	1641388775
 2106 01cc 94A94C40 		.word	1078765972
 2107 01d0 00000000 		.word	string1
 2108 01d4 00000000 		.word	.LC0
 2109 01d8 00806640 		.word	1080459264
 2110 01dc 00807640 		.word	1081507840
 2111 01e0 00003C40 		.word	1077673984
 2112 01e4 00003640 		.word	1077280768
 2113              		.cfi_endproc
 2114              	.LFE82:
 2115              		.size	compass, .-compass
 2116              		.section	.text.baseRoute,"ax",%progbits
 2117              		.align	2
 2118              		.global	baseRoute
 2119              		.thumb
 2120              		.thumb_func
 2121              		.type	baseRoute, %function
 2122              	baseRoute:
 2123              	.LFB83:
 695:main.c        **** //Route for Base to Puck Collection Zone
 696:main.c        **** void baseRoute(int Base){
 2124              		.loc 1 696 0
 2125              		.cfi_startproc
 2126              		@ args = 0, pretend = 0, frame = 0
 2127              		@ frame_needed = 0, uses_anonymous_args = 0
 2128              	.LVL306:
 2129 0000 08B5     		push	{r3, lr}
 2130              		.cfi_def_cfa_offset 8
 2131              		.cfi_offset 3, -8
 2132              		.cfi_offset 14, -4
 697:main.c        ****     if(Base==1) // Base 01 - Upper Left Corner & Lower Right Corner
 2133              		.loc 1 697 0
 2134 0002 0128     		cmp	r0, #1
 2135 0004 14D1     		bne	.L193
 698:main.c        ****     {
 699:main.c        ****         move_straight('F',45000);//Come out of the base
 2136              		.loc 1 699 0
 2137 0006 4AF6C871 		movw	r1, #45000
 2138 000a 4620     		movs	r0, #70
 2139              	.LVL307:
 2140 000c FFF7FEFF 		bl	move_straight
 2141              	.LVL308:
 700:main.c        ****         turn('R',R_DEGREE);
 2142              		.loc 1 700 0
 2143 0010 43F67A71 		movw	r1, #16250
 2144 0014 5220     		movs	r0, #82
 2145 0016 FFF7FEFF 		bl	turn
 2146              	.LVL309:
 701:main.c        ****         move_straight('F',12000);
 2147              		.loc 1 701 0
 2148 001a 42F6E061 		movw	r1, #12000
ARM GAS  C:\Users\pasan savindu\AppData\Local\Temp\ccY2T3Z5.s 			page 52


 2149 001e 4620     		movs	r0, #70
 2150 0020 FFF7FEFF 		bl	move_straight
 2151              	.LVL310:
 702:main.c        ****         turn('L',L_DEGREE);
 2152              		.loc 1 702 0
 2153 0024 43F2C231 		movw	r1, #13250
 2154 0028 4C20     		movs	r0, #76
 2155 002a FFF7FEFF 		bl	turn
 2156              	.LVL311:
 2157 002e 15E0     		b	.L194
 2158              	.LVL312:
 2159              	.L193:
 703:main.c        ****     }
 704:main.c        ****     else if (Base ==2) // Base 02 - Upper Right Corner & Lower Left Corner
 2160              		.loc 1 704 0
 2161 0030 0228     		cmp	r0, #2
 2162 0032 13D1     		bne	.L194
 705:main.c        ****     {
 706:main.c        ****         move_straight('F',45000);
 2163              		.loc 1 706 0
 2164 0034 4AF6C871 		movw	r1, #45000
 2165 0038 4620     		movs	r0, #70
 2166              	.LVL313:
 2167 003a FFF7FEFF 		bl	move_straight
 2168              	.LVL314:
 707:main.c        ****         turn('L',L_DEGREE);
 2169              		.loc 1 707 0
 2170 003e 43F2C231 		movw	r1, #13250
 2171 0042 4C20     		movs	r0, #76
 2172 0044 FFF7FEFF 		bl	turn
 2173              	.LVL315:
 708:main.c        ****         move_straight('F',12000);
 2174              		.loc 1 708 0
 2175 0048 42F6E061 		movw	r1, #12000
 2176 004c 4620     		movs	r0, #70
 2177 004e FFF7FEFF 		bl	move_straight
 2178              	.LVL316:
 709:main.c        ****         turn('R',L_DEGREE);
 2179              		.loc 1 709 0
 2180 0052 43F2C231 		movw	r1, #13250
 2181 0056 5220     		movs	r0, #82
 2182 0058 FFF7FEFF 		bl	turn
 2183              	.LVL317:
 2184              	.L194:
 710:main.c        ****     }
 711:main.c        ****   state++;  
 2185              		.loc 1 711 0
 2186 005c 024A     		ldr	r2, .L196
 2187 005e 137B     		ldrb	r3, [r2, #12]	@ zero_extendqisi2
 2188 0060 0133     		adds	r3, r3, #1
 2189 0062 1373     		strb	r3, [r2, #12]
 2190 0064 08BD     		pop	{r3, pc}
 2191              	.L197:
 2192 0066 00BF     		.align	2
 2193              	.L196:
 2194 0068 00000000 		.word	.LANCHOR1
 2195              		.cfi_endproc
ARM GAS  C:\Users\pasan savindu\AppData\Local\Temp\ccY2T3Z5.s 			page 53


 2196              	.LFE83:
 2197              		.size	baseRoute, .-baseRoute
 2198              		.section	.text.searchPuck,"ax",%progbits
 2199              		.align	2
 2200              		.global	searchPuck
 2201              		.thumb
 2202              		.thumb_func
 2203              		.type	searchPuck, %function
 2204              	searchPuck:
 2205              	.LFB84:
 712:main.c        **** }
 713:main.c        **** 
 714:main.c        **** //Searching the within the Zone.
 715:main.c        **** void searchPuck(){ //This function needs reconstruction.
 2206              		.loc 1 715 0
 2207              		.cfi_startproc
 2208              		@ args = 0, pretend = 0, frame = 0
 2209              		@ frame_needed = 0, uses_anonymous_args = 0
 2210 0000 38B5     		push	{r3, r4, r5, lr}
 2211              		.cfi_def_cfa_offset 16
 2212              		.cfi_offset 3, -16
 2213              		.cfi_offset 4, -12
 2214              		.cfi_offset 5, -8
 2215              		.cfi_offset 14, -4
 716:main.c        ****    
 717:main.c        ****     QuadDec_L_SetCounter(0);
 2216              		.loc 1 717 0
 2217 0002 0020     		movs	r0, #0
 2218 0004 FFF7FEFF 		bl	QuadDec_L_SetCounter
 2219              	.LVL318:
 718:main.c        ****     QuadDec_R_SetCounter(0);
 2220              		.loc 1 718 0
 2221 0008 0020     		movs	r0, #0
 2222 000a FFF7FEFF 		bl	QuadDec_R_SetCounter
 2223              	.LVL319:
 719:main.c        ****     countL=0;
 2224              		.loc 1 719 0
 2225 000e C54D     		ldr	r5, .L229
 2226 0010 0024     		movs	r4, #0
 2227 0012 2C60     		str	r4, [r5]
 720:main.c        ****     countR=0;
 2228              		.loc 1 720 0
 2229 0014 C44B     		ldr	r3, .L229+4
 2230 0016 1C60     		str	r4, [r3]
 721:main.c        ****     countL = QuadDec_L_GetCounter();
 2231              		.loc 1 721 0
 2232 0018 FFF7FEFF 		bl	QuadDec_L_GetCounter
 2233              	.LVL320:
 2234 001c 2860     		str	r0, [r5]
 722:main.c        ****     S1_distance=S2_distance=OPPONENT;
 2235              		.loc 1 722 0
 2236 001e C34B     		ldr	r3, .L229+8
 2237 0020 0F22     		movs	r2, #15
 2238 0022 5A60     		str	r2, [r3, #4]
 2239 0024 1A60     		str	r2, [r3]
 723:main.c        ****     
 724:main.c        ****     RobotArm_Servo_WriteCompare2(500);//Gripper Closes Up
ARM GAS  C:\Users\pasan savindu\AppData\Local\Temp\ccY2T3Z5.s 			page 54


 2240              		.loc 1 724 0
 2241 0026 4FF4FA70 		mov	r0, #500
 2242 002a FFF7FEFF 		bl	RobotArm_Servo_WriteCompare2
 2243              	.LVL321:
 725:main.c        ****     //CyDelay(1000);
 726:main.c        ****     RobotArm_Servo_WriteCompare1(700);//Tower Goes Down
 2244              		.loc 1 726 0
 2245 002e 4FF42F70 		mov	r0, #700
 2246 0032 FFF7FEFF 		bl	RobotArm_Servo_WriteCompare1
 2247              	.LVL322:
 727:main.c        ****     CyDelay(500);
 2248              		.loc 1 727 0
 2249 0036 4FF4FA70 		mov	r0, #500
 2250 003a FFF7FEFF 		bl	CyDelay
 2251              	.LVL323:
 728:main.c        ****     RobotArm_Servo_WriteCompare2(950);//Gripper Opens Up
 2252              		.loc 1 728 0
 2253 003e 40F2B630 		movw	r0, #950
 2254 0042 FFF7FEFF 		bl	RobotArm_Servo_WriteCompare2
 2255              	.LVL324:
 729:main.c        ****     CyDelay(500);
 2256              		.loc 1 729 0
 2257 0046 4FF4FA70 		mov	r0, #500
 2258 004a FFF7FEFF 		bl	CyDelay
 2259              	.LVL325:
 730:main.c        ****    
 731:main.c        ****    int reverse=0;
 732:main.c        ****    int temp=0;
 733:main.c        ****    while(temp==0)
 2260              		.loc 1 733 0
 2261 004e 64E1     		b	.L199
 2262              	.LVL326:
 2263              	.L225:
 734:main.c        ****    {
 735:main.c        ****    if(IR_Out_Read()==1)
 2264              		.loc 1 735 0
 2265 0050 FFF7FEFF 		bl	IR_Out_Read
 2266              	.LVL327:
 2267 0054 0128     		cmp	r0, #1
 2268 0056 40F00C81 		bne	.L200
 736:main.c        ****     {   
 737:main.c        ****       if((obstacle1==0)||(obstacle2==0))
 2269              		.loc 1 737 0
 2270 005a B54B     		ldr	r3, .L229+12
 2271 005c 93F90030 		ldrsb	r3, [r3]
 2272 0060 1BB1     		cbz	r3, .L201
 2273              		.loc 1 737 0 is_stmt 0 discriminator 1
 2274 0062 B34B     		ldr	r3, .L229+12
 2275 0064 93F90130 		ldrsb	r3, [r3, #1]
 2276 0068 13B9     		cbnz	r3, .L202
 2277              	.L201:
 738:main.c        ****         {
 739:main.c        ****           motorcontrl('F');
 2278              		.loc 1 739 0 is_stmt 1
 2279 006a 4620     		movs	r0, #70
 2280 006c FFF7FEFF 		bl	motorcontrl
 2281              	.LVL328:
ARM GAS  C:\Users\pasan savindu\AppData\Local\Temp\ccY2T3Z5.s 			page 55


 2282              	.L202:
 740:main.c        ****         }
 741:main.c        ****      if ((obstacle2==1)||(obstacle1==1)) //What to do if confront another robot or the wall.
 2283              		.loc 1 741 0
 2284 0070 AF4B     		ldr	r3, .L229+12
 2285 0072 93F90130 		ldrsb	r3, [r3, #1]
 2286 0076 012B     		cmp	r3, #1
 2287 0078 04D0     		beq	.L203
 2288              		.loc 1 741 0 is_stmt 0 discriminator 1
 2289 007a AD4B     		ldr	r3, .L229+12
 2290 007c 93F90030 		ldrsb	r3, [r3]
 2291 0080 012B     		cmp	r3, #1
 2292 0082 78D1     		bne	.L204
 2293              	.L203:
 742:main.c        ****         {
 743:main.c        ****             motorcontrl('S');
 2294              		.loc 1 743 0 is_stmt 1
 2295 0084 5320     		movs	r0, #83
 2296 0086 FFF7FEFF 		bl	motorcontrl
 2297              	.LVL329:
 744:main.c        ****             reverse=countL;
 745:main.c        ****             move_straight('B',countL);
 2298              		.loc 1 745 0
 2299 008a A64B     		ldr	r3, .L229
 2300 008c 1968     		ldr	r1, [r3]
 2301 008e 4220     		movs	r0, #66
 2302 0090 FFF7FEFF 		bl	move_straight
 2303              	.LVL330:
 746:main.c        ****        if(Base ==1&&(position%2)==1) //Horizantal
 2304              		.loc 1 746 0
 2305 0094 A74B     		ldr	r3, .L229+16
 2306 0096 1B68     		ldr	r3, [r3]
 2307 0098 012B     		cmp	r3, #1
 2308 009a 19D1     		bne	.L205
 2309              		.loc 1 746 0 is_stmt 0 discriminator 1
 2310 009c A44B     		ldr	r3, .L229+12
 2311 009e 1B69     		ldr	r3, [r3, #16]
 2312 00a0 A54A     		ldr	r2, .L229+20
 2313 00a2 1340     		ands	r3, r3, r2
 2314 00a4 03D5     		bpl	.L206
 2315 00a6 013B     		subs	r3, r3, #1
 2316 00a8 63F00103 		orn	r3, r3, #1
 2317 00ac 0133     		adds	r3, r3, #1
 2318              	.L206:
 2319 00ae 012B     		cmp	r3, #1
 2320 00b0 0ED1     		bne	.L205
 747:main.c        ****          {
 748:main.c        ****         turn('L',L_DEGREE);
 2321              		.loc 1 748 0 is_stmt 1
 2322 00b2 43F2C231 		movw	r1, #13250
 2323 00b6 4C20     		movs	r0, #76
 2324 00b8 FFF7FEFF 		bl	turn
 2325              	.LVL331:
 749:main.c        ****         move_straight('F',20000);
 2326              		.loc 1 749 0
 2327 00bc 44F62061 		movw	r1, #20000
 2328 00c0 4620     		movs	r0, #70
ARM GAS  C:\Users\pasan savindu\AppData\Local\Temp\ccY2T3Z5.s 			page 56


 2329 00c2 FFF7FEFF 		bl	move_straight
 2330              	.LVL332:
 750:main.c        ****         turn('R',R_DEGREE);
 2331              		.loc 1 750 0
 2332 00c6 43F67A71 		movw	r1, #16250
 2333 00ca 5220     		movs	r0, #82
 2334 00cc FFF7FEFF 		bl	turn
 2335              	.LVL333:
 2336              	.L205:
 751:main.c        ****          }
 752:main.c        ****         if(Base ==1&&(position%2)==0)//Vertical
 2337              		.loc 1 752 0
 2338 00d0 984B     		ldr	r3, .L229+16
 2339 00d2 1B68     		ldr	r3, [r3]
 2340 00d4 012B     		cmp	r3, #1
 2341 00d6 13D1     		bne	.L207
 2342              		.loc 1 752 0 is_stmt 0 discriminator 1
 2343 00d8 954B     		ldr	r3, .L229+12
 2344 00da 1B69     		ldr	r3, [r3, #16]
 2345 00dc 13F0010F 		tst	r3, #1
 2346 00e0 0ED1     		bne	.L207
 753:main.c        ****          {
 754:main.c        ****         turn('R',R_DEGREE);
 2347              		.loc 1 754 0 is_stmt 1
 2348 00e2 43F67A71 		movw	r1, #16250
 2349 00e6 5220     		movs	r0, #82
 2350 00e8 FFF7FEFF 		bl	turn
 2351              	.LVL334:
 755:main.c        ****         move_straight('F',20000);
 2352              		.loc 1 755 0
 2353 00ec 44F62061 		movw	r1, #20000
 2354 00f0 4620     		movs	r0, #70
 2355 00f2 FFF7FEFF 		bl	move_straight
 2356              	.LVL335:
 756:main.c        ****         turn('L',L_DEGREE);
 2357              		.loc 1 756 0
 2358 00f6 43F2C231 		movw	r1, #13250
 2359 00fa 4C20     		movs	r0, #76
 2360 00fc FFF7FEFF 		bl	turn
 2361              	.LVL336:
 2362              	.L207:
 757:main.c        ****          }
 758:main.c        ****         if(Base ==2 &&(position%2)==1 )//Horizantal
 2363              		.loc 1 758 0
 2364 0100 8C4B     		ldr	r3, .L229+16
 2365 0102 1B68     		ldr	r3, [r3]
 2366 0104 022B     		cmp	r3, #2
 2367 0106 19D1     		bne	.L208
 2368              		.loc 1 758 0 is_stmt 0 discriminator 1
 2369 0108 894B     		ldr	r3, .L229+12
 2370 010a 1B69     		ldr	r3, [r3, #16]
 2371 010c 8A4A     		ldr	r2, .L229+20
 2372 010e 1340     		ands	r3, r3, r2
 2373 0110 03D5     		bpl	.L209
 2374 0112 013B     		subs	r3, r3, #1
 2375 0114 63F00103 		orn	r3, r3, #1
 2376 0118 0133     		adds	r3, r3, #1
ARM GAS  C:\Users\pasan savindu\AppData\Local\Temp\ccY2T3Z5.s 			page 57


 2377              	.L209:
 2378 011a 012B     		cmp	r3, #1
 2379 011c 0ED1     		bne	.L208
 759:main.c        ****         {
 760:main.c        ****         turn('R',R_DEGREE);
 2380              		.loc 1 760 0 is_stmt 1
 2381 011e 43F67A71 		movw	r1, #16250
 2382 0122 5220     		movs	r0, #82
 2383 0124 FFF7FEFF 		bl	turn
 2384              	.LVL337:
 761:main.c        ****         move_straight('F',20000);
 2385              		.loc 1 761 0
 2386 0128 44F62061 		movw	r1, #20000
 2387 012c 4620     		movs	r0, #70
 2388 012e FFF7FEFF 		bl	move_straight
 2389              	.LVL338:
 762:main.c        ****         turn('L',L_DEGREE);
 2390              		.loc 1 762 0
 2391 0132 43F2C231 		movw	r1, #13250
 2392 0136 4C20     		movs	r0, #76
 2393 0138 FFF7FEFF 		bl	turn
 2394              	.LVL339:
 2395              	.L208:
 763:main.c        ****         } 
 764:main.c        ****         if(Base ==2 &&(position%2)==0 )//Vertical
 2396              		.loc 1 764 0
 2397 013c 7D4B     		ldr	r3, .L229+16
 2398 013e 1B68     		ldr	r3, [r3]
 2399 0140 022B     		cmp	r3, #2
 2400 0142 15D1     		bne	.L226
 2401              		.loc 1 764 0 is_stmt 0 discriminator 1
 2402 0144 7A4B     		ldr	r3, .L229+12
 2403 0146 1B69     		ldr	r3, [r3, #16]
 2404 0148 13F0010F 		tst	r3, #1
 2405 014c 12D1     		bne	.L227
 765:main.c        ****         {
 766:main.c        ****         turn('L',L_DEGREE);
 2406              		.loc 1 766 0 is_stmt 1
 2407 014e 43F2C231 		movw	r1, #13250
 2408 0152 4C20     		movs	r0, #76
 2409 0154 FFF7FEFF 		bl	turn
 2410              	.LVL340:
 767:main.c        ****         move_straight('F',20000);
 2411              		.loc 1 767 0
 2412 0158 44F62061 		movw	r1, #20000
 2413 015c 4620     		movs	r0, #70
 2414 015e FFF7FEFF 		bl	move_straight
 2415              	.LVL341:
 768:main.c        ****         turn('R',R_DEGREE);
 2416              		.loc 1 768 0
 2417 0162 43F67A71 		movw	r1, #16250
 2418 0166 5220     		movs	r0, #82
 2419 0168 FFF7FEFF 		bl	turn
 2420              	.LVL342:
 769:main.c        ****         } 
 770:main.c        ****             temp=1;
 2421              		.loc 1 770 0
ARM GAS  C:\Users\pasan savindu\AppData\Local\Temp\ccY2T3Z5.s 			page 58


 2422 016c 0124     		movs	r4, #1
 2423              	.LVL343:
 2424 016e 02E0     		b	.L204
 2425              	.LVL344:
 2426              	.L226:
 2427 0170 0124     		movs	r4, #1
 2428              	.LVL345:
 2429 0172 00E0     		b	.L204
 2430              	.LVL346:
 2431              	.L227:
 2432 0174 0124     		movs	r4, #1
 2433              	.LVL347:
 2434              	.L204:
 771:main.c        ****         }
 772:main.c        **** //        if ((obstacle3==1)||(obstacle4==1))
 773:main.c        **** //        {
 774:main.c        **** //            move_straight('B',10000);
 775:main.c        **** //        }
 776:main.c        ****         if((countL > PUCK_END_ZONE)  || (countR> PUCK_END_ZONE))
 2435              		.loc 1 776 0
 2436 0176 6B4B     		ldr	r3, .L229
 2437 0178 1A68     		ldr	r2, [r3]
 2438 017a 704B     		ldr	r3, .L229+24
 2439 017c 9A42     		cmp	r2, r3
 2440 017e 04DC     		bgt	.L210
 2441              		.loc 1 776 0 is_stmt 0 discriminator 1
 2442 0180 694B     		ldr	r3, .L229+4
 2443 0182 1A68     		ldr	r2, [r3]
 2444 0184 6D4B     		ldr	r3, .L229+24
 2445 0186 9A42     		cmp	r2, r3
 2446 0188 73DD     		ble	.L200
 2447              	.L210:
 777:main.c        ****         {
 778:main.c        ****            motorcontrl('S');
 2448              		.loc 1 778 0 is_stmt 1
 2449 018a 5320     		movs	r0, #83
 2450 018c FFF7FEFF 		bl	motorcontrl
 2451              	.LVL348:
 779:main.c        ****            reverse=countL;
 780:main.c        ****            move_straight('B',countL);
 2452              		.loc 1 780 0
 2453 0190 644B     		ldr	r3, .L229
 2454 0192 1968     		ldr	r1, [r3]
 2455 0194 4220     		movs	r0, #66
 2456 0196 FFF7FEFF 		bl	move_straight
 2457              	.LVL349:
 781:main.c        ****         
 782:main.c        ****         if(Base ==1&&(position%2)==1) //Horizantal
 2458              		.loc 1 782 0
 2459 019a 664B     		ldr	r3, .L229+16
 2460 019c 1B68     		ldr	r3, [r3]
 2461 019e 012B     		cmp	r3, #1
 2462 01a0 19D1     		bne	.L211
 2463              		.loc 1 782 0 is_stmt 0 discriminator 1
 2464 01a2 634B     		ldr	r3, .L229+12
 2465 01a4 1B69     		ldr	r3, [r3, #16]
 2466 01a6 644A     		ldr	r2, .L229+20
ARM GAS  C:\Users\pasan savindu\AppData\Local\Temp\ccY2T3Z5.s 			page 59


 2467 01a8 1340     		ands	r3, r3, r2
 2468 01aa 03D5     		bpl	.L212
 2469 01ac 013B     		subs	r3, r3, #1
 2470 01ae 63F00103 		orn	r3, r3, #1
 2471 01b2 0133     		adds	r3, r3, #1
 2472              	.L212:
 2473 01b4 012B     		cmp	r3, #1
 2474 01b6 0ED1     		bne	.L211
 783:main.c        ****          {
 784:main.c        ****         turn('L',L_DEGREE);
 2475              		.loc 1 784 0 is_stmt 1
 2476 01b8 43F2C231 		movw	r1, #13250
 2477 01bc 4C20     		movs	r0, #76
 2478 01be FFF7FEFF 		bl	turn
 2479              	.LVL350:
 785:main.c        ****         move_straight('F',10000);
 2480              		.loc 1 785 0
 2481 01c2 42F21071 		movw	r1, #10000
 2482 01c6 4620     		movs	r0, #70
 2483 01c8 FFF7FEFF 		bl	move_straight
 2484              	.LVL351:
 786:main.c        ****         turn('R',R_DEGREE);
 2485              		.loc 1 786 0
 2486 01cc 43F67A71 		movw	r1, #16250
 2487 01d0 5220     		movs	r0, #82
 2488 01d2 FFF7FEFF 		bl	turn
 2489              	.LVL352:
 2490              	.L211:
 787:main.c        ****          }
 788:main.c        ****         if(Base ==1&&(position%2)==0)//Vertical
 2491              		.loc 1 788 0
 2492 01d6 574B     		ldr	r3, .L229+16
 2493 01d8 1B68     		ldr	r3, [r3]
 2494 01da 012B     		cmp	r3, #1
 2495 01dc 13D1     		bne	.L213
 2496              		.loc 1 788 0 is_stmt 0 discriminator 1
 2497 01de 544B     		ldr	r3, .L229+12
 2498 01e0 1B69     		ldr	r3, [r3, #16]
 2499 01e2 13F0010F 		tst	r3, #1
 2500 01e6 0ED1     		bne	.L213
 789:main.c        ****          {
 790:main.c        ****         turn('R',R_DEGREE);
 2501              		.loc 1 790 0 is_stmt 1
 2502 01e8 43F67A71 		movw	r1, #16250
 2503 01ec 5220     		movs	r0, #82
 2504 01ee FFF7FEFF 		bl	turn
 2505              	.LVL353:
 791:main.c        ****         move_straight('F',10000);
 2506              		.loc 1 791 0
 2507 01f2 42F21071 		movw	r1, #10000
 2508 01f6 4620     		movs	r0, #70
 2509 01f8 FFF7FEFF 		bl	move_straight
 2510              	.LVL354:
 792:main.c        ****         turn('L',L_DEGREE);
 2511              		.loc 1 792 0
 2512 01fc 43F2C231 		movw	r1, #13250
 2513 0200 4C20     		movs	r0, #76
ARM GAS  C:\Users\pasan savindu\AppData\Local\Temp\ccY2T3Z5.s 			page 60


 2514 0202 FFF7FEFF 		bl	turn
 2515              	.LVL355:
 2516              	.L213:
 793:main.c        ****          }
 794:main.c        ****         if(Base ==2 &&(position%2)==1 )//Horizantal
 2517              		.loc 1 794 0
 2518 0206 4B4B     		ldr	r3, .L229+16
 2519 0208 1B68     		ldr	r3, [r3]
 2520 020a 022B     		cmp	r3, #2
 2521 020c 19D1     		bne	.L214
 2522              		.loc 1 794 0 is_stmt 0 discriminator 1
 2523 020e 484B     		ldr	r3, .L229+12
 2524 0210 1B69     		ldr	r3, [r3, #16]
 2525 0212 494A     		ldr	r2, .L229+20
 2526 0214 1340     		ands	r3, r3, r2
 2527 0216 03D5     		bpl	.L215
 2528 0218 013B     		subs	r3, r3, #1
 2529 021a 63F00103 		orn	r3, r3, #1
 2530 021e 0133     		adds	r3, r3, #1
 2531              	.L215:
 2532 0220 012B     		cmp	r3, #1
 2533 0222 0ED1     		bne	.L214
 795:main.c        ****         {
 796:main.c        ****         turn('R',R_DEGREE);
 2534              		.loc 1 796 0 is_stmt 1
 2535 0224 43F67A71 		movw	r1, #16250
 2536 0228 5220     		movs	r0, #82
 2537 022a FFF7FEFF 		bl	turn
 2538              	.LVL356:
 797:main.c        ****         move_straight('F',10000);
 2539              		.loc 1 797 0
 2540 022e 42F21071 		movw	r1, #10000
 2541 0232 4620     		movs	r0, #70
 2542 0234 FFF7FEFF 		bl	move_straight
 2543              	.LVL357:
 798:main.c        ****         turn('L',L_DEGREE);
 2544              		.loc 1 798 0
 2545 0238 43F2C231 		movw	r1, #13250
 2546 023c 4C20     		movs	r0, #76
 2547 023e FFF7FEFF 		bl	turn
 2548              	.LVL358:
 2549              	.L214:
 799:main.c        ****         } 
 800:main.c        ****         if(Base ==2 &&(position%2)==0 )//Vertical
 2550              		.loc 1 800 0
 2551 0242 3C4B     		ldr	r3, .L229+16
 2552 0244 1B68     		ldr	r3, [r3]
 2553 0246 022B     		cmp	r3, #2
 2554 0248 13D1     		bne	.L200
 2555              		.loc 1 800 0 is_stmt 0 discriminator 1
 2556 024a 394B     		ldr	r3, .L229+12
 2557 024c 1B69     		ldr	r3, [r3, #16]
 2558 024e 13F0010F 		tst	r3, #1
 2559 0252 0ED1     		bne	.L200
 801:main.c        ****         {
 802:main.c        ****         turn('L',L_DEGREE);
 2560              		.loc 1 802 0 is_stmt 1
ARM GAS  C:\Users\pasan savindu\AppData\Local\Temp\ccY2T3Z5.s 			page 61


 2561 0254 43F2C231 		movw	r1, #13250
 2562 0258 4C20     		movs	r0, #76
 2563 025a FFF7FEFF 		bl	turn
 2564              	.LVL359:
 803:main.c        ****         move_straight('F',10000);
 2565              		.loc 1 803 0
 2566 025e 42F21071 		movw	r1, #10000
 2567 0262 4620     		movs	r0, #70
 2568 0264 FFF7FEFF 		bl	move_straight
 2569              	.LVL360:
 804:main.c        ****         turn('R',R_DEGREE);
 2570              		.loc 1 804 0
 2571 0268 43F67A71 		movw	r1, #16250
 2572 026c 5220     		movs	r0, #82
 2573 026e FFF7FEFF 		bl	turn
 2574              	.LVL361:
 2575              	.L200:
 805:main.c        ****         } 
 806:main.c        ****         }
 807:main.c        ****    }
 808:main.c        ****     if (IR_Out_Read() ==0)//Depends on the position you place the IR sensor, move the robot.
 2576              		.loc 1 808 0
 2577 0272 FFF7FEFF 		bl	IR_Out_Read
 2578              	.LVL362:
 2579 0276 B0B9     		cbnz	r0, .L217
 809:main.c        ****      {
 810:main.c        ****        motorcontrl('S');
 2580              		.loc 1 810 0
 2581 0278 5320     		movs	r0, #83
 2582 027a FFF7FEFF 		bl	motorcontrl
 2583              	.LVL363:
 811:main.c        ****        temp=1;
 812:main.c        ****        move_straight('F',4000);
 2584              		.loc 1 812 0
 2585 027e 4FF47A61 		mov	r1, #4000
 2586 0282 4620     		movs	r0, #70
 2587 0284 FFF7FEFF 		bl	move_straight
 2588              	.LVL364:
 813:main.c        ****        state++;
 2589              		.loc 1 813 0
 2590 0288 294A     		ldr	r2, .L229+12
 2591 028a 137B     		ldrb	r3, [r2, #12]	@ zero_extendqisi2
 2592 028c 0133     		adds	r3, r3, #1
 2593 028e 1373     		strb	r3, [r2, #12]
 811:main.c        ****        temp=1;
 2594              		.loc 1 811 0
 2595 0290 0124     		movs	r4, #1
 2596 0292 08E0     		b	.L217
 2597              	.LVL365:
 2598              	.L218:
 814:main.c        ****      }
 815:main.c        ****      while (S1_Echo_Read() == 0){
 816:main.c        **** 		S1_Trigger_Write(1);
 2599              		.loc 1 816 0
 2600 0294 0120     		movs	r0, #1
 2601 0296 FFF7FEFF 		bl	S1_Trigger_Write
 2602              	.LVL366:
ARM GAS  C:\Users\pasan savindu\AppData\Local\Temp\ccY2T3Z5.s 			page 62


 817:main.c        **** 		CyDelayUs(10);
 2603              		.loc 1 817 0
 2604 029a 0A20     		movs	r0, #10
 2605 029c FFF7FEFF 		bl	CyDelayUs
 2606              	.LVL367:
 818:main.c        **** 		S1_Trigger_Write(0);
 2607              		.loc 1 818 0
 2608 02a0 0020     		movs	r0, #0
 2609 02a2 FFF7FEFF 		bl	S1_Trigger_Write
 2610              	.LVL368:
 2611              	.L217:
 815:main.c        **** 		S1_Trigger_Write(1);
 2612              		.loc 1 815 0
 2613 02a6 FFF7FEFF 		bl	S1_Echo_Read
 2614              	.LVL369:
 2615 02aa 0028     		cmp	r0, #0
 2616 02ac F2D0     		beq	.L218
 819:main.c        **** 	    }
 820:main.c        **** 	    CyDelay(10);
 2617              		.loc 1 820 0
 2618 02ae 0A20     		movs	r0, #10
 2619 02b0 FFF7FEFF 		bl	CyDelay
 2620              	.LVL370:
 821:main.c        ****     while (S2_Echo_Read() == 0) {
 2621              		.loc 1 821 0
 2622 02b4 08E0     		b	.L219
 2623              	.L220:
 822:main.c        **** 		S2_Trigger_Write(1);
 2624              		.loc 1 822 0
 2625 02b6 0120     		movs	r0, #1
 2626 02b8 FFF7FEFF 		bl	S2_Trigger_Write
 2627              	.LVL371:
 823:main.c        **** 		CyDelayUs(10);
 2628              		.loc 1 823 0
 2629 02bc 0A20     		movs	r0, #10
 2630 02be FFF7FEFF 		bl	CyDelayUs
 2631              	.LVL372:
 824:main.c        **** 		S2_Trigger_Write(0);
 2632              		.loc 1 824 0
 2633 02c2 0020     		movs	r0, #0
 2634 02c4 FFF7FEFF 		bl	S2_Trigger_Write
 2635              	.LVL373:
 2636              	.L219:
 821:main.c        **** 		S2_Trigger_Write(1);
 2637              		.loc 1 821 0
 2638 02c8 FFF7FEFF 		bl	S2_Echo_Read
 2639              	.LVL374:
 2640 02cc 0028     		cmp	r0, #0
 2641 02ce F2D0     		beq	.L220
 825:main.c        **** 	     }
 826:main.c        ****         CyDelay(10);
 2642              		.loc 1 826 0
 2643 02d0 0A20     		movs	r0, #10
 2644 02d2 FFF7FEFF 		bl	CyDelay
 2645              	.LVL375:
 827:main.c        ****    while (S3_Echo_Read() == 0) {
 2646              		.loc 1 827 0
ARM GAS  C:\Users\pasan savindu\AppData\Local\Temp\ccY2T3Z5.s 			page 63


 2647 02d6 08E0     		b	.L221
 2648              	.L222:
 828:main.c        **** 		S3_Trigger_Write(1);
 2649              		.loc 1 828 0
 2650 02d8 0120     		movs	r0, #1
 2651 02da FFF7FEFF 		bl	S3_Trigger_Write
 2652              	.LVL376:
 829:main.c        **** 		CyDelayUs(10);
 2653              		.loc 1 829 0
 2654 02de 0A20     		movs	r0, #10
 2655 02e0 FFF7FEFF 		bl	CyDelayUs
 2656              	.LVL377:
 830:main.c        **** 		S3_Trigger_Write(0);
 2657              		.loc 1 830 0
 2658 02e4 0020     		movs	r0, #0
 2659 02e6 FFF7FEFF 		bl	S3_Trigger_Write
 2660              	.LVL378:
 2661              	.L221:
 827:main.c        **** 		S3_Trigger_Write(1);
 2662              		.loc 1 827 0
 2663 02ea FFF7FEFF 		bl	S3_Echo_Read
 2664              	.LVL379:
 2665 02ee 0028     		cmp	r0, #0
 2666 02f0 F2D0     		beq	.L222
 831:main.c        **** 	}
 832:main.c        **** 	CyDelay(10);
 2667              		.loc 1 832 0
 2668 02f2 0A20     		movs	r0, #10
 2669 02f4 FFF7FEFF 		bl	CyDelay
 2670              	.LVL380:
 833:main.c        **** 	while (S4_Echo_Read() == 0) {
 2671              		.loc 1 833 0
 2672 02f8 08E0     		b	.L223
 2673              	.L224:
 834:main.c        **** 		S4_Trigger_Write(1);
 2674              		.loc 1 834 0
 2675 02fa 0120     		movs	r0, #1
 2676 02fc FFF7FEFF 		bl	S4_Trigger_Write
 2677              	.LVL381:
 835:main.c        **** 		CyDelayUs(10);
 2678              		.loc 1 835 0
 2679 0300 0A20     		movs	r0, #10
 2680 0302 FFF7FEFF 		bl	CyDelayUs
 2681              	.LVL382:
 836:main.c        **** 		S4_Trigger_Write(0);
 2682              		.loc 1 836 0
 2683 0306 0020     		movs	r0, #0
 2684 0308 FFF7FEFF 		bl	S4_Trigger_Write
 2685              	.LVL383:
 2686              	.L223:
 833:main.c        **** 		S4_Trigger_Write(1);
 2687              		.loc 1 833 0
 2688 030c FFF7FEFF 		bl	S4_Echo_Read
 2689              	.LVL384:
 2690 0310 0028     		cmp	r0, #0
 2691 0312 F2D0     		beq	.L224
 837:main.c        **** 	}
ARM GAS  C:\Users\pasan savindu\AppData\Local\Temp\ccY2T3Z5.s 			page 64


 838:main.c        **** 	CyDelay(10);
 2692              		.loc 1 838 0
 2693 0314 0A20     		movs	r0, #10
 2694 0316 FFF7FEFF 		bl	CyDelay
 2695              	.LVL385:
 2696              	.L199:
 733:main.c        ****    {
 2697              		.loc 1 733 0
 2698 031a 002C     		cmp	r4, #0
 2699 031c 3FF498AE 		beq	.L225
 839:main.c        ****    }
 840:main.c        **** }
 2700              		.loc 1 840 0
 2701 0320 38BD     		pop	{r3, r4, r5, pc}
 2702              	.LVL386:
 2703              	.L230:
 2704 0322 00BF     		.align	2
 2705              	.L229:
 2706 0324 00000000 		.word	countL
 2707 0328 00000000 		.word	countR
 2708 032c 00000000 		.word	.LANCHOR0
 2709 0330 00000000 		.word	.LANCHOR1
 2710 0334 00000000 		.word	Base
 2711 0338 01000080 		.word	-2147483647
 2712 033c 00770100 		.word	96000
 2713              		.cfi_endproc
 2714              	.LFE84:
 2715              		.size	searchPuck, .-searchPuck
 2716              		.section	.text.grabPuck,"ax",%progbits
 2717              		.align	2
 2718              		.global	grabPuck
 2719              		.thumb
 2720              		.thumb_func
 2721              		.type	grabPuck, %function
 2722              	grabPuck:
 2723              	.LFB85:
 841:main.c        **** 
 842:main.c        **** //Collecting Puck using Gripper and Tower.
 843:main.c        **** void grabPuck(){
 2724              		.loc 1 843 0
 2725              		.cfi_startproc
 2726              		@ args = 0, pretend = 0, frame = 0
 2727              		@ frame_needed = 0, uses_anonymous_args = 0
 2728 0000 08B5     		push	{r3, lr}
 2729              		.cfi_def_cfa_offset 8
 2730              		.cfi_offset 3, -8
 2731              		.cfi_offset 14, -4
 844:main.c        ****     
 845:main.c        ****     RobotArm_Servo_WriteCompare2(500);//Gripper Closes Up
 2732              		.loc 1 845 0
 2733 0002 4FF4FA70 		mov	r0, #500
 2734 0006 FFF7FEFF 		bl	RobotArm_Servo_WriteCompare2
 2735              	.LVL387:
 846:main.c        ****     CyDelay(500);
 2736              		.loc 1 846 0
 2737 000a 4FF4FA70 		mov	r0, #500
 2738 000e FFF7FEFF 		bl	CyDelay
ARM GAS  C:\Users\pasan savindu\AppData\Local\Temp\ccY2T3Z5.s 			page 65


 2739              	.LVL388:
 847:main.c        **** //    RobotArm_Servo_WriteCompare1(700);//Tower Goes Down
 848:main.c        **** //    CyDelay(1000);
 849:main.c        ****     RobotArm_Servo_WriteCompare1(2400);//Tower Goes Up
 2740              		.loc 1 849 0
 2741 0012 4FF41660 		mov	r0, #2400
 2742 0016 FFF7FEFF 		bl	RobotArm_Servo_WriteCompare1
 2743              	.LVL389:
 850:main.c        ****     CyDelay(500);
 2744              		.loc 1 850 0
 2745 001a 4FF4FA70 		mov	r0, #500
 2746 001e FFF7FEFF 		bl	CyDelay
 2747              	.LVL390:
 851:main.c        **** //    GripperRobotArm_Servo_WriteCompare1(2300); //Gripper Opens Up
 852:main.c        ****     
 853:main.c        ****     
 854:main.c        ****    state++;
 2748              		.loc 1 854 0
 2749 0022 024A     		ldr	r2, .L233
 2750 0024 137B     		ldrb	r3, [r2, #12]	@ zero_extendqisi2
 2751 0026 0133     		adds	r3, r3, #1
 2752 0028 1373     		strb	r3, [r2, #12]
 2753 002a 08BD     		pop	{r3, pc}
 2754              	.L234:
 2755              		.align	2
 2756              	.L233:
 2757 002c 00000000 		.word	.LANCHOR1
 2758              		.cfi_endproc
 2759              	.LFE85:
 2760              		.size	grabPuck, .-grabPuck
 2761              		.section	.text.back2Base,"ax",%progbits
 2762              		.align	2
 2763              		.global	back2Base
 2764              		.thumb
 2765              		.thumb_func
 2766              		.type	back2Base, %function
 2767              	back2Base:
 2768              	.LFB86:
 855:main.c        **** }
 856:main.c        **** 
 857:main.c        **** //Goes to Puck Sorting Zone.
 858:main.c        **** void back2Base(int Base){
 2769              		.loc 1 858 0
 2770              		.cfi_startproc
 2771              		@ args = 0, pretend = 0, frame = 0
 2772              		@ frame_needed = 0, uses_anonymous_args = 0
 2773              	.LVL391:
 2774 0000 10B5     		push	{r4, lr}
 2775              		.cfi_def_cfa_offset 8
 2776              		.cfi_offset 4, -8
 2777              		.cfi_offset 14, -4
 2778 0002 0446     		mov	r4, r0
 2779              	.LVL392:
 859:main.c        ****     
 860:main.c        ****     int temp=0;
 861:main.c        ****     S1_distance=S2_distance=CAPTURE_ZONE;
 2780              		.loc 1 861 0
ARM GAS  C:\Users\pasan savindu\AppData\Local\Temp\ccY2T3Z5.s 			page 66


 2781 0004 374B     		ldr	r3, .L251
 2782 0006 2322     		movs	r2, #35
 2783 0008 5A60     		str	r2, [r3, #4]
 2784 000a 1A60     		str	r2, [r3]
 862:main.c        ****     if ((position%2)==0)//Vertical
 2785              		.loc 1 862 0
 2786 000c 364B     		ldr	r3, .L251+4
 2787 000e 1B69     		ldr	r3, [r3, #16]
 2788 0010 13F0010F 		tst	r3, #1
 2789 0014 0ED1     		bne	.L236
 863:main.c        ****     {
 864:main.c        ****     if(Base ==1)
 2790              		.loc 1 864 0
 2791 0016 0128     		cmp	r0, #1
 2792 0018 05D1     		bne	.L237
 865:main.c        ****      {
 866:main.c        ****         turn('R',R_DEGREE);
 2793              		.loc 1 866 0
 2794 001a 43F67A71 		movw	r1, #16250
 2795 001e 5220     		movs	r0, #82
 2796              	.LVL393:
 2797 0020 FFF7FEFF 		bl	turn
 2798              	.LVL394:
 2799 0024 06E0     		b	.L236
 2800              	.LVL395:
 2801              	.L237:
 867:main.c        ****      }
 868:main.c        ****     else if (Base == 2)
 2802              		.loc 1 868 0
 2803 0026 0228     		cmp	r0, #2
 2804 0028 04D1     		bne	.L236
 869:main.c        ****      {
 870:main.c        ****         turn('L',L_DEGREE);
 2805              		.loc 1 870 0
 2806 002a 43F2C231 		movw	r1, #13250
 2807 002e 4C20     		movs	r0, #76
 2808              	.LVL396:
 2809 0030 FFF7FEFF 		bl	turn
 2810              	.LVL397:
 2811              	.L236:
 871:main.c        ****      }
 872:main.c        ****     }
 873:main.c        ****     position++;
 2812              		.loc 1 873 0
 2813 0034 2C4A     		ldr	r2, .L251+4
 2814 0036 1369     		ldr	r3, [r2, #16]
 2815 0038 0133     		adds	r3, r3, #1
 2816 003a 1361     		str	r3, [r2, #16]
 874:main.c        ****     wall_allignment();
 2817              		.loc 1 874 0
 2818 003c FFF7FEFF 		bl	wall_allignment
 2819              	.LVL398:
 875:main.c        ****     move_straight('F',20000); //30cm forward            **CONFIGURE 
 2820              		.loc 1 875 0
 2821 0040 44F62061 		movw	r1, #20000
 2822 0044 4620     		movs	r0, #70
 2823 0046 FFF7FEFF 		bl	move_straight
ARM GAS  C:\Users\pasan savindu\AppData\Local\Temp\ccY2T3Z5.s 			page 67


 2824              	.LVL399:
 876:main.c        ****     
 877:main.c        ****     if(Base ==1)
 2825              		.loc 1 877 0
 2826 004a 012C     		cmp	r4, #1
 2827 004c 04D1     		bne	.L238
 878:main.c        ****     {
 879:main.c        ****         turn('R',R_DEGREE);
 2828              		.loc 1 879 0
 2829 004e 43F67A71 		movw	r1, #16250
 2830 0052 5220     		movs	r0, #82
 2831 0054 FFF7FEFF 		bl	turn
 2832              	.LVL400:
 2833              	.L238:
 880:main.c        ****     }
 881:main.c        ****     if (Base == 2)
 2834              		.loc 1 881 0
 2835 0058 022C     		cmp	r4, #2
 2836 005a 04D1     		bne	.L239
 882:main.c        ****     {
 883:main.c        ****         turn('L',L_DEGREE);
 2837              		.loc 1 883 0
 2838 005c 43F2C231 		movw	r1, #13250
 2839 0060 4C20     		movs	r0, #76
 2840 0062 FFF7FEFF 		bl	turn
 2841              	.LVL401:
 2842              	.L239:
 884:main.c        ****     }
 885:main.c        ****     
 886:main.c        ****     while(temp == 0)
 887:main.c        ****       {
 888:main.c        ****         if (obstacle1==0||obstacle2==0)
 889:main.c        ****         {
 890:main.c        ****         motorcontrl('F');
 891:main.c        ****         }
 892:main.c        ****         else if (obstacle1==1||obstacle2==0)
 893:main.c        ****         {
 894:main.c        ****          motorcontrl('S');
 895:main.c        ****          temp =1;
 2843              		.loc 1 895 0
 2844 0066 0024     		movs	r4, #0
 2845              	.LVL402:
 2846 0068 34E0     		b	.L240
 2847              	.LVL403:
 2848              	.L249:
 888:main.c        ****         {
 2849              		.loc 1 888 0
 2850 006a 1F4B     		ldr	r3, .L251+4
 2851 006c 93F90030 		ldrsb	r3, [r3]
 2852 0070 1BB1     		cbz	r3, .L241
 888:main.c        ****         {
 2853              		.loc 1 888 0 is_stmt 0 discriminator 1
 2854 0072 1D4A     		ldr	r2, .L251+4
 2855 0074 92F90120 		ldrsb	r2, [r2, #1]
 2856 0078 1AB9     		cbnz	r2, .L242
 2857              	.L241:
 890:main.c        ****         }
ARM GAS  C:\Users\pasan savindu\AppData\Local\Temp\ccY2T3Z5.s 			page 68


 2858              		.loc 1 890 0 is_stmt 1
 2859 007a 4620     		movs	r0, #70
 2860 007c FFF7FEFF 		bl	motorcontrl
 2861              	.LVL404:
 2862 0080 10E0     		b	.L245
 2863              	.L242:
 892:main.c        ****         {
 2864              		.loc 1 892 0
 2865 0082 012B     		cmp	r3, #1
 2866 0084 00D0     		beq	.L244
 892:main.c        ****         {
 2867              		.loc 1 892 0 is_stmt 0 discriminator 1
 2868 0086 6AB9     		cbnz	r2, .L245
 2869              	.L244:
 894:main.c        ****          temp =1;
 2870              		.loc 1 894 0 is_stmt 1
 2871 0088 5320     		movs	r0, #83
 2872 008a FFF7FEFF 		bl	motorcontrl
 2873              	.LVL405:
 2874              		.loc 1 895 0
 2875 008e 0124     		movs	r4, #1
 2876 0090 08E0     		b	.L245
 2877              	.LVL406:
 2878              	.L246:
 896:main.c        ****         }
 897:main.c        ****         
 898:main.c        ****         while (S1_Echo_Read() == 0){
 899:main.c        **** 		S1_Trigger_Write(1);
 2879              		.loc 1 899 0
 2880 0092 0120     		movs	r0, #1
 2881 0094 FFF7FEFF 		bl	S1_Trigger_Write
 2882              	.LVL407:
 900:main.c        **** 		CyDelayUs(10);
 2883              		.loc 1 900 0
 2884 0098 0A20     		movs	r0, #10
 2885 009a FFF7FEFF 		bl	CyDelayUs
 2886              	.LVL408:
 901:main.c        **** 		S1_Trigger_Write(0);
 2887              		.loc 1 901 0
 2888 009e 0020     		movs	r0, #0
 2889 00a0 FFF7FEFF 		bl	S1_Trigger_Write
 2890              	.LVL409:
 2891              	.L245:
 898:main.c        **** 		S1_Trigger_Write(1);
 2892              		.loc 1 898 0
 2893 00a4 FFF7FEFF 		bl	S1_Echo_Read
 2894              	.LVL410:
 2895 00a8 0028     		cmp	r0, #0
 2896 00aa F2D0     		beq	.L246
 902:main.c        **** 	    }
 903:main.c        **** 	    CyDelay(10);
 2897              		.loc 1 903 0
 2898 00ac 0A20     		movs	r0, #10
 2899 00ae FFF7FEFF 		bl	CyDelay
 2900              	.LVL411:
 904:main.c        ****         while (S2_Echo_Read() == 0){
 2901              		.loc 1 904 0
ARM GAS  C:\Users\pasan savindu\AppData\Local\Temp\ccY2T3Z5.s 			page 69


 2902 00b2 08E0     		b	.L247
 2903              	.L248:
 905:main.c        **** 		S2_Trigger_Write(1);
 2904              		.loc 1 905 0
 2905 00b4 0120     		movs	r0, #1
 2906 00b6 FFF7FEFF 		bl	S2_Trigger_Write
 2907              	.LVL412:
 906:main.c        **** 		CyDelayUs(10);
 2908              		.loc 1 906 0
 2909 00ba 0A20     		movs	r0, #10
 2910 00bc FFF7FEFF 		bl	CyDelayUs
 2911              	.LVL413:
 907:main.c        **** 		S2_Trigger_Write(0);
 2912              		.loc 1 907 0
 2913 00c0 0020     		movs	r0, #0
 2914 00c2 FFF7FEFF 		bl	S2_Trigger_Write
 2915              	.LVL414:
 2916              	.L247:
 904:main.c        **** 		S2_Trigger_Write(1);
 2917              		.loc 1 904 0
 2918 00c6 FFF7FEFF 		bl	S2_Echo_Read
 2919              	.LVL415:
 2920 00ca 0028     		cmp	r0, #0
 2921 00cc F2D0     		beq	.L248
 908:main.c        **** 	    }
 909:main.c        **** 	    CyDelay(10);
 2922              		.loc 1 909 0
 2923 00ce 0A20     		movs	r0, #10
 2924 00d0 FFF7FEFF 		bl	CyDelay
 2925              	.LVL416:
 2926              	.L240:
 886:main.c        ****       {
 2927              		.loc 1 886 0
 2928 00d4 002C     		cmp	r4, #0
 2929 00d6 C8D0     		beq	.L249
 910:main.c        ****     }
 911:main.c        ****     
 912:main.c        ****     //move_straight('B',4000);
 913:main.c        ****     state++;
 2930              		.loc 1 913 0
 2931 00d8 034A     		ldr	r2, .L251+4
 2932 00da 137B     		ldrb	r3, [r2, #12]	@ zero_extendqisi2
 2933 00dc 0133     		adds	r3, r3, #1
 2934 00de 1373     		strb	r3, [r2, #12]
 2935 00e0 10BD     		pop	{r4, pc}
 2936              	.LVL417:
 2937              	.L252:
 2938 00e2 00BF     		.align	2
 2939              	.L251:
 2940 00e4 00000000 		.word	.LANCHOR0
 2941 00e8 00000000 		.word	.LANCHOR1
 2942              		.cfi_endproc
 2943              	.LFE86:
 2944              		.size	back2Base, .-back2Base
 2945              		.section	.text.sortPuck,"ax",%progbits
 2946              		.align	2
 2947              		.global	sortPuck
ARM GAS  C:\Users\pasan savindu\AppData\Local\Temp\ccY2T3Z5.s 			page 70


 2948              		.thumb
 2949              		.thumb_func
 2950              		.type	sortPuck, %function
 2951              	sortPuck:
 2952              	.LFB87:
 914:main.c        **** }
 915:main.c        **** 
 916:main.c        **** //Sorting the Puck Based On the color
 917:main.c        **** void sortPuck(){
 2953              		.loc 1 917 0
 2954              		.cfi_startproc
 2955              		@ args = 0, pretend = 0, frame = 0
 2956              		@ frame_needed = 0, uses_anonymous_args = 0
 2957 0000 10B5     		push	{r4, lr}
 2958              		.cfi_def_cfa_offset 8
 2959              		.cfi_offset 4, -8
 2960              		.cfi_offset 14, -4
 918:main.c        ****     int color; //1-RED,2-GREEN,3-BLUE
 919:main.c        ****     color =color_sense();
 2961              		.loc 1 919 0
 2962 0002 FFF7FEFF 		bl	color_sense
 2963              	.LVL418:
 2964 0006 0446     		mov	r4, r0
 2965              	.LVL419:
 920:main.c        ****     RobotArm_Servo_WriteCompare2(700);//Release the Gripper
 2966              		.loc 1 920 0
 2967 0008 4FF42F70 		mov	r0, #700
 2968              	.LVL420:
 2969 000c FFF7FEFF 		bl	RobotArm_Servo_WriteCompare2
 2970              	.LVL421:
 921:main.c        ****     CyDelay(1000);
 2971              		.loc 1 921 0
 2972 0010 4FF47A70 		mov	r0, #1000
 2973 0014 FFF7FEFF 		bl	CyDelay
 2974              	.LVL422:
 922:main.c        ****     RobotArm_Servo_WriteCompare2(500);//Close the Gripper
 2975              		.loc 1 922 0
 2976 0018 4FF4FA70 		mov	r0, #500
 2977 001c FFF7FEFF 		bl	RobotArm_Servo_WriteCompare2
 2978              	.LVL423:
 923:main.c        ****     move_straight('B',4000);
 2979              		.loc 1 923 0
 2980 0020 4FF47A61 		mov	r1, #4000
 2981 0024 4220     		movs	r0, #66
 2982 0026 FFF7FEFF 		bl	move_straight
 2983              	.LVL424:
 924:main.c        ****     switch(color){
 2984              		.loc 1 924 0
 2985 002a 022C     		cmp	r4, #2
 2986 002c 1AD0     		beq	.L255
 2987 002e 032C     		cmp	r4, #3
 2988 0030 25D0     		beq	.L256
 2989 0032 012C     		cmp	r4, #1
 2990 0034 39D1     		bne	.L254
 925:main.c        ****         case 1://RED
 926:main.c        ****           RED_LED_Write(1);
 2991              		.loc 1 926 0
ARM GAS  C:\Users\pasan savindu\AppData\Local\Temp\ccY2T3Z5.s 			page 71


 2992 0036 0120     		movs	r0, #1
 2993 0038 FFF7FEFF 		bl	RED_LED_Write
 2994              	.LVL425:
 927:main.c        ****           CyDelay(1000);
 2995              		.loc 1 927 0
 2996 003c 4FF47A70 		mov	r0, #1000
 2997 0040 FFF7FEFF 		bl	CyDelay
 2998              	.LVL426:
 928:main.c        ****           RED_LED_Write(0);
 2999              		.loc 1 928 0
 3000 0044 0020     		movs	r0, #0
 3001 0046 FFF7FEFF 		bl	RED_LED_Write
 3002              	.LVL427:
 929:main.c        ****           Flicker_Servo_WriteCompare(2500); 
 3003              		.loc 1 929 0
 3004 004a 40F6C410 		movw	r0, #2500
 3005 004e FFF7FEFF 		bl	Flicker_Servo_WriteCompare
 3006              	.LVL428:
 930:main.c        ****           CyDelay(500);
 3007              		.loc 1 930 0
 3008 0052 4FF4FA70 		mov	r0, #500
 3009 0056 FFF7FEFF 		bl	CyDelay
 3010              	.LVL429:
 931:main.c        ****           Flicker_Servo_WriteCompare(900);
 3011              		.loc 1 931 0
 3012 005a 4FF46170 		mov	r0, #900
 3013 005e FFF7FEFF 		bl	Flicker_Servo_WriteCompare
 3014              	.LVL430:
 932:main.c        ****         break;
 3015              		.loc 1 932 0
 3016 0062 22E0     		b	.L254
 3017              	.L255:
 933:main.c        ****         case 2://Green
 934:main.c        ****         
 935:main.c        ****           Flicker_Servo_WriteCompare(1600);
 3018              		.loc 1 935 0
 3019 0064 4FF4C860 		mov	r0, #1600
 3020 0068 FFF7FEFF 		bl	Flicker_Servo_WriteCompare
 3021              	.LVL431:
 936:main.c        ****           CyDelay(500);
 3022              		.loc 1 936 0
 3023 006c 4FF4FA70 		mov	r0, #500
 3024 0070 FFF7FEFF 		bl	CyDelay
 3025              	.LVL432:
 937:main.c        ****           Flicker_Servo_WriteCompare(900);
 3026              		.loc 1 937 0
 3027 0074 4FF46170 		mov	r0, #900
 3028 0078 FFF7FEFF 		bl	Flicker_Servo_WriteCompare
 3029              	.LVL433:
 938:main.c        ****         break;
 3030              		.loc 1 938 0
 3031 007c 15E0     		b	.L254
 3032              	.L256:
 939:main.c        ****         case 3://Blue
 940:main.c        ****           BLUE_LED_Write(1);
 3033              		.loc 1 940 0
 3034 007e 0120     		movs	r0, #1
ARM GAS  C:\Users\pasan savindu\AppData\Local\Temp\ccY2T3Z5.s 			page 72


 3035 0080 FFF7FEFF 		bl	BLUE_LED_Write
 3036              	.LVL434:
 941:main.c        ****           CyDelay(1000);
 3037              		.loc 1 941 0
 3038 0084 4FF47A70 		mov	r0, #1000
 3039 0088 FFF7FEFF 		bl	CyDelay
 3040              	.LVL435:
 942:main.c        ****           BLUE_LED_Write(0);
 3041              		.loc 1 942 0
 3042 008c 0020     		movs	r0, #0
 3043 008e FFF7FEFF 		bl	BLUE_LED_Write
 3044              	.LVL436:
 943:main.c        ****           Flicker_Servo_WriteCompare(1800);
 3045              		.loc 1 943 0
 3046 0092 4FF4E160 		mov	r0, #1800
 3047 0096 FFF7FEFF 		bl	Flicker_Servo_WriteCompare
 3048              	.LVL437:
 944:main.c        ****           CyDelay(500);
 3049              		.loc 1 944 0
 3050 009a 4FF4FA70 		mov	r0, #500
 3051 009e FFF7FEFF 		bl	CyDelay
 3052              	.LVL438:
 945:main.c        ****           Flicker_Servo_WriteCompare(900);
 3053              		.loc 1 945 0
 3054 00a2 4FF46170 		mov	r0, #900
 3055 00a6 FFF7FEFF 		bl	Flicker_Servo_WriteCompare
 3056              	.LVL439:
 3057              	.L254:
 946:main.c        ****         break;
 947:main.c        ****         default:
 948:main.c        ****         break;
 949:main.c        ****     }
 950:main.c        ****     state++;
 3058              		.loc 1 950 0
 3059 00aa 024A     		ldr	r2, .L259
 3060 00ac 137B     		ldrb	r3, [r2, #12]	@ zero_extendqisi2
 3061 00ae 0133     		adds	r3, r3, #1
 3062 00b0 1373     		strb	r3, [r2, #12]
 3063 00b2 10BD     		pop	{r4, pc}
 3064              	.LVL440:
 3065              	.L260:
 3066              		.align	2
 3067              	.L259:
 3068 00b4 00000000 		.word	.LANCHOR1
 3069              		.cfi_endproc
 3070              	.LFE87:
 3071              		.size	sortPuck, .-sortPuck
 3072              		.section	.text.back2Zone,"ax",%progbits
 3073              		.align	2
 3074              		.global	back2Zone
 3075              		.thumb
 3076              		.thumb_func
 3077              		.type	back2Zone, %function
 3078              	back2Zone:
 3079              	.LFB88:
 951:main.c        **** }
 952:main.c        **** 
ARM GAS  C:\Users\pasan savindu\AppData\Local\Temp\ccY2T3Z5.s 			page 73


 953:main.c        **** //Goes Back to Puck Collecting Zone
 954:main.c        **** void back2Zone(int Base,int counter){
 3080              		.loc 1 954 0
 3081              		.cfi_startproc
 3082              		@ args = 0, pretend = 0, frame = 0
 3083              		@ frame_needed = 0, uses_anonymous_args = 0
 3084              	.LVL441:
 3085 0000 38B5     		push	{r3, r4, r5, lr}
 3086              		.cfi_def_cfa_offset 16
 3087              		.cfi_offset 3, -16
 3088              		.cfi_offset 4, -12
 3089              		.cfi_offset 5, -8
 3090              		.cfi_offset 14, -4
 3091 0002 0446     		mov	r4, r0
 3092              	.LVL442:
 955:main.c        ****     int temp=0;
 956:main.c        ****     int dist_increament=0;
 957:main.c        ****     counter++;
 958:main.c        ****     if ((position%2)==1) //Horizantal
 3093              		.loc 1 958 0
 3094 0004 364B     		ldr	r3, .L273
 3095 0006 1B69     		ldr	r3, [r3, #16]
 3096 0008 364A     		ldr	r2, .L273+4
 3097 000a 1340     		ands	r3, r3, r2
 3098 000c 03D5     		bpl	.L262
 3099 000e 013B     		subs	r3, r3, #1
 3100 0010 63F00103 		orn	r3, r3, #1
 3101 0014 0133     		adds	r3, r3, #1
 3102              	.L262:
 3103 0016 012B     		cmp	r3, #1
 3104 0018 26D1     		bne	.L271
 959:main.c        ****     {
 960:main.c        ****         turn('L',L_DEGREE*2);
 3105              		.loc 1 960 0
 3106 001a 46F28471 		movw	r1, #26500
 3107              	.LVL443:
 3108 001e 4C20     		movs	r0, #76
 3109              	.LVL444:
 3110 0020 FFF7FEFF 		bl	turn
 3111              	.LVL445:
 961:main.c        ****         //side_allignment('L');
 962:main.c        ****         move_straight('F',50000); //X Distance
 3112              		.loc 1 962 0
 3113 0024 4CF25031 		movw	r1, #50000
 3114 0028 4620     		movs	r0, #70
 3115 002a FFF7FEFF 		bl	move_straight
 3116              	.LVL446:
 963:main.c        ****         //side_allignment('L');
 964:main.c        ****         move_straight('F',(dist_increament));
 3117              		.loc 1 964 0
 3118 002e 0021     		movs	r1, #0
 3119 0030 4620     		movs	r0, #70
 3120 0032 FFF7FEFF 		bl	move_straight
 3121              	.LVL447:
 965:main.c        ****         dist_increament +=GAP;
 966:main.c        ****         if(Base ==1)
 3122              		.loc 1 966 0
ARM GAS  C:\Users\pasan savindu\AppData\Local\Temp\ccY2T3Z5.s 			page 74


 3123 0036 012C     		cmp	r4, #1
 3124 0038 05D1     		bne	.L264
 967:main.c        ****         {
 968:main.c        ****         turn('R',R_DEGREE);
 3125              		.loc 1 968 0
 3126 003a 43F67A71 		movw	r1, #16250
 3127 003e 5220     		movs	r0, #82
 3128 0040 FFF7FEFF 		bl	turn
 3129              	.LVL448:
 3130 0044 06E0     		b	.L265
 3131              	.L264:
 969:main.c        ****         }
 970:main.c        ****         else if (Base == 2)
 3132              		.loc 1 970 0
 3133 0046 022C     		cmp	r4, #2
 3134 0048 04D1     		bne	.L265
 971:main.c        ****         {
 972:main.c        ****         turn('L',L_DEGREE);
 3135              		.loc 1 972 0
 3136 004a 43F2C231 		movw	r1, #13250
 3137 004e 4C20     		movs	r0, #76
 3138 0050 FFF7FEFF 		bl	turn
 3139              	.LVL449:
 3140              	.L265:
 973:main.c        ****         }
 974:main.c        ****         wall_allignment();
 3141              		.loc 1 974 0
 3142 0054 FFF7FEFF 		bl	wall_allignment
 3143              	.LVL450:
 975:main.c        ****         move_straight('F',35000);
 3144              		.loc 1 975 0
 3145 0058 48F6B801 		movw	r1, #35000
 3146 005c 4620     		movs	r0, #70
 3147 005e FFF7FEFF 		bl	move_straight
 3148              	.LVL451:
 965:main.c        ****         if(Base ==1)
 3149              		.loc 1 965 0
 3150 0062 49F64045 		movw	r5, #40000
 3151 0066 00E0     		b	.L263
 3152              	.LVL452:
 3153              	.L271:
 956:main.c        ****     counter++;
 3154              		.loc 1 956 0
 3155 0068 0025     		movs	r5, #0
 3156              	.LVL453:
 3157              	.L263:
 976:main.c        ****     }
 977:main.c        ****     if ((position%2)==0) //Vertical
 3158              		.loc 1 977 0
 3159 006a 1D4B     		ldr	r3, .L273
 3160 006c 1B69     		ldr	r3, [r3, #16]
 3161 006e 13F0010F 		tst	r3, #1
 3162 0072 31D1     		bne	.L266
 978:main.c        ****     {
 979:main.c        ****     move_straight('B',5000);
 3163              		.loc 1 979 0
 3164 0074 41F28831 		movw	r1, #5000
ARM GAS  C:\Users\pasan savindu\AppData\Local\Temp\ccY2T3Z5.s 			page 75


 3165 0078 4220     		movs	r0, #66
 3166 007a FFF7FEFF 		bl	move_straight
 3167              	.LVL454:
 980:main.c        ****        if(Base ==1)
 3168              		.loc 1 980 0
 3169 007e 012C     		cmp	r4, #1
 3170 0080 05D1     		bne	.L267
 981:main.c        ****     {
 982:main.c        ****         turn('L',L_DEGREE);
 3171              		.loc 1 982 0
 3172 0082 43F2C231 		movw	r1, #13250
 3173 0086 4C20     		movs	r0, #76
 3174 0088 FFF7FEFF 		bl	turn
 3175              	.LVL455:
 3176 008c 06E0     		b	.L268
 3177              	.L267:
 983:main.c        ****     }
 984:main.c        ****     else if (Base == 2)
 3178              		.loc 1 984 0
 3179 008e 022C     		cmp	r4, #2
 3180 0090 04D1     		bne	.L268
 985:main.c        ****     {
 986:main.c        ****         turn('R',R_DEGREE);
 3181              		.loc 1 986 0
 3182 0092 43F67A71 		movw	r1, #16250
 3183 0096 5220     		movs	r0, #82
 3184 0098 FFF7FEFF 		bl	turn
 3185              	.LVL456:
 3186              	.L268:
 987:main.c        ****     }
 988:main.c        ****     wall_allignment();
 3187              		.loc 1 988 0
 3188 009c FFF7FEFF 		bl	wall_allignment
 3189              	.LVL457:
 989:main.c        ****     move_straight('F',85000);//X Distance
 3190              		.loc 1 989 0
 3191 00a0 1149     		ldr	r1, .L273+8
 3192 00a2 4620     		movs	r0, #70
 3193 00a4 FFF7FEFF 		bl	move_straight
 3194              	.LVL458:
 990:main.c        ****     //side_allignment('R');
 991:main.c        ****     move_straight('F',dist_increament);
 3195              		.loc 1 991 0
 3196 00a8 2946     		mov	r1, r5
 3197 00aa 4620     		movs	r0, #70
 3198 00ac FFF7FEFF 		bl	move_straight
 3199              	.LVL459:
 992:main.c        ****     //side_allignment('R');
 993:main.c        ****     if(Base ==1)
 3200              		.loc 1 993 0
 3201 00b0 012C     		cmp	r4, #1
 3202 00b2 05D1     		bne	.L269
 994:main.c        ****       {
 995:main.c        ****         turn('L',L_DEGREE);
 3203              		.loc 1 995 0
 3204 00b4 43F2C231 		movw	r1, #13250
 3205 00b8 4C20     		movs	r0, #76
ARM GAS  C:\Users\pasan savindu\AppData\Local\Temp\ccY2T3Z5.s 			page 76


 3206 00ba FFF7FEFF 		bl	turn
 3207              	.LVL460:
 3208 00be 06E0     		b	.L270
 3209              	.L269:
 996:main.c        ****       }
 997:main.c        ****     else if (Base == 2)
 3210              		.loc 1 997 0
 3211 00c0 022C     		cmp	r4, #2
 3212 00c2 04D1     		bne	.L270
 998:main.c        ****      {
 999:main.c        ****         turn('R',R_DEGREE);
 3213              		.loc 1 999 0
 3214 00c4 43F67A71 		movw	r1, #16250
 3215 00c8 5220     		movs	r0, #82
 3216 00ca FFF7FEFF 		bl	turn
 3217              	.LVL461:
 3218              	.L270:
1000:main.c        ****       }
1001:main.c        ****     move_straight('F',35000);//X Distance
 3219              		.loc 1 1001 0
 3220 00ce 48F6B801 		movw	r1, #35000
 3221 00d2 4620     		movs	r0, #70
 3222 00d4 FFF7FEFF 		bl	move_straight
 3223              	.LVL462:
 3224              	.L266:
1002:main.c        ****     
1003:main.c        ****     }
1004:main.c        ****     state=1;
 3225              		.loc 1 1004 0
 3226 00d8 0122     		movs	r2, #1
 3227 00da 014B     		ldr	r3, .L273
 3228 00dc 1A73     		strb	r2, [r3, #12]
 3229 00de 38BD     		pop	{r3, r4, r5, pc}
 3230              	.LVL463:
 3231              	.L274:
 3232              		.align	2
 3233              	.L273:
 3234 00e0 00000000 		.word	.LANCHOR1
 3235 00e4 01000080 		.word	-2147483647
 3236 00e8 084C0100 		.word	85000
 3237              		.cfi_endproc
 3238              	.LFE88:
 3239              		.size	back2Zone, .-back2Zone
 3240              		.section	.text.main,"ax",%progbits
 3241              		.align	2
 3242              		.global	main
 3243              		.thumb
 3244              		.thumb_func
 3245              		.type	main, %function
 3246              	main:
 3247              	.LFB71:
 165:main.c        ****    CyGlobalIntEnable; /* Enable global interrupts. */
 3248              		.loc 1 165 0
 3249              		.cfi_startproc
 3250              		@ args = 0, pretend = 0, frame = 0
 3251              		@ frame_needed = 0, uses_anonymous_args = 0
 3252 0000 10B5     		push	{r4, lr}
ARM GAS  C:\Users\pasan savindu\AppData\Local\Temp\ccY2T3Z5.s 			page 77


 3253              		.cfi_def_cfa_offset 8
 3254              		.cfi_offset 4, -8
 3255              		.cfi_offset 14, -4
 166:main.c        ****    Initialize();
 3256              		.loc 1 166 0
 3257              		.syntax unified
 3258              	@ 166 "main.c" 1
 3259 0002 62B6     		CPSIE   i
 3260              	@ 0 "" 2
 167:main.c        **** 
 3261              		.loc 1 167 0
 3262              		.thumb
 3263              		.syntax unified
 3264 0004 FFF7FEFF 		bl	Initialize
 3265              	.LVL464:
 172:main.c        ****         {
 3266              		.loc 1 172 0
 3267 0008 FFF7FEFF 		bl	Base_Selector_Read
 3268              	.LVL465:
 3269 000c 0128     		cmp	r0, #1
 3270 000e 03D1     		bne	.L276
 174:main.c        ****         }
 3271              		.loc 1 174 0
 3272 0010 0122     		movs	r2, #1
 3273 0012 184B     		ldr	r3, .L288
 3274 0014 1A60     		str	r2, [r3]
 3275 0016 05E0     		b	.L277
 3276              	.L276:
 176:main.c        ****         {
 3277              		.loc 1 176 0
 3278 0018 FFF7FEFF 		bl	Base_Selector_Read
 3279              	.LVL466:
 3280 001c 10B9     		cbnz	r0, .L277
 178:main.c        ****         }
 3281              		.loc 1 178 0
 3282 001e 0222     		movs	r2, #2
 3283 0020 144B     		ldr	r3, .L288
 3284 0022 1A60     		str	r2, [r3]
 3285              	.L277:
 165:main.c        ****    CyGlobalIntEnable; /* Enable global interrupts. */
 3286              		.loc 1 165 0
 3287 0024 0024     		movs	r4, #0
 3288              	.LVL467:
 3289              	.L286:
 183:main.c        ****         case 0:
 3290              		.loc 1 183 0
 3291 0026 144B     		ldr	r3, .L288+4
 3292 0028 93F90C30 		ldrsb	r3, [r3, #12]
 3293 002c 052B     		cmp	r3, #5
 3294 002e 1DD8     		bhi	.L278
 3295 0030 DFE803F0 		tbb	[pc, r3]
 3296              	.L280:
 3297 0034 03       		.byte	(.L279-.L280)/2
 3298 0035 08       		.byte	(.L281-.L280)/2
 3299 0036 0B       		.byte	(.L282-.L280)/2
 3300 0037 0E       		.byte	(.L283-.L280)/2
 3301 0038 13       		.byte	(.L284-.L280)/2
ARM GAS  C:\Users\pasan savindu\AppData\Local\Temp\ccY2T3Z5.s 			page 78


 3302 0039 16       		.byte	(.L285-.L280)/2
 3303              		.p2align 1
 3304              	.L279:
 186:main.c        ****         //state++;
 3305              		.loc 1 186 0
 3306 003a 0E4B     		ldr	r3, .L288
 3307 003c 1868     		ldr	r0, [r3]
 3308 003e FFF7FEFF 		bl	baseRoute
 3309              	.LVL468:
 188:main.c        ****         case 1:
 3310              		.loc 1 188 0
 3311 0042 13E0     		b	.L278
 3312              	.L281:
 190:main.c        ****         //state++;
 3313              		.loc 1 190 0
 3314 0044 FFF7FEFF 		bl	searchPuck
 3315              	.LVL469:
 192:main.c        ****         case 2:
 3316              		.loc 1 192 0
 3317 0048 10E0     		b	.L278
 3318              	.L282:
 194:main.c        ****         //state++;
 3319              		.loc 1 194 0
 3320 004a FFF7FEFF 		bl	grabPuck
 3321              	.LVL470:
 196:main.c        ****         case 3:
 3322              		.loc 1 196 0
 3323 004e 0DE0     		b	.L278
 3324              	.L283:
 198:main.c        ****         break;
 3325              		.loc 1 198 0
 3326 0050 084B     		ldr	r3, .L288
 3327 0052 1868     		ldr	r0, [r3]
 3328 0054 FFF7FEFF 		bl	back2Base
 3329              	.LVL471:
 199:main.c        ****         case 4:
 3330              		.loc 1 199 0
 3331 0058 08E0     		b	.L278
 3332              	.L284:
 201:main.c        ****         break;
 3333              		.loc 1 201 0
 3334 005a FFF7FEFF 		bl	sortPuck
 3335              	.LVL472:
 202:main.c        ****         case 5:
 3336              		.loc 1 202 0
 3337 005e 05E0     		b	.L278
 3338              	.L285:
 204:main.c        ****         counter++;
 3339              		.loc 1 204 0
 3340 0060 2146     		mov	r1, r4
 3341 0062 044B     		ldr	r3, .L288
 3342 0064 1868     		ldr	r0, [r3]
 3343 0066 FFF7FEFF 		bl	back2Zone
 3344              	.LVL473:
 205:main.c        ****         //state =1;
 3345              		.loc 1 205 0
 3346 006a 0134     		adds	r4, r4, #1
ARM GAS  C:\Users\pasan savindu\AppData\Local\Temp\ccY2T3Z5.s 			page 79


 3347              	.LVL474:
 3348              	.L278:
 238:main.c        **** }
 3349              		.loc 1 238 0
 3350 006c 0A20     		movs	r0, #10
 3351 006e FFF7FEFF 		bl	CyDelay
 3352              	.LVL475:
 239:main.c        **** }
 3353              		.loc 1 239 0
 3354 0072 D8E7     		b	.L286
 3355              	.L289:
 3356              		.align	2
 3357              	.L288:
 3358 0074 00000000 		.word	Base
 3359 0078 00000000 		.word	.LANCHOR1
 3360              		.cfi_endproc
 3361              	.LFE71:
 3362              		.size	main, .-main
 3363              		.global	position
 3364              		.comm	string1,20,4
 3365              		.global	dataReady
 3366              		.global	iFreq
 3367              		.comm	puckdetected,1,1
 3368              		.global	S4_distance
 3369              		.global	S3_distance
 3370              		.global	S2_distance
 3371              		.global	S1_distance
 3372              		.global	obstacle4
 3373              		.global	obstacle3
 3374              		.global	obstacle2
 3375              		.global	obstacle1
 3376              		.comm	speedR,4,4
 3377              		.comm	speedL,1,1
 3378              		.comm	countR,4,4
 3379              		.comm	countL,4,4
 3380              		.comm	Base,4,4
 3381              		.global	state
 3382              		.data
 3383              		.align	2
 3384              		.set	.LANCHOR0,. + 0
 3385              		.type	S1_distance, %object
 3386              		.size	S1_distance, 4
 3387              	S1_distance:
 3388 0000 0F000000 		.word	15
 3389              		.type	S2_distance, %object
 3390              		.size	S2_distance, 4
 3391              	S2_distance:
 3392 0004 0F000000 		.word	15
 3393              		.type	S3_distance, %object
 3394              		.size	S3_distance, 4
 3395              	S3_distance:
 3396 0008 0F000000 		.word	15
 3397              		.type	S4_distance, %object
 3398              		.size	S4_distance, 4
 3399              	S4_distance:
 3400 000c 0F000000 		.word	15
 3401              		.section	.rodata.str1.4,"aMS",%progbits,1
ARM GAS  C:\Users\pasan savindu\AppData\Local\Temp\ccY2T3Z5.s 			page 80


 3402              		.align	2
 3403              	.LC0:
 3404 0000 2564200A 		.ascii	"%d \012\000"
 3404      00
 3405              		.bss
 3406              		.align	2
 3407              		.set	.LANCHOR1,. + 0
 3408              		.type	obstacle1, %object
 3409              		.size	obstacle1, 1
 3410              	obstacle1:
 3411 0000 00       		.space	1
 3412              		.type	obstacle2, %object
 3413              		.size	obstacle2, 1
 3414              	obstacle2:
 3415 0001 00       		.space	1
 3416              		.type	obstacle3, %object
 3417              		.size	obstacle3, 1
 3418              	obstacle3:
 3419 0002 00       		.space	1
 3420              		.type	obstacle4, %object
 3421              		.size	obstacle4, 1
 3422              	obstacle4:
 3423 0003 00       		.space	1
 3424              		.type	iFreq, %object
 3425              		.size	iFreq, 2
 3426              	iFreq:
 3427 0004 0000     		.space	2
 3428 0006 0000     		.space	2
 3429              		.type	dataReady, %object
 3430              		.size	dataReady, 4
 3431              	dataReady:
 3432 0008 00000000 		.space	4
 3433              		.type	state, %object
 3434              		.size	state, 1
 3435              	state:
 3436 000c 00       		.space	1
 3437 000d 000000   		.space	3
 3438              		.type	position, %object
 3439              		.size	position, 4
 3440              	position:
 3441 0010 00000000 		.space	4
 3442              		.text
 3443              	.Letext0:
 3444              		.file 2 "c:\\program files (x86)\\cypress\\psoc creator\\4.2\\psoc creator\\import\\gnu\\arm\\5.4.
 3445              		.file 3 "c:\\program files (x86)\\cypress\\psoc creator\\4.2\\psoc creator\\import\\gnu\\arm\\5.4.
 3446              		.file 4 "Generated_Source\\PSoC5/cytypes.h"
 3447              		.file 5 "c:\\program files (x86)\\cypress\\psoc creator\\4.2\\psoc creator\\import\\gnu\\arm\\5.4.
 3448              		.file 6 "Generated_Source\\PSoC5/core_cm3.h"
 3449              		.file 7 "Generated_Source\\PSoC5/S1_Timer.h"
 3450              		.file 8 "Generated_Source\\PSoC5/S2_Timer.h"
 3451              		.file 9 "Generated_Source\\PSoC5/S3_Timer.h"
 3452              		.file 10 "Generated_Source\\PSoC5/S4_Timer.h"
 3453              		.file 11 "Generated_Source\\PSoC5/Color_Counter.h"
 3454              		.file 12 "Generated_Source\\PSoC5/Color_Timer.h"
 3455              		.file 13 "Generated_Source\\PSoC5/Color_LED.h"
 3456              		.file 14 "Generated_Source\\PSoC5/isr_6.h"
 3457              		.file 15 "Generated_Source\\PSoC5/IR_Out.h"
ARM GAS  C:\Users\pasan savindu\AppData\Local\Temp\ccY2T3Z5.s 			page 81


 3458              		.file 16 "Generated_Source\\PSoC5/QuadDec_L.h"
 3459              		.file 17 "Generated_Source\\PSoC5/QuadDec_R.h"
 3460              		.file 18 "Generated_Source\\PSoC5/Forward_L.h"
 3461              		.file 19 "Generated_Source\\PSoC5/Backward_L.h"
 3462              		.file 20 "Generated_Source\\PSoC5/Forwad_R.h"
 3463              		.file 21 "Generated_Source\\PSoC5/Backward_R.h"
 3464              		.file 22 "Generated_Source\\PSoC5/PWM_Motor.h"
 3465              		.file 23 "Generated_Source\\PSoC5/limitSW_1.h"
 3466              		.file 24 "Generated_Source\\PSoC5/limitSW_2.h"
 3467              		.file 25 "Generated_Source\\PSoC5/CyLib.h"
 3468              		.file 26 "Generated_Source\\PSoC5/S3_Trigger.h"
 3469              		.file 27 "Generated_Source\\PSoC5/S3_Echo.h"
 3470              		.file 28 "Generated_Source\\PSoC5/S4_Trigger.h"
 3471              		.file 29 "Generated_Source\\PSoC5/S4_Echo.h"
 3472              		.file 30 "Generated_Source\\PSoC5/Control_Reg_Color.h"
 3473              		.file 31 "Generated_Source\\PSoC5/Flicker_Servo.h"
 3474              		.file 32 "Generated_Source\\PSoC5/RobotArm_Servo.h"
 3475              		.file 33 "Generated_Source\\PSoC5/isr_1.h"
 3476              		.file 34 "Generated_Source\\PSoC5/isr_2.h"
 3477              		.file 35 "Generated_Source\\PSoC5/isr_3.h"
 3478              		.file 36 "Generated_Source\\PSoC5/isr_4.h"
 3479              		.file 37 "Generated_Source\\PSoC5/UART.h"
 3480              		.file 38 "Generated_Source\\PSoC5/I2C.h"
 3481              		.file 39 "Generated_Source\\PSoC5/Color_S2.h"
 3482              		.file 40 "Generated_Source\\PSoC5/Color_S3.h"
 3483              		.file 41 "Generated_Source\\PSoC5/Color_S0.h"
 3484              		.file 42 "Generated_Source\\PSoC5/Color_S1.h"
 3485              		.file 43 "c:\\program files (x86)\\cypress\\psoc creator\\4.2\\psoc creator\\import\\gnu\\arm\\5.4
 3486              		.file 44 "c:\\program files (x86)\\cypress\\psoc creator\\4.2\\psoc creator\\import\\gnu\\arm\\5.4
 3487              		.file 45 "Generated_Source\\PSoC5/S1_Trigger.h"
 3488              		.file 46 "Generated_Source\\PSoC5/S1_Echo.h"
 3489              		.file 47 "Generated_Source\\PSoC5/S2_Trigger.h"
 3490              		.file 48 "Generated_Source\\PSoC5/S2_Echo.h"
 3491              		.file 49 "Generated_Source\\PSoC5/RED_LED.h"
 3492              		.file 50 "Generated_Source\\PSoC5/BLUE_LED.h"
 3493              		.file 51 "Generated_Source\\PSoC5/Base_Selector.h"
 3494              		.section	.debug_info,"",%progbits
 3495              	.Ldebug_info0:
 3496 0000 DB210000 		.4byte	0x21db
 3497 0004 0400     		.2byte	0x4
 3498 0006 00000000 		.4byte	.Ldebug_abbrev0
 3499 000a 04       		.byte	0x4
 3500 000b 01       		.uleb128 0x1
 3501 000c 7E020000 		.4byte	.LASF158
 3502 0010 0C       		.byte	0xc
 3503 0011 22000000 		.4byte	.LASF159
 3504 0015 CA080000 		.4byte	.LASF160
 3505 0019 00000000 		.4byte	.Ldebug_ranges0+0
 3506 001d 00000000 		.4byte	0
 3507 0021 00000000 		.4byte	.Ldebug_line0
 3508 0025 02       		.uleb128 0x2
 3509 0026 01       		.byte	0x1
 3510 0027 06       		.byte	0x6
 3511 0028 5D080000 		.4byte	.LASF0
 3512 002c 02       		.uleb128 0x2
 3513 002d 01       		.byte	0x1
 3514 002e 08       		.byte	0x8
ARM GAS  C:\Users\pasan savindu\AppData\Local\Temp\ccY2T3Z5.s 			page 82


 3515 002f 95070000 		.4byte	.LASF1
 3516 0033 02       		.uleb128 0x2
 3517 0034 02       		.byte	0x2
 3518 0035 05       		.byte	0x5
 3519 0036 B9050000 		.4byte	.LASF2
 3520 003a 03       		.uleb128 0x3
 3521 003b 1D020000 		.4byte	.LASF4
 3522 003f 02       		.byte	0x2
 3523 0040 2B       		.byte	0x2b
 3524 0041 45000000 		.4byte	0x45
 3525 0045 02       		.uleb128 0x2
 3526 0046 02       		.byte	0x2
 3527 0047 07       		.byte	0x7
 3528 0048 77080000 		.4byte	.LASF3
 3529 004c 03       		.uleb128 0x3
 3530 004d D2000000 		.4byte	.LASF5
 3531 0051 02       		.byte	0x2
 3532 0052 3F       		.byte	0x3f
 3533 0053 57000000 		.4byte	0x57
 3534 0057 02       		.uleb128 0x2
 3535 0058 04       		.byte	0x4
 3536 0059 05       		.byte	0x5
 3537 005a ED050000 		.4byte	.LASF6
 3538 005e 02       		.uleb128 0x2
 3539 005f 04       		.byte	0x4
 3540 0060 07       		.byte	0x7
 3541 0061 0D070000 		.4byte	.LASF7
 3542 0065 02       		.uleb128 0x2
 3543 0066 08       		.byte	0x8
 3544 0067 05       		.byte	0x5
 3545 0068 58040000 		.4byte	.LASF8
 3546 006c 02       		.uleb128 0x2
 3547 006d 08       		.byte	0x8
 3548 006e 07       		.byte	0x7
 3549 006f 06020000 		.4byte	.LASF9
 3550 0073 04       		.uleb128 0x4
 3551 0074 04       		.byte	0x4
 3552 0075 05       		.byte	0x5
 3553 0076 696E7400 		.ascii	"int\000"
 3554 007a 02       		.uleb128 0x2
 3555 007b 04       		.byte	0x4
 3556 007c 07       		.byte	0x7
 3557 007d 7E000000 		.4byte	.LASF10
 3558 0081 03       		.uleb128 0x3
 3559 0082 33050000 		.4byte	.LASF11
 3560 0086 03       		.byte	0x3
 3561 0087 24       		.byte	0x24
 3562 0088 3A000000 		.4byte	0x3a
 3563 008c 03       		.uleb128 0x3
 3564 008d 3C070000 		.4byte	.LASF12
 3565 0091 03       		.byte	0x3
 3566 0092 2C       		.byte	0x2c
 3567 0093 4C000000 		.4byte	0x4c
 3568 0097 05       		.uleb128 0x5
 3569 0098 D6030000 		.4byte	.LASF13
 3570 009c 04       		.byte	0x4
 3571 009d E701     		.2byte	0x1e7
ARM GAS  C:\Users\pasan savindu\AppData\Local\Temp\ccY2T3Z5.s 			page 83


 3572 009f 25000000 		.4byte	0x25
 3573 00a3 05       		.uleb128 0x5
 3574 00a4 DC000000 		.4byte	.LASF14
 3575 00a8 04       		.byte	0x4
 3576 00a9 E801     		.2byte	0x1e8
 3577 00ab 33000000 		.4byte	0x33
 3578 00af 02       		.uleb128 0x2
 3579 00b0 04       		.byte	0x4
 3580 00b1 04       		.byte	0x4
 3581 00b2 B6010000 		.4byte	.LASF15
 3582 00b6 02       		.uleb128 0x2
 3583 00b7 08       		.byte	0x8
 3584 00b8 04       		.byte	0x4
 3585 00b9 21090000 		.4byte	.LASF16
 3586 00bd 02       		.uleb128 0x2
 3587 00be 01       		.byte	0x1
 3588 00bf 08       		.byte	0x8
 3589 00c0 AF030000 		.4byte	.LASF17
 3590 00c4 02       		.uleb128 0x2
 3591 00c5 08       		.byte	0x8
 3592 00c6 04       		.byte	0x4
 3593 00c7 1F050000 		.4byte	.LASF18
 3594 00cb 02       		.uleb128 0x2
 3595 00cc 04       		.byte	0x4
 3596 00cd 07       		.byte	0x7
 3597 00ce 04070000 		.4byte	.LASF19
 3598 00d2 03       		.uleb128 0x3
 3599 00d3 1C090000 		.4byte	.LASF20
 3600 00d7 05       		.byte	0x5
 3601 00d8 6C       		.byte	0x6c
 3602 00d9 7A000000 		.4byte	0x7a
 3603 00dd 06       		.uleb128 0x6
 3604 00de 85010000 		.4byte	.LASF21
 3605 00e2 01       		.byte	0x1
 3606 00e3 3F       		.byte	0x3f
 3607 00e4 00000000 		.4byte	.LFB64
 3608 00e8 60000000 		.4byte	.LFE64-.LFB64
 3609 00ec 01       		.uleb128 0x1
 3610 00ed 9C       		.byte	0x9c
 3611 00ee 14010000 		.4byte	0x114
 3612 00f2 07       		.uleb128 0x7
 3613 00f3 A4050000 		.4byte	.LASF23
 3614 00f7 01       		.byte	0x1
 3615 00f8 40       		.byte	0x40
 3616 00f9 AF000000 		.4byte	0xaf
 3617 00fd 00000000 		.4byte	.LLST0
 3618 0101 08       		.uleb128 0x8
 3619 0102 06000000 		.4byte	.LVL0
 3620 0106 B01E0000 		.4byte	0x1eb0
 3621 010a 08       		.uleb128 0x8
 3622 010b 0A000000 		.4byte	.LVL1
 3623 010f BB1E0000 		.4byte	0x1ebb
 3624 0113 00       		.byte	0
 3625 0114 06       		.uleb128 0x6
 3626 0115 21040000 		.4byte	.LASF22
 3627 0119 01       		.byte	0x1
 3628 011a 4A       		.byte	0x4a
ARM GAS  C:\Users\pasan savindu\AppData\Local\Temp\ccY2T3Z5.s 			page 84


 3629 011b 00000000 		.4byte	.LFB65
 3630 011f 60000000 		.4byte	.LFE65-.LFB65
 3631 0123 01       		.uleb128 0x1
 3632 0124 9C       		.byte	0x9c
 3633 0125 4B010000 		.4byte	0x14b
 3634 0129 07       		.uleb128 0x7
 3635 012a AB050000 		.4byte	.LASF24
 3636 012e 01       		.byte	0x1
 3637 012f 4B       		.byte	0x4b
 3638 0130 AF000000 		.4byte	0xaf
 3639 0134 1E000000 		.4byte	.LLST1
 3640 0138 08       		.uleb128 0x8
 3641 0139 06000000 		.4byte	.LVL10
 3642 013d C61E0000 		.4byte	0x1ec6
 3643 0141 08       		.uleb128 0x8
 3644 0142 0A000000 		.4byte	.LVL11
 3645 0146 D11E0000 		.4byte	0x1ed1
 3646 014a 00       		.byte	0
 3647 014b 06       		.uleb128 0x6
 3648 014c A0060000 		.4byte	.LASF25
 3649 0150 01       		.byte	0x1
 3650 0151 55       		.byte	0x55
 3651 0152 00000000 		.4byte	.LFB66
 3652 0156 60000000 		.4byte	.LFE66-.LFB66
 3653 015a 01       		.uleb128 0x1
 3654 015b 9C       		.byte	0x9c
 3655 015c 82010000 		.4byte	0x182
 3656 0160 07       		.uleb128 0x7
 3657 0161 B2050000 		.4byte	.LASF26
 3658 0165 01       		.byte	0x1
 3659 0166 56       		.byte	0x56
 3660 0167 AF000000 		.4byte	0xaf
 3661 016b 3C000000 		.4byte	.LLST2
 3662 016f 08       		.uleb128 0x8
 3663 0170 06000000 		.4byte	.LVL20
 3664 0174 DC1E0000 		.4byte	0x1edc
 3665 0178 08       		.uleb128 0x8
 3666 0179 0A000000 		.4byte	.LVL21
 3667 017d E71E0000 		.4byte	0x1ee7
 3668 0181 00       		.byte	0
 3669 0182 06       		.uleb128 0x6
 3670 0183 41000000 		.4byte	.LASF27
 3671 0187 01       		.byte	0x1
 3672 0188 62       		.byte	0x62
 3673 0189 00000000 		.4byte	.LFB67
 3674 018d 60000000 		.4byte	.LFE67-.LFB67
 3675 0191 01       		.uleb128 0x1
 3676 0192 9C       		.byte	0x9c
 3677 0193 B9010000 		.4byte	0x1b9
 3678 0197 07       		.uleb128 0x7
 3679 0198 2E010000 		.4byte	.LASF28
 3680 019c 01       		.byte	0x1
 3681 019d 63       		.byte	0x63
 3682 019e AF000000 		.4byte	0xaf
 3683 01a2 5A000000 		.4byte	.LLST3
 3684 01a6 08       		.uleb128 0x8
 3685 01a7 06000000 		.4byte	.LVL30
ARM GAS  C:\Users\pasan savindu\AppData\Local\Temp\ccY2T3Z5.s 			page 85


 3686 01ab F21E0000 		.4byte	0x1ef2
 3687 01af 08       		.uleb128 0x8
 3688 01b0 0A000000 		.4byte	.LVL31
 3689 01b4 FD1E0000 		.4byte	0x1efd
 3690 01b8 00       		.byte	0
 3691 01b9 09       		.uleb128 0x9
 3692 01ba 44050000 		.4byte	.LASF29
 3693 01be 01       		.byte	0x1
 3694 01bf 81       		.byte	0x81
 3695 01c0 00000000 		.4byte	.LFB69
 3696 01c4 2C000000 		.4byte	.LFE69-.LFB69
 3697 01c8 01       		.uleb128 0x1
 3698 01c9 9C       		.byte	0x9c
 3699 01ca 0F020000 		.4byte	0x20f
 3700 01ce 08       		.uleb128 0x8
 3701 01cf 06000000 		.4byte	.LVL40
 3702 01d3 081F0000 		.4byte	0x1f08
 3703 01d7 08       		.uleb128 0x8
 3704 01d8 0A000000 		.4byte	.LVL41
 3705 01dc 131F0000 		.4byte	0x1f13
 3706 01e0 0A       		.uleb128 0xa
 3707 01e1 10000000 		.4byte	.LVL42
 3708 01e5 1E1F0000 		.4byte	0x1f1e
 3709 01e9 F3010000 		.4byte	0x1f3
 3710 01ed 0B       		.uleb128 0xb
 3711 01ee 01       		.uleb128 0x1
 3712 01ef 50       		.byte	0x50
 3713 01f0 01       		.uleb128 0x1
 3714 01f1 30       		.byte	0x30
 3715 01f2 00       		.byte	0
 3716 01f3 08       		.uleb128 0x8
 3717 01f4 14000000 		.4byte	.LVL43
 3718 01f8 291F0000 		.4byte	0x1f29
 3719 01fc 08       		.uleb128 0x8
 3720 01fd 18000000 		.4byte	.LVL44
 3721 0201 341F0000 		.4byte	0x1f34
 3722 0205 08       		.uleb128 0x8
 3723 0206 1C000000 		.4byte	.LVL45
 3724 020a 3F1F0000 		.4byte	0x1f3f
 3725 020e 00       		.byte	0
 3726 020f 09       		.uleb128 0x9
 3727 0210 42030000 		.4byte	.LASF30
 3728 0214 01       		.byte	0x1
 3729 0215 75       		.byte	0x75
 3730 0216 00000000 		.4byte	.LFB68
 3731 021a 2C000000 		.4byte	.LFE68-.LFB68
 3732 021e 01       		.uleb128 0x1
 3733 021f 9C       		.byte	0x9c
 3734 0220 49020000 		.4byte	0x249
 3735 0224 08       		.uleb128 0x8
 3736 0225 06000000 		.4byte	.LVL46
 3737 0229 4A1F0000 		.4byte	0x1f4a
 3738 022d 08       		.uleb128 0x8
 3739 022e 14000000 		.4byte	.LVL47
 3740 0232 551F0000 		.4byte	0x1f55
 3741 0236 08       		.uleb128 0x8
 3742 0237 1A000000 		.4byte	.LVL48
ARM GAS  C:\Users\pasan savindu\AppData\Local\Temp\ccY2T3Z5.s 			page 86


 3743 023b 4A1F0000 		.4byte	0x1f4a
 3744 023f 08       		.uleb128 0x8
 3745 0240 26000000 		.4byte	.LVL49
 3746 0244 551F0000 		.4byte	0x1f55
 3747 0248 00       		.byte	0
 3748 0249 09       		.uleb128 0x9
 3749 024a D1040000 		.4byte	.LASF31
 3750 024e 01       		.byte	0x1
 3751 024f F3       		.byte	0xf3
 3752 0250 00000000 		.4byte	.LFB72
 3753 0254 8C000000 		.4byte	.LFE72-.LFB72
 3754 0258 01       		.uleb128 0x1
 3755 0259 9C       		.byte	0x9c
 3756 025a 80020000 		.4byte	0x280
 3757 025e 0C       		.uleb128 0xc
 3758 025f FA070000 		.4byte	.LASF33
 3759 0263 01       		.byte	0x1
 3760 0264 F3       		.byte	0xf3
 3761 0265 BD000000 		.4byte	0xbd
 3762 0269 78000000 		.4byte	.LLST4
 3763 026d 08       		.uleb128 0x8
 3764 026e 08000000 		.4byte	.LVL51
 3765 0272 601F0000 		.4byte	0x1f60
 3766 0276 08       		.uleb128 0x8
 3767 0277 10000000 		.4byte	.LVL52
 3768 027b 6B1F0000 		.4byte	0x1f6b
 3769 027f 00       		.byte	0
 3770 0280 0D       		.uleb128 0xd
 3771 0281 31060000 		.4byte	.LASF32
 3772 0285 01       		.byte	0x1
 3773 0286 1001     		.2byte	0x110
 3774 0288 00000000 		.4byte	.LFB73
 3775 028c 20020000 		.4byte	.LFE73-.LFB73
 3776 0290 01       		.uleb128 0x1
 3777 0291 9C       		.byte	0x9c
 3778 0292 5B070000 		.4byte	0x75b
 3779 0296 0E       		.uleb128 0xe
 3780 0297 6F707400 		.ascii	"opt\000"
 3781 029b 01       		.byte	0x1
 3782 029c 1001     		.2byte	0x110
 3783 029e BD000000 		.4byte	0xbd
 3784 02a2 99000000 		.4byte	.LLST5
 3785 02a6 0A       		.uleb128 0xa
 3786 02a7 5E000000 		.4byte	.LVL55
 3787 02ab 49020000 		.4byte	0x249
 3788 02af BA020000 		.4byte	0x2ba
 3789 02b3 0B       		.uleb128 0xb
 3790 02b4 01       		.uleb128 0x1
 3791 02b5 50       		.byte	0x50
 3792 02b6 02       		.uleb128 0x2
 3793 02b7 08       		.byte	0x8
 3794 02b8 46       		.byte	0x46
 3795 02b9 00       		.byte	0
 3796 02ba 0A       		.uleb128 0xa
 3797 02bb 64000000 		.4byte	.LVL56
 3798 02bf 761F0000 		.4byte	0x1f76
 3799 02c3 CD020000 		.4byte	0x2cd
ARM GAS  C:\Users\pasan savindu\AppData\Local\Temp\ccY2T3Z5.s 			page 87


 3800 02c7 0B       		.uleb128 0xb
 3801 02c8 01       		.uleb128 0x1
 3802 02c9 50       		.byte	0x50
 3803 02ca 01       		.uleb128 0x1
 3804 02cb 31       		.byte	0x31
 3805 02cc 00       		.byte	0
 3806 02cd 0A       		.uleb128 0xa
 3807 02ce 6A000000 		.4byte	.LVL57
 3808 02d2 811F0000 		.4byte	0x1f81
 3809 02d6 E0020000 		.4byte	0x2e0
 3810 02da 0B       		.uleb128 0xb
 3811 02db 01       		.uleb128 0x1
 3812 02dc 50       		.byte	0x50
 3813 02dd 01       		.uleb128 0x1
 3814 02de 30       		.byte	0x30
 3815 02df 00       		.byte	0
 3816 02e0 0A       		.uleb128 0xa
 3817 02e1 70000000 		.4byte	.LVL58
 3818 02e5 8C1F0000 		.4byte	0x1f8c
 3819 02e9 F3020000 		.4byte	0x2f3
 3820 02ed 0B       		.uleb128 0xb
 3821 02ee 01       		.uleb128 0x1
 3822 02ef 50       		.byte	0x50
 3823 02f0 01       		.uleb128 0x1
 3824 02f1 31       		.byte	0x31
 3825 02f2 00       		.byte	0
 3826 02f3 0A       		.uleb128 0xa
 3827 02f4 76000000 		.4byte	.LVL59
 3828 02f8 971F0000 		.4byte	0x1f97
 3829 02fc 06030000 		.4byte	0x306
 3830 0300 0B       		.uleb128 0xb
 3831 0301 01       		.uleb128 0x1
 3832 0302 50       		.byte	0x50
 3833 0303 01       		.uleb128 0x1
 3834 0304 30       		.byte	0x30
 3835 0305 00       		.byte	0
 3836 0306 08       		.uleb128 0x8
 3837 0307 82000000 		.4byte	.LVL60
 3838 030b A21F0000 		.4byte	0x1fa2
 3839 030f 08       		.uleb128 0x8
 3840 0310 8A000000 		.4byte	.LVL61
 3841 0314 AD1F0000 		.4byte	0x1fad
 3842 0318 0A       		.uleb128 0xa
 3843 0319 92000000 		.4byte	.LVL62
 3844 031d 49020000 		.4byte	0x249
 3845 0321 2C030000 		.4byte	0x32c
 3846 0325 0B       		.uleb128 0xb
 3847 0326 01       		.uleb128 0x1
 3848 0327 50       		.byte	0x50
 3849 0328 02       		.uleb128 0x2
 3850 0329 08       		.byte	0x8
 3851 032a 46       		.byte	0x46
 3852 032b 00       		.byte	0
 3853 032c 0A       		.uleb128 0xa
 3854 032d 98000000 		.4byte	.LVL63
 3855 0331 761F0000 		.4byte	0x1f76
 3856 0335 3F030000 		.4byte	0x33f
ARM GAS  C:\Users\pasan savindu\AppData\Local\Temp\ccY2T3Z5.s 			page 88


 3857 0339 0B       		.uleb128 0xb
 3858 033a 01       		.uleb128 0x1
 3859 033b 50       		.byte	0x50
 3860 033c 01       		.uleb128 0x1
 3861 033d 31       		.byte	0x31
 3862 033e 00       		.byte	0
 3863 033f 0A       		.uleb128 0xa
 3864 0340 9E000000 		.4byte	.LVL64
 3865 0344 811F0000 		.4byte	0x1f81
 3866 0348 52030000 		.4byte	0x352
 3867 034c 0B       		.uleb128 0xb
 3868 034d 01       		.uleb128 0x1
 3869 034e 50       		.byte	0x50
 3870 034f 01       		.uleb128 0x1
 3871 0350 30       		.byte	0x30
 3872 0351 00       		.byte	0
 3873 0352 0A       		.uleb128 0xa
 3874 0353 A4000000 		.4byte	.LVL65
 3875 0357 8C1F0000 		.4byte	0x1f8c
 3876 035b 65030000 		.4byte	0x365
 3877 035f 0B       		.uleb128 0xb
 3878 0360 01       		.uleb128 0x1
 3879 0361 50       		.byte	0x50
 3880 0362 01       		.uleb128 0x1
 3881 0363 31       		.byte	0x31
 3882 0364 00       		.byte	0
 3883 0365 0A       		.uleb128 0xa
 3884 0366 AA000000 		.4byte	.LVL66
 3885 036a 971F0000 		.4byte	0x1f97
 3886 036e 78030000 		.4byte	0x378
 3887 0372 0B       		.uleb128 0xb
 3888 0373 01       		.uleb128 0x1
 3889 0374 50       		.byte	0x50
 3890 0375 01       		.uleb128 0x1
 3891 0376 30       		.byte	0x30
 3892 0377 00       		.byte	0
 3893 0378 0A       		.uleb128 0xa
 3894 0379 B0000000 		.4byte	.LVL67
 3895 037d A21F0000 		.4byte	0x1fa2
 3896 0381 8C030000 		.4byte	0x38c
 3897 0385 0B       		.uleb128 0xb
 3898 0386 01       		.uleb128 0x1
 3899 0387 50       		.byte	0x50
 3900 0388 02       		.uleb128 0x2
 3901 0389 08       		.byte	0x8
 3902 038a 50       		.byte	0x50
 3903 038b 00       		.byte	0
 3904 038c 0A       		.uleb128 0xa
 3905 038d B6000000 		.4byte	.LVL68
 3906 0391 AD1F0000 		.4byte	0x1fad
 3907 0395 A0030000 		.4byte	0x3a0
 3908 0399 0B       		.uleb128 0xb
 3909 039a 01       		.uleb128 0x1
 3910 039b 50       		.byte	0x50
 3911 039c 02       		.uleb128 0x2
 3912 039d 08       		.byte	0x8
 3913 039e 50       		.byte	0x50
ARM GAS  C:\Users\pasan savindu\AppData\Local\Temp\ccY2T3Z5.s 			page 89


 3914 039f 00       		.byte	0
 3915 03a0 0A       		.uleb128 0xa
 3916 03a1 BE000000 		.4byte	.LVL69
 3917 03a5 49020000 		.4byte	0x249
 3918 03a9 B4030000 		.4byte	0x3b4
 3919 03ad 0B       		.uleb128 0xb
 3920 03ae 01       		.uleb128 0x1
 3921 03af 50       		.byte	0x50
 3922 03b0 02       		.uleb128 0x2
 3923 03b1 08       		.byte	0x8
 3924 03b2 42       		.byte	0x42
 3925 03b3 00       		.byte	0
 3926 03b4 0A       		.uleb128 0xa
 3927 03b5 C4000000 		.4byte	.LVL70
 3928 03b9 761F0000 		.4byte	0x1f76
 3929 03bd C7030000 		.4byte	0x3c7
 3930 03c1 0B       		.uleb128 0xb
 3931 03c2 01       		.uleb128 0x1
 3932 03c3 50       		.byte	0x50
 3933 03c4 01       		.uleb128 0x1
 3934 03c5 30       		.byte	0x30
 3935 03c6 00       		.byte	0
 3936 03c7 0A       		.uleb128 0xa
 3937 03c8 CA000000 		.4byte	.LVL71
 3938 03cc 811F0000 		.4byte	0x1f81
 3939 03d0 DA030000 		.4byte	0x3da
 3940 03d4 0B       		.uleb128 0xb
 3941 03d5 01       		.uleb128 0x1
 3942 03d6 50       		.byte	0x50
 3943 03d7 01       		.uleb128 0x1
 3944 03d8 31       		.byte	0x31
 3945 03d9 00       		.byte	0
 3946 03da 0A       		.uleb128 0xa
 3947 03db D0000000 		.4byte	.LVL72
 3948 03df 8C1F0000 		.4byte	0x1f8c
 3949 03e3 ED030000 		.4byte	0x3ed
 3950 03e7 0B       		.uleb128 0xb
 3951 03e8 01       		.uleb128 0x1
 3952 03e9 50       		.byte	0x50
 3953 03ea 01       		.uleb128 0x1
 3954 03eb 30       		.byte	0x30
 3955 03ec 00       		.byte	0
 3956 03ed 0A       		.uleb128 0xa
 3957 03ee D6000000 		.4byte	.LVL73
 3958 03f2 971F0000 		.4byte	0x1f97
 3959 03f6 00040000 		.4byte	0x400
 3960 03fa 0B       		.uleb128 0xb
 3961 03fb 01       		.uleb128 0x1
 3962 03fc 50       		.byte	0x50
 3963 03fd 01       		.uleb128 0x1
 3964 03fe 31       		.byte	0x31
 3965 03ff 00       		.byte	0
 3966 0400 08       		.uleb128 0x8
 3967 0401 E2000000 		.4byte	.LVL74
 3968 0405 A21F0000 		.4byte	0x1fa2
 3969 0409 08       		.uleb128 0x8
 3970 040a EA000000 		.4byte	.LVL75
ARM GAS  C:\Users\pasan savindu\AppData\Local\Temp\ccY2T3Z5.s 			page 90


 3971 040e AD1F0000 		.4byte	0x1fad
 3972 0412 0A       		.uleb128 0xa
 3973 0413 F2000000 		.4byte	.LVL76
 3974 0417 49020000 		.4byte	0x249
 3975 041b 26040000 		.4byte	0x426
 3976 041f 0B       		.uleb128 0xb
 3977 0420 01       		.uleb128 0x1
 3978 0421 50       		.byte	0x50
 3979 0422 02       		.uleb128 0x2
 3980 0423 08       		.byte	0x8
 3981 0424 42       		.byte	0x42
 3982 0425 00       		.byte	0
 3983 0426 0A       		.uleb128 0xa
 3984 0427 F8000000 		.4byte	.LVL77
 3985 042b 761F0000 		.4byte	0x1f76
 3986 042f 39040000 		.4byte	0x439
 3987 0433 0B       		.uleb128 0xb
 3988 0434 01       		.uleb128 0x1
 3989 0435 50       		.byte	0x50
 3990 0436 01       		.uleb128 0x1
 3991 0437 30       		.byte	0x30
 3992 0438 00       		.byte	0
 3993 0439 0A       		.uleb128 0xa
 3994 043a FE000000 		.4byte	.LVL78
 3995 043e 811F0000 		.4byte	0x1f81
 3996 0442 4C040000 		.4byte	0x44c
 3997 0446 0B       		.uleb128 0xb
 3998 0447 01       		.uleb128 0x1
 3999 0448 50       		.byte	0x50
 4000 0449 01       		.uleb128 0x1
 4001 044a 31       		.byte	0x31
 4002 044b 00       		.byte	0
 4003 044c 0A       		.uleb128 0xa
 4004 044d 04010000 		.4byte	.LVL79
 4005 0451 8C1F0000 		.4byte	0x1f8c
 4006 0455 5F040000 		.4byte	0x45f
 4007 0459 0B       		.uleb128 0xb
 4008 045a 01       		.uleb128 0x1
 4009 045b 50       		.byte	0x50
 4010 045c 01       		.uleb128 0x1
 4011 045d 30       		.byte	0x30
 4012 045e 00       		.byte	0
 4013 045f 0A       		.uleb128 0xa
 4014 0460 0A010000 		.4byte	.LVL80
 4015 0464 971F0000 		.4byte	0x1f97
 4016 0468 72040000 		.4byte	0x472
 4017 046c 0B       		.uleb128 0xb
 4018 046d 01       		.uleb128 0x1
 4019 046e 50       		.byte	0x50
 4020 046f 01       		.uleb128 0x1
 4021 0470 31       		.byte	0x31
 4022 0471 00       		.byte	0
 4023 0472 08       		.uleb128 0x8
 4024 0473 18010000 		.4byte	.LVL81
 4025 0477 A21F0000 		.4byte	0x1fa2
 4026 047b 08       		.uleb128 0x8
 4027 047c 24010000 		.4byte	.LVL82
ARM GAS  C:\Users\pasan savindu\AppData\Local\Temp\ccY2T3Z5.s 			page 91


 4028 0480 AD1F0000 		.4byte	0x1fad
 4029 0484 0A       		.uleb128 0xa
 4030 0485 2C010000 		.4byte	.LVL83
 4031 0489 761F0000 		.4byte	0x1f76
 4032 048d 97040000 		.4byte	0x497
 4033 0491 0B       		.uleb128 0xb
 4034 0492 01       		.uleb128 0x1
 4035 0493 50       		.byte	0x50
 4036 0494 01       		.uleb128 0x1
 4037 0495 30       		.byte	0x30
 4038 0496 00       		.byte	0
 4039 0497 0A       		.uleb128 0xa
 4040 0498 32010000 		.4byte	.LVL84
 4041 049c 811F0000 		.4byte	0x1f81
 4042 04a0 AA040000 		.4byte	0x4aa
 4043 04a4 0B       		.uleb128 0xb
 4044 04a5 01       		.uleb128 0x1
 4045 04a6 50       		.byte	0x50
 4046 04a7 01       		.uleb128 0x1
 4047 04a8 30       		.byte	0x30
 4048 04a9 00       		.byte	0
 4049 04aa 0A       		.uleb128 0xa
 4050 04ab 38010000 		.4byte	.LVL85
 4051 04af 8C1F0000 		.4byte	0x1f8c
 4052 04b3 BD040000 		.4byte	0x4bd
 4053 04b7 0B       		.uleb128 0xb
 4054 04b8 01       		.uleb128 0x1
 4055 04b9 50       		.byte	0x50
 4056 04ba 01       		.uleb128 0x1
 4057 04bb 30       		.byte	0x30
 4058 04bc 00       		.byte	0
 4059 04bd 0A       		.uleb128 0xa
 4060 04be 3E010000 		.4byte	.LVL86
 4061 04c2 971F0000 		.4byte	0x1f97
 4062 04c6 D0040000 		.4byte	0x4d0
 4063 04ca 0B       		.uleb128 0xb
 4064 04cb 01       		.uleb128 0x1
 4065 04cc 50       		.byte	0x50
 4066 04cd 01       		.uleb128 0x1
 4067 04ce 30       		.byte	0x30
 4068 04cf 00       		.byte	0
 4069 04d0 0A       		.uleb128 0xa
 4070 04d1 44010000 		.4byte	.LVL87
 4071 04d5 A21F0000 		.4byte	0x1fa2
 4072 04d9 E3040000 		.4byte	0x4e3
 4073 04dd 0B       		.uleb128 0xb
 4074 04de 01       		.uleb128 0x1
 4075 04df 50       		.byte	0x50
 4076 04e0 01       		.uleb128 0x1
 4077 04e1 30       		.byte	0x30
 4078 04e2 00       		.byte	0
 4079 04e3 0A       		.uleb128 0xa
 4080 04e4 4A010000 		.4byte	.LVL88
 4081 04e8 AD1F0000 		.4byte	0x1fad
 4082 04ec F6040000 		.4byte	0x4f6
 4083 04f0 0B       		.uleb128 0xb
 4084 04f1 01       		.uleb128 0x1
ARM GAS  C:\Users\pasan savindu\AppData\Local\Temp\ccY2T3Z5.s 			page 92


 4085 04f2 50       		.byte	0x50
 4086 04f3 01       		.uleb128 0x1
 4087 04f4 30       		.byte	0x30
 4088 04f5 00       		.byte	0
 4089 04f6 0A       		.uleb128 0xa
 4090 04f7 50010000 		.4byte	.LVL89
 4091 04fb B81F0000 		.4byte	0x1fb8
 4092 04ff 09050000 		.4byte	0x509
 4093 0503 0B       		.uleb128 0xb
 4094 0504 01       		.uleb128 0x1
 4095 0505 50       		.byte	0x50
 4096 0506 01       		.uleb128 0x1
 4097 0507 30       		.byte	0x30
 4098 0508 00       		.byte	0
 4099 0509 0A       		.uleb128 0xa
 4100 050a 56010000 		.4byte	.LVL90
 4101 050e C31F0000 		.4byte	0x1fc3
 4102 0512 1C050000 		.4byte	0x51c
 4103 0516 0B       		.uleb128 0xb
 4104 0517 01       		.uleb128 0x1
 4105 0518 50       		.byte	0x50
 4106 0519 01       		.uleb128 0x1
 4107 051a 30       		.byte	0x30
 4108 051b 00       		.byte	0
 4109 051c 0A       		.uleb128 0xa
 4110 051d 5E010000 		.4byte	.LVL91
 4111 0521 761F0000 		.4byte	0x1f76
 4112 0525 2F050000 		.4byte	0x52f
 4113 0529 0B       		.uleb128 0xb
 4114 052a 01       		.uleb128 0x1
 4115 052b 50       		.byte	0x50
 4116 052c 01       		.uleb128 0x1
 4117 052d 30       		.byte	0x30
 4118 052e 00       		.byte	0
 4119 052f 0A       		.uleb128 0xa
 4120 0530 64010000 		.4byte	.LVL92
 4121 0534 811F0000 		.4byte	0x1f81
 4122 0538 42050000 		.4byte	0x542
 4123 053c 0B       		.uleb128 0xb
 4124 053d 01       		.uleb128 0x1
 4125 053e 50       		.byte	0x50
 4126 053f 01       		.uleb128 0x1
 4127 0540 31       		.byte	0x31
 4128 0541 00       		.byte	0
 4129 0542 0A       		.uleb128 0xa
 4130 0543 6A010000 		.4byte	.LVL93
 4131 0547 8C1F0000 		.4byte	0x1f8c
 4132 054b 55050000 		.4byte	0x555
 4133 054f 0B       		.uleb128 0xb
 4134 0550 01       		.uleb128 0x1
 4135 0551 50       		.byte	0x50
 4136 0552 01       		.uleb128 0x1
 4137 0553 31       		.byte	0x31
 4138 0554 00       		.byte	0
 4139 0555 0A       		.uleb128 0xa
 4140 0556 70010000 		.4byte	.LVL94
 4141 055a 971F0000 		.4byte	0x1f97
ARM GAS  C:\Users\pasan savindu\AppData\Local\Temp\ccY2T3Z5.s 			page 93


 4142 055e 68050000 		.4byte	0x568
 4143 0562 0B       		.uleb128 0xb
 4144 0563 01       		.uleb128 0x1
 4145 0564 50       		.byte	0x50
 4146 0565 01       		.uleb128 0x1
 4147 0566 30       		.byte	0x30
 4148 0567 00       		.byte	0
 4149 0568 0A       		.uleb128 0xa
 4150 0569 76010000 		.4byte	.LVL95
 4151 056d A21F0000 		.4byte	0x1fa2
 4152 0571 7C050000 		.4byte	0x57c
 4153 0575 0B       		.uleb128 0xb
 4154 0576 01       		.uleb128 0x1
 4155 0577 50       		.byte	0x50
 4156 0578 02       		.uleb128 0x2
 4157 0579 08       		.byte	0x8
 4158 057a 50       		.byte	0x50
 4159 057b 00       		.byte	0
 4160 057c 0A       		.uleb128 0xa
 4161 057d 7C010000 		.4byte	.LVL96
 4162 0581 AD1F0000 		.4byte	0x1fad
 4163 0585 90050000 		.4byte	0x590
 4164 0589 0B       		.uleb128 0xb
 4165 058a 01       		.uleb128 0x1
 4166 058b 50       		.byte	0x50
 4167 058c 02       		.uleb128 0x2
 4168 058d 08       		.byte	0x8
 4169 058e 50       		.byte	0x50
 4170 058f 00       		.byte	0
 4171 0590 0A       		.uleb128 0xa
 4172 0591 84010000 		.4byte	.LVL97
 4173 0595 761F0000 		.4byte	0x1f76
 4174 0599 A3050000 		.4byte	0x5a3
 4175 059d 0B       		.uleb128 0xb
 4176 059e 01       		.uleb128 0x1
 4177 059f 50       		.byte	0x50
 4178 05a0 01       		.uleb128 0x1
 4179 05a1 31       		.byte	0x31
 4180 05a2 00       		.byte	0
 4181 05a3 0A       		.uleb128 0xa
 4182 05a4 8A010000 		.4byte	.LVL98
 4183 05a8 811F0000 		.4byte	0x1f81
 4184 05ac B6050000 		.4byte	0x5b6
 4185 05b0 0B       		.uleb128 0xb
 4186 05b1 01       		.uleb128 0x1
 4187 05b2 50       		.byte	0x50
 4188 05b3 01       		.uleb128 0x1
 4189 05b4 30       		.byte	0x30
 4190 05b5 00       		.byte	0
 4191 05b6 0A       		.uleb128 0xa
 4192 05b7 90010000 		.4byte	.LVL99
 4193 05bb 8C1F0000 		.4byte	0x1f8c
 4194 05bf C9050000 		.4byte	0x5c9
 4195 05c3 0B       		.uleb128 0xb
 4196 05c4 01       		.uleb128 0x1
 4197 05c5 50       		.byte	0x50
 4198 05c6 01       		.uleb128 0x1
ARM GAS  C:\Users\pasan savindu\AppData\Local\Temp\ccY2T3Z5.s 			page 94


 4199 05c7 30       		.byte	0x30
 4200 05c8 00       		.byte	0
 4201 05c9 0A       		.uleb128 0xa
 4202 05ca 96010000 		.4byte	.LVL100
 4203 05ce 971F0000 		.4byte	0x1f97
 4204 05d2 DC050000 		.4byte	0x5dc
 4205 05d6 0B       		.uleb128 0xb
 4206 05d7 01       		.uleb128 0x1
 4207 05d8 50       		.byte	0x50
 4208 05d9 01       		.uleb128 0x1
 4209 05da 31       		.byte	0x31
 4210 05db 00       		.byte	0
 4211 05dc 0A       		.uleb128 0xa
 4212 05dd 9C010000 		.4byte	.LVL101
 4213 05e1 A21F0000 		.4byte	0x1fa2
 4214 05e5 F0050000 		.4byte	0x5f0
 4215 05e9 0B       		.uleb128 0xb
 4216 05ea 01       		.uleb128 0x1
 4217 05eb 50       		.byte	0x50
 4218 05ec 02       		.uleb128 0x2
 4219 05ed 08       		.byte	0x8
 4220 05ee 50       		.byte	0x50
 4221 05ef 00       		.byte	0
 4222 05f0 0A       		.uleb128 0xa
 4223 05f1 A2010000 		.4byte	.LVL102
 4224 05f5 AD1F0000 		.4byte	0x1fad
 4225 05f9 04060000 		.4byte	0x604
 4226 05fd 0B       		.uleb128 0xb
 4227 05fe 01       		.uleb128 0x1
 4228 05ff 50       		.byte	0x50
 4229 0600 02       		.uleb128 0x2
 4230 0601 08       		.byte	0x8
 4231 0602 50       		.byte	0x50
 4232 0603 00       		.byte	0
 4233 0604 0A       		.uleb128 0xa
 4234 0605 AA010000 		.4byte	.LVL103
 4235 0609 761F0000 		.4byte	0x1f76
 4236 060d 17060000 		.4byte	0x617
 4237 0611 0B       		.uleb128 0xb
 4238 0612 01       		.uleb128 0x1
 4239 0613 50       		.byte	0x50
 4240 0614 01       		.uleb128 0x1
 4241 0615 31       		.byte	0x31
 4242 0616 00       		.byte	0
 4243 0617 0A       		.uleb128 0xa
 4244 0618 B0010000 		.4byte	.LVL104
 4245 061c 811F0000 		.4byte	0x1f81
 4246 0620 2A060000 		.4byte	0x62a
 4247 0624 0B       		.uleb128 0xb
 4248 0625 01       		.uleb128 0x1
 4249 0626 50       		.byte	0x50
 4250 0627 01       		.uleb128 0x1
 4251 0628 30       		.byte	0x30
 4252 0629 00       		.byte	0
 4253 062a 0A       		.uleb128 0xa
 4254 062b B6010000 		.4byte	.LVL105
 4255 062f 8C1F0000 		.4byte	0x1f8c
ARM GAS  C:\Users\pasan savindu\AppData\Local\Temp\ccY2T3Z5.s 			page 95


 4256 0633 3D060000 		.4byte	0x63d
 4257 0637 0B       		.uleb128 0xb
 4258 0638 01       		.uleb128 0x1
 4259 0639 50       		.byte	0x50
 4260 063a 01       		.uleb128 0x1
 4261 063b 31       		.byte	0x31
 4262 063c 00       		.byte	0
 4263 063d 0A       		.uleb128 0xa
 4264 063e BC010000 		.4byte	.LVL106
 4265 0642 971F0000 		.4byte	0x1f97
 4266 0646 50060000 		.4byte	0x650
 4267 064a 0B       		.uleb128 0xb
 4268 064b 01       		.uleb128 0x1
 4269 064c 50       		.byte	0x50
 4270 064d 01       		.uleb128 0x1
 4271 064e 30       		.byte	0x30
 4272 064f 00       		.byte	0
 4273 0650 0A       		.uleb128 0xa
 4274 0651 C2010000 		.4byte	.LVL107
 4275 0655 A21F0000 		.4byte	0x1fa2
 4276 0659 64060000 		.4byte	0x664
 4277 065d 0B       		.uleb128 0xb
 4278 065e 01       		.uleb128 0x1
 4279 065f 50       		.byte	0x50
 4280 0660 02       		.uleb128 0x2
 4281 0661 08       		.byte	0x8
 4282 0662 50       		.byte	0x50
 4283 0663 00       		.byte	0
 4284 0664 0A       		.uleb128 0xa
 4285 0665 C8010000 		.4byte	.LVL108
 4286 0669 AD1F0000 		.4byte	0x1fad
 4287 066d 78060000 		.4byte	0x678
 4288 0671 0B       		.uleb128 0xb
 4289 0672 01       		.uleb128 0x1
 4290 0673 50       		.byte	0x50
 4291 0674 02       		.uleb128 0x2
 4292 0675 08       		.byte	0x8
 4293 0676 50       		.byte	0x50
 4294 0677 00       		.byte	0
 4295 0678 0A       		.uleb128 0xa
 4296 0679 D0010000 		.4byte	.LVL109
 4297 067d 761F0000 		.4byte	0x1f76
 4298 0681 8B060000 		.4byte	0x68b
 4299 0685 0B       		.uleb128 0xb
 4300 0686 01       		.uleb128 0x1
 4301 0687 50       		.byte	0x50
 4302 0688 01       		.uleb128 0x1
 4303 0689 30       		.byte	0x30
 4304 068a 00       		.byte	0
 4305 068b 0A       		.uleb128 0xa
 4306 068c D6010000 		.4byte	.LVL110
 4307 0690 811F0000 		.4byte	0x1f81
 4308 0694 9E060000 		.4byte	0x69e
 4309 0698 0B       		.uleb128 0xb
 4310 0699 01       		.uleb128 0x1
 4311 069a 50       		.byte	0x50
 4312 069b 01       		.uleb128 0x1
ARM GAS  C:\Users\pasan savindu\AppData\Local\Temp\ccY2T3Z5.s 			page 96


 4313 069c 31       		.byte	0x31
 4314 069d 00       		.byte	0
 4315 069e 0A       		.uleb128 0xa
 4316 069f DC010000 		.4byte	.LVL111
 4317 06a3 8C1F0000 		.4byte	0x1f8c
 4318 06a7 B1060000 		.4byte	0x6b1
 4319 06ab 0B       		.uleb128 0xb
 4320 06ac 01       		.uleb128 0x1
 4321 06ad 50       		.byte	0x50
 4322 06ae 01       		.uleb128 0x1
 4323 06af 30       		.byte	0x30
 4324 06b0 00       		.byte	0
 4325 06b1 0A       		.uleb128 0xa
 4326 06b2 E2010000 		.4byte	.LVL112
 4327 06b6 971F0000 		.4byte	0x1f97
 4328 06ba C4060000 		.4byte	0x6c4
 4329 06be 0B       		.uleb128 0xb
 4330 06bf 01       		.uleb128 0x1
 4331 06c0 50       		.byte	0x50
 4332 06c1 01       		.uleb128 0x1
 4333 06c2 30       		.byte	0x30
 4334 06c3 00       		.byte	0
 4335 06c4 0A       		.uleb128 0xa
 4336 06c5 E8010000 		.4byte	.LVL113
 4337 06c9 A21F0000 		.4byte	0x1fa2
 4338 06cd D8060000 		.4byte	0x6d8
 4339 06d1 0B       		.uleb128 0xb
 4340 06d2 01       		.uleb128 0x1
 4341 06d3 50       		.byte	0x50
 4342 06d4 02       		.uleb128 0x2
 4343 06d5 08       		.byte	0x8
 4344 06d6 50       		.byte	0x50
 4345 06d7 00       		.byte	0
 4346 06d8 0A       		.uleb128 0xa
 4347 06d9 EE010000 		.4byte	.LVL114
 4348 06dd AD1F0000 		.4byte	0x1fad
 4349 06e1 EB060000 		.4byte	0x6eb
 4350 06e5 0B       		.uleb128 0xb
 4351 06e6 01       		.uleb128 0x1
 4352 06e7 50       		.byte	0x50
 4353 06e8 01       		.uleb128 0x1
 4354 06e9 30       		.byte	0x30
 4355 06ea 00       		.byte	0
 4356 06eb 0A       		.uleb128 0xa
 4357 06ec F6010000 		.4byte	.LVL115
 4358 06f0 761F0000 		.4byte	0x1f76
 4359 06f4 FE060000 		.4byte	0x6fe
 4360 06f8 0B       		.uleb128 0xb
 4361 06f9 01       		.uleb128 0x1
 4362 06fa 50       		.byte	0x50
 4363 06fb 01       		.uleb128 0x1
 4364 06fc 30       		.byte	0x30
 4365 06fd 00       		.byte	0
 4366 06fe 0A       		.uleb128 0xa
 4367 06ff FC010000 		.4byte	.LVL116
 4368 0703 811F0000 		.4byte	0x1f81
 4369 0707 11070000 		.4byte	0x711
ARM GAS  C:\Users\pasan savindu\AppData\Local\Temp\ccY2T3Z5.s 			page 97


 4370 070b 0B       		.uleb128 0xb
 4371 070c 01       		.uleb128 0x1
 4372 070d 50       		.byte	0x50
 4373 070e 01       		.uleb128 0x1
 4374 070f 30       		.byte	0x30
 4375 0710 00       		.byte	0
 4376 0711 0A       		.uleb128 0xa
 4377 0712 02020000 		.4byte	.LVL117
 4378 0716 8C1F0000 		.4byte	0x1f8c
 4379 071a 24070000 		.4byte	0x724
 4380 071e 0B       		.uleb128 0xb
 4381 071f 01       		.uleb128 0x1
 4382 0720 50       		.byte	0x50
 4383 0721 01       		.uleb128 0x1
 4384 0722 30       		.byte	0x30
 4385 0723 00       		.byte	0
 4386 0724 0A       		.uleb128 0xa
 4387 0725 08020000 		.4byte	.LVL118
 4388 0729 971F0000 		.4byte	0x1f97
 4389 072d 37070000 		.4byte	0x737
 4390 0731 0B       		.uleb128 0xb
 4391 0732 01       		.uleb128 0x1
 4392 0733 50       		.byte	0x50
 4393 0734 01       		.uleb128 0x1
 4394 0735 31       		.byte	0x31
 4395 0736 00       		.byte	0
 4396 0737 0A       		.uleb128 0xa
 4397 0738 0E020000 		.4byte	.LVL119
 4398 073c A21F0000 		.4byte	0x1fa2
 4399 0740 4A070000 		.4byte	0x74a
 4400 0744 0B       		.uleb128 0xb
 4401 0745 01       		.uleb128 0x1
 4402 0746 50       		.byte	0x50
 4403 0747 01       		.uleb128 0x1
 4404 0748 30       		.byte	0x30
 4405 0749 00       		.byte	0
 4406 074a 0F       		.uleb128 0xf
 4407 074b 14020000 		.4byte	.LVL120
 4408 074f AD1F0000 		.4byte	0x1fad
 4409 0753 0B       		.uleb128 0xb
 4410 0754 01       		.uleb128 0x1
 4411 0755 50       		.byte	0x50
 4412 0756 02       		.uleb128 0x2
 4413 0757 08       		.byte	0x8
 4414 0758 50       		.byte	0x50
 4415 0759 00       		.byte	0
 4416 075a 00       		.byte	0
 4417 075b 0D       		.uleb128 0xd
 4418 075c 40080000 		.4byte	.LASF34
 4419 0760 01       		.byte	0x1
 4420 0761 6F01     		.2byte	0x16f
 4421 0763 00000000 		.4byte	.LFB74
 4422 0767 9C000000 		.4byte	.LFE74-.LFB74
 4423 076b 01       		.uleb128 0x1
 4424 076c 9C       		.byte	0x9c
 4425 076d 26080000 		.4byte	0x826
 4426 0771 10       		.uleb128 0x10
ARM GAS  C:\Users\pasan savindu\AppData\Local\Temp\ccY2T3Z5.s 			page 98


 4427 0772 00000000 		.4byte	.LASF35
 4428 0776 01       		.byte	0x1
 4429 0777 6F01     		.2byte	0x16f
 4430 0779 BD000000 		.4byte	0xbd
 4431 077d BA000000 		.4byte	.LLST6
 4432 0781 10       		.uleb128 0x10
 4433 0782 43060000 		.4byte	.LASF36
 4434 0786 01       		.byte	0x1
 4435 0787 6F01     		.2byte	0x16f
 4436 0789 73000000 		.4byte	0x73
 4437 078d DB000000 		.4byte	.LLST7
 4438 0791 11       		.uleb128 0x11
 4439 0792 C2040000 		.4byte	.LASF37
 4440 0796 01       		.byte	0x1
 4441 0797 7001     		.2byte	0x170
 4442 0799 97000000 		.4byte	0x97
 4443 079d 07010000 		.4byte	.LLST8
 4444 07a1 0A       		.uleb128 0xa
 4445 07a2 10000000 		.4byte	.LVL124
 4446 07a6 B81F0000 		.4byte	0x1fb8
 4447 07aa B4070000 		.4byte	0x7b4
 4448 07ae 0B       		.uleb128 0xb
 4449 07af 01       		.uleb128 0x1
 4450 07b0 50       		.byte	0x50
 4451 07b1 01       		.uleb128 0x1
 4452 07b2 30       		.byte	0x30
 4453 07b3 00       		.byte	0
 4454 07b4 0A       		.uleb128 0xa
 4455 07b5 16000000 		.4byte	.LVL125
 4456 07b9 C31F0000 		.4byte	0x1fc3
 4457 07bd C7070000 		.4byte	0x7c7
 4458 07c1 0B       		.uleb128 0xb
 4459 07c2 01       		.uleb128 0x1
 4460 07c3 50       		.byte	0x50
 4461 07c4 01       		.uleb128 0x1
 4462 07c5 30       		.byte	0x30
 4463 07c6 00       		.byte	0
 4464 07c7 08       		.uleb128 0x8
 4465 07c8 2C000000 		.4byte	.LVL128
 4466 07cc 601F0000 		.4byte	0x1f60
 4467 07d0 08       		.uleb128 0x8
 4468 07d1 34000000 		.4byte	.LVL129
 4469 07d5 6B1F0000 		.4byte	0x1f6b
 4470 07d9 0A       		.uleb128 0xa
 4471 07da 4E000000 		.4byte	.LVL130
 4472 07de 80020000 		.4byte	0x280
 4473 07e2 ED070000 		.4byte	0x7ed
 4474 07e6 0B       		.uleb128 0xb
 4475 07e7 01       		.uleb128 0x1
 4476 07e8 50       		.byte	0x50
 4477 07e9 02       		.uleb128 0x2
 4478 07ea 08       		.byte	0x8
 4479 07eb 46       		.byte	0x46
 4480 07ec 00       		.byte	0
 4481 07ed 0A       		.uleb128 0xa
 4482 07ee 56000000 		.4byte	.LVL131
 4483 07f2 80020000 		.4byte	0x280
ARM GAS  C:\Users\pasan savindu\AppData\Local\Temp\ccY2T3Z5.s 			page 99


 4484 07f6 01080000 		.4byte	0x801
 4485 07fa 0B       		.uleb128 0xb
 4486 07fb 01       		.uleb128 0x1
 4487 07fc 50       		.byte	0x50
 4488 07fd 02       		.uleb128 0x2
 4489 07fe 08       		.byte	0x8
 4490 07ff 53       		.byte	0x53
 4491 0800 00       		.byte	0
 4492 0801 0A       		.uleb128 0xa
 4493 0802 7A000000 		.4byte	.LVL135
 4494 0806 80020000 		.4byte	0x280
 4495 080a 15080000 		.4byte	0x815
 4496 080e 0B       		.uleb128 0xb
 4497 080f 01       		.uleb128 0x1
 4498 0810 50       		.byte	0x50
 4499 0811 02       		.uleb128 0x2
 4500 0812 08       		.byte	0x8
 4501 0813 42       		.byte	0x42
 4502 0814 00       		.byte	0
 4503 0815 0F       		.uleb128 0xf
 4504 0816 82000000 		.4byte	.LVL136
 4505 081a 80020000 		.4byte	0x280
 4506 081e 0B       		.uleb128 0xb
 4507 081f 01       		.uleb128 0x1
 4508 0820 50       		.byte	0x50
 4509 0821 02       		.uleb128 0x2
 4510 0822 08       		.byte	0x8
 4511 0823 53       		.byte	0x53
 4512 0824 00       		.byte	0
 4513 0825 00       		.byte	0
 4514 0826 0D       		.uleb128 0xd
 4515 0827 95030000 		.4byte	.LASF38
 4516 082b 01       		.byte	0x1
 4517 082c 9F01     		.2byte	0x19f
 4518 082e 00000000 		.4byte	.LFB75
 4519 0832 8C000000 		.4byte	.LFE75-.LFB75
 4520 0836 01       		.uleb128 0x1
 4521 0837 9C       		.byte	0x9c
 4522 0838 F1080000 		.4byte	0x8f1
 4523 083c 10       		.uleb128 0x10
 4524 083d 00000000 		.4byte	.LASF35
 4525 0841 01       		.byte	0x1
 4526 0842 9F01     		.2byte	0x19f
 4527 0844 BD000000 		.4byte	0xbd
 4528 0848 5F010000 		.4byte	.LLST9
 4529 084c 10       		.uleb128 0x10
 4530 084d FF010000 		.4byte	.LASF39
 4531 0851 01       		.byte	0x1
 4532 0852 9F01     		.2byte	0x19f
 4533 0854 73000000 		.4byte	0x73
 4534 0858 80010000 		.4byte	.LLST10
 4535 085c 11       		.uleb128 0x11
 4536 085d C2040000 		.4byte	.LASF37
 4537 0861 01       		.byte	0x1
 4538 0862 A001     		.2byte	0x1a0
 4539 0864 97000000 		.4byte	0x97
 4540 0868 AC010000 		.4byte	.LLST11
ARM GAS  C:\Users\pasan savindu\AppData\Local\Temp\ccY2T3Z5.s 			page 100


 4541 086c 0A       		.uleb128 0xa
 4542 086d 10000000 		.4byte	.LVL143
 4543 0871 B81F0000 		.4byte	0x1fb8
 4544 0875 7F080000 		.4byte	0x87f
 4545 0879 0B       		.uleb128 0xb
 4546 087a 01       		.uleb128 0x1
 4547 087b 50       		.byte	0x50
 4548 087c 01       		.uleb128 0x1
 4549 087d 30       		.byte	0x30
 4550 087e 00       		.byte	0
 4551 087f 0A       		.uleb128 0xa
 4552 0880 16000000 		.4byte	.LVL144
 4553 0884 C31F0000 		.4byte	0x1fc3
 4554 0888 92080000 		.4byte	0x892
 4555 088c 0B       		.uleb128 0xb
 4556 088d 01       		.uleb128 0x1
 4557 088e 50       		.byte	0x50
 4558 088f 01       		.uleb128 0x1
 4559 0890 30       		.byte	0x30
 4560 0891 00       		.byte	0
 4561 0892 08       		.uleb128 0x8
 4562 0893 2C000000 		.4byte	.LVL147
 4563 0897 601F0000 		.4byte	0x1f60
 4564 089b 08       		.uleb128 0x8
 4565 089c 34000000 		.4byte	.LVL148
 4566 08a0 6B1F0000 		.4byte	0x1f6b
 4567 08a4 0A       		.uleb128 0xa
 4568 08a5 46000000 		.4byte	.LVL149
 4569 08a9 80020000 		.4byte	0x280
 4570 08ad B8080000 		.4byte	0x8b8
 4571 08b1 0B       		.uleb128 0xb
 4572 08b2 01       		.uleb128 0x1
 4573 08b3 50       		.byte	0x50
 4574 08b4 02       		.uleb128 0x2
 4575 08b5 08       		.byte	0x8
 4576 08b6 4C       		.byte	0x4c
 4577 08b7 00       		.byte	0
 4578 08b8 0A       		.uleb128 0xa
 4579 08b9 4E000000 		.4byte	.LVL150
 4580 08bd 80020000 		.4byte	0x280
 4581 08c1 CC080000 		.4byte	0x8cc
 4582 08c5 0B       		.uleb128 0xb
 4583 08c6 01       		.uleb128 0x1
 4584 08c7 50       		.byte	0x50
 4585 08c8 02       		.uleb128 0x2
 4586 08c9 08       		.byte	0x8
 4587 08ca 53       		.byte	0x53
 4588 08cb 00       		.byte	0
 4589 08cc 0A       		.uleb128 0xa
 4590 08cd 6C000000 		.4byte	.LVL154
 4591 08d1 80020000 		.4byte	0x280
 4592 08d5 E0080000 		.4byte	0x8e0
 4593 08d9 0B       		.uleb128 0xb
 4594 08da 01       		.uleb128 0x1
 4595 08db 50       		.byte	0x50
 4596 08dc 02       		.uleb128 0x2
 4597 08dd 08       		.byte	0x8
ARM GAS  C:\Users\pasan savindu\AppData\Local\Temp\ccY2T3Z5.s 			page 101


 4598 08de 52       		.byte	0x52
 4599 08df 00       		.byte	0
 4600 08e0 0F       		.uleb128 0xf
 4601 08e1 74000000 		.4byte	.LVL155
 4602 08e5 80020000 		.4byte	0x280
 4603 08e9 0B       		.uleb128 0xb
 4604 08ea 01       		.uleb128 0x1
 4605 08eb 50       		.byte	0x50
 4606 08ec 02       		.uleb128 0x2
 4607 08ed 08       		.byte	0x8
 4608 08ee 53       		.byte	0x53
 4609 08ef 00       		.byte	0
 4610 08f0 00       		.byte	0
 4611 08f1 12       		.uleb128 0x12
 4612 08f2 C6010000 		.4byte	.LASF44
 4613 08f6 01       		.byte	0x1
 4614 08f7 CE01     		.2byte	0x1ce
 4615 08f9 00000000 		.4byte	.LFB76
 4616 08fd 72000000 		.4byte	.LFE76-.LFB76
 4617 0901 01       		.uleb128 0x1
 4618 0902 9C       		.byte	0x9c
 4619 0903 EB090000 		.4byte	0x9eb
 4620 0907 11       		.uleb128 0x11
 4621 0908 15080000 		.4byte	.LASF40
 4622 090c 01       		.byte	0x1
 4623 090d CF01     		.2byte	0x1cf
 4624 090f 73000000 		.4byte	0x73
 4625 0913 04020000 		.4byte	.LLST12
 4626 0917 08       		.uleb128 0x8
 4627 0918 0A000000 		.4byte	.LVL161
 4628 091c CE1F0000 		.4byte	0x1fce
 4629 0920 08       		.uleb128 0x8
 4630 0921 12000000 		.4byte	.LVL162
 4631 0925 D91F0000 		.4byte	0x1fd9
 4632 0929 0A       		.uleb128 0xa
 4633 092a 1C000000 		.4byte	.LVL163
 4634 092e E41F0000 		.4byte	0x1fe4
 4635 0932 3D090000 		.4byte	0x93d
 4636 0936 0B       		.uleb128 0xb
 4637 0937 01       		.uleb128 0x1
 4638 0938 50       		.byte	0x50
 4639 0939 02       		.uleb128 0x2
 4640 093a 08       		.byte	0x8
 4641 093b C8       		.byte	0xc8
 4642 093c 00       		.byte	0
 4643 093d 0A       		.uleb128 0xa
 4644 093e 22000000 		.4byte	.LVL164
 4645 0942 80020000 		.4byte	0x280
 4646 0946 51090000 		.4byte	0x951
 4647 094a 0B       		.uleb128 0xb
 4648 094b 01       		.uleb128 0x1
 4649 094c 50       		.byte	0x50
 4650 094d 02       		.uleb128 0x2
 4651 094e 08       		.byte	0x8
 4652 094f 42       		.byte	0x42
 4653 0950 00       		.byte	0
 4654 0951 08       		.uleb128 0x8
ARM GAS  C:\Users\pasan savindu\AppData\Local\Temp\ccY2T3Z5.s 			page 102


 4655 0952 28000000 		.4byte	.LVL165
 4656 0956 CE1F0000 		.4byte	0x1fce
 4657 095a 08       		.uleb128 0x8
 4658 095b 30000000 		.4byte	.LVL166
 4659 095f D91F0000 		.4byte	0x1fd9
 4660 0963 0A       		.uleb128 0xa
 4661 0964 38000000 		.4byte	.LVL167
 4662 0968 E41F0000 		.4byte	0x1fe4
 4663 096c 77090000 		.4byte	0x977
 4664 0970 0B       		.uleb128 0xb
 4665 0971 01       		.uleb128 0x1
 4666 0972 50       		.byte	0x50
 4667 0973 02       		.uleb128 0x2
 4668 0974 08       		.byte	0x8
 4669 0975 C8       		.byte	0xc8
 4670 0976 00       		.byte	0
 4671 0977 0A       		.uleb128 0xa
 4672 0978 3E000000 		.4byte	.LVL168
 4673 097c 80020000 		.4byte	0x280
 4674 0980 8B090000 		.4byte	0x98b
 4675 0984 0B       		.uleb128 0xb
 4676 0985 01       		.uleb128 0x1
 4677 0986 50       		.byte	0x50
 4678 0987 02       		.uleb128 0x2
 4679 0988 08       		.byte	0x8
 4680 0989 59       		.byte	0x59
 4681 098a 00       		.byte	0
 4682 098b 08       		.uleb128 0x8
 4683 098c 44000000 		.4byte	.LVL169
 4684 0990 CE1F0000 		.4byte	0x1fce
 4685 0994 08       		.uleb128 0x8
 4686 0995 4A000000 		.4byte	.LVL170
 4687 0999 D91F0000 		.4byte	0x1fd9
 4688 099d 0A       		.uleb128 0xa
 4689 099e 54000000 		.4byte	.LVL171
 4690 09a2 E41F0000 		.4byte	0x1fe4
 4691 09a6 B1090000 		.4byte	0x9b1
 4692 09aa 0B       		.uleb128 0xb
 4693 09ab 01       		.uleb128 0x1
 4694 09ac 50       		.byte	0x50
 4695 09ad 02       		.uleb128 0x2
 4696 09ae 08       		.byte	0x8
 4697 09af C8       		.byte	0xc8
 4698 09b0 00       		.byte	0
 4699 09b1 0A       		.uleb128 0xa
 4700 09b2 5A000000 		.4byte	.LVL172
 4701 09b6 80020000 		.4byte	0x280
 4702 09ba C5090000 		.4byte	0x9c5
 4703 09be 0B       		.uleb128 0xb
 4704 09bf 01       		.uleb128 0x1
 4705 09c0 50       		.byte	0x50
 4706 09c1 02       		.uleb128 0x2
 4707 09c2 08       		.byte	0x8
 4708 09c3 58       		.byte	0x58
 4709 09c4 00       		.byte	0
 4710 09c5 0A       		.uleb128 0xa
 4711 09c6 62000000 		.4byte	.LVL173
ARM GAS  C:\Users\pasan savindu\AppData\Local\Temp\ccY2T3Z5.s 			page 103


 4712 09ca 80020000 		.4byte	0x280
 4713 09ce D9090000 		.4byte	0x9d9
 4714 09d2 0B       		.uleb128 0xb
 4715 09d3 01       		.uleb128 0x1
 4716 09d4 50       		.byte	0x50
 4717 09d5 02       		.uleb128 0x2
 4718 09d6 08       		.byte	0x8
 4719 09d7 53       		.byte	0x53
 4720 09d8 00       		.byte	0
 4721 09d9 0F       		.uleb128 0xf
 4722 09da 6A000000 		.4byte	.LVL174
 4723 09de E41F0000 		.4byte	0x1fe4
 4724 09e2 0B       		.uleb128 0xb
 4725 09e3 01       		.uleb128 0x1
 4726 09e4 50       		.byte	0x50
 4727 09e5 03       		.uleb128 0x3
 4728 09e6 0A       		.byte	0xa
 4729 09e7 F401     		.2byte	0x1f4
 4730 09e9 00       		.byte	0
 4731 09ea 00       		.byte	0
 4732 09eb 0D       		.uleb128 0xd
 4733 09ec FF070000 		.4byte	.LASF41
 4734 09f0 01       		.byte	0x1
 4735 09f1 EC01     		.2byte	0x1ec
 4736 09f3 00000000 		.4byte	.LFB77
 4737 09f7 B4000000 		.4byte	.LFE77-.LFB77
 4738 09fb 01       		.uleb128 0x1
 4739 09fc 9C       		.byte	0x9c
 4740 09fd 180B0000 		.4byte	0xb18
 4741 0a01 10       		.uleb128 0x10
 4742 0a02 0A010000 		.4byte	.LASF42
 4743 0a06 01       		.byte	0x1
 4744 0a07 EC01     		.2byte	0x1ec
 4745 0a09 BD000000 		.4byte	0xbd
 4746 0a0d 3A020000 		.4byte	.LLST13
 4747 0a11 11       		.uleb128 0x11
 4748 0a12 59060000 		.4byte	.LASF43
 4749 0a16 01       		.byte	0x1
 4750 0a17 EF01     		.2byte	0x1ef
 4751 0a19 73000000 		.4byte	0x73
 4752 0a1d 5B020000 		.4byte	.LLST14
 4753 0a21 0A       		.uleb128 0xa
 4754 0a22 1C000000 		.4byte	.LVL179
 4755 0a26 EF1F0000 		.4byte	0x1fef
 4756 0a2a 340A0000 		.4byte	0xa34
 4757 0a2e 0B       		.uleb128 0xb
 4758 0a2f 01       		.uleb128 0x1
 4759 0a30 50       		.byte	0x50
 4760 0a31 01       		.uleb128 0x1
 4761 0a32 31       		.byte	0x31
 4762 0a33 00       		.byte	0
 4763 0a34 0A       		.uleb128 0xa
 4764 0a35 22000000 		.4byte	.LVL180
 4765 0a39 FA1F0000 		.4byte	0x1ffa
 4766 0a3d 470A0000 		.4byte	0xa47
 4767 0a41 0B       		.uleb128 0xb
 4768 0a42 01       		.uleb128 0x1
ARM GAS  C:\Users\pasan savindu\AppData\Local\Temp\ccY2T3Z5.s 			page 104


 4769 0a43 50       		.byte	0x50
 4770 0a44 01       		.uleb128 0x1
 4771 0a45 3A       		.byte	0x3a
 4772 0a46 00       		.byte	0
 4773 0a47 0A       		.uleb128 0xa
 4774 0a48 28000000 		.4byte	.LVL181
 4775 0a4c EF1F0000 		.4byte	0x1fef
 4776 0a50 5A0A0000 		.4byte	0xa5a
 4777 0a54 0B       		.uleb128 0xb
 4778 0a55 01       		.uleb128 0x1
 4779 0a56 50       		.byte	0x50
 4780 0a57 01       		.uleb128 0x1
 4781 0a58 30       		.byte	0x30
 4782 0a59 00       		.byte	0
 4783 0a5a 08       		.uleb128 0x8
 4784 0a5b 2C000000 		.4byte	.LVL182
 4785 0a5f 05200000 		.4byte	0x2005
 4786 0a63 0A       		.uleb128 0xa
 4787 0a64 36000000 		.4byte	.LVL183
 4788 0a68 E41F0000 		.4byte	0x1fe4
 4789 0a6c 760A0000 		.4byte	0xa76
 4790 0a70 0B       		.uleb128 0xb
 4791 0a71 01       		.uleb128 0x1
 4792 0a72 50       		.byte	0x50
 4793 0a73 01       		.uleb128 0x1
 4794 0a74 3A       		.byte	0x3a
 4795 0a75 00       		.byte	0
 4796 0a76 0A       		.uleb128 0xa
 4797 0a77 46000000 		.4byte	.LVL184
 4798 0a7b 80020000 		.4byte	0x280
 4799 0a7f 8A0A0000 		.4byte	0xa8a
 4800 0a83 0B       		.uleb128 0xb
 4801 0a84 01       		.uleb128 0x1
 4802 0a85 50       		.byte	0x50
 4803 0a86 02       		.uleb128 0x2
 4804 0a87 08       		.byte	0x8
 4805 0a88 53       		.byte	0x53
 4806 0a89 00       		.byte	0
 4807 0a8a 0A       		.uleb128 0xa
 4808 0a8b 56000000 		.4byte	.LVL186
 4809 0a8f 80020000 		.4byte	0x280
 4810 0a93 9E0A0000 		.4byte	0xa9e
 4811 0a97 0B       		.uleb128 0xb
 4812 0a98 01       		.uleb128 0x1
 4813 0a99 50       		.byte	0x50
 4814 0a9a 02       		.uleb128 0x2
 4815 0a9b 08       		.byte	0x8
 4816 0a9c 52       		.byte	0x52
 4817 0a9d 00       		.byte	0
 4818 0a9e 0A       		.uleb128 0xa
 4819 0a9f 62000000 		.4byte	.LVL187
 4820 0aa3 10200000 		.4byte	0x2010
 4821 0aa7 B10A0000 		.4byte	0xab1
 4822 0aab 0B       		.uleb128 0xb
 4823 0aac 01       		.uleb128 0x1
 4824 0aad 50       		.byte	0x50
 4825 0aae 01       		.uleb128 0x1
ARM GAS  C:\Users\pasan savindu\AppData\Local\Temp\ccY2T3Z5.s 			page 105


 4826 0aaf 31       		.byte	0x31
 4827 0ab0 00       		.byte	0
 4828 0ab1 0A       		.uleb128 0xa
 4829 0ab2 68000000 		.4byte	.LVL188
 4830 0ab6 FA1F0000 		.4byte	0x1ffa
 4831 0aba C40A0000 		.4byte	0xac4
 4832 0abe 0B       		.uleb128 0xb
 4833 0abf 01       		.uleb128 0x1
 4834 0ac0 50       		.byte	0x50
 4835 0ac1 01       		.uleb128 0x1
 4836 0ac2 3A       		.byte	0x3a
 4837 0ac3 00       		.byte	0
 4838 0ac4 0A       		.uleb128 0xa
 4839 0ac5 6E000000 		.4byte	.LVL189
 4840 0ac9 10200000 		.4byte	0x2010
 4841 0acd D70A0000 		.4byte	0xad7
 4842 0ad1 0B       		.uleb128 0xb
 4843 0ad2 01       		.uleb128 0x1
 4844 0ad3 50       		.byte	0x50
 4845 0ad4 01       		.uleb128 0x1
 4846 0ad5 30       		.byte	0x30
 4847 0ad6 00       		.byte	0
 4848 0ad7 08       		.uleb128 0x8
 4849 0ad8 72000000 		.4byte	.LVL190
 4850 0adc 1B200000 		.4byte	0x201b
 4851 0ae0 0A       		.uleb128 0xa
 4852 0ae1 7C000000 		.4byte	.LVL191
 4853 0ae5 E41F0000 		.4byte	0x1fe4
 4854 0ae9 F30A0000 		.4byte	0xaf3
 4855 0aed 0B       		.uleb128 0xb
 4856 0aee 01       		.uleb128 0x1
 4857 0aef 50       		.byte	0x50
 4858 0af0 01       		.uleb128 0x1
 4859 0af1 3A       		.byte	0x3a
 4860 0af2 00       		.byte	0
 4861 0af3 0A       		.uleb128 0xa
 4862 0af4 8C000000 		.4byte	.LVL192
 4863 0af8 80020000 		.4byte	0x280
 4864 0afc 070B0000 		.4byte	0xb07
 4865 0b00 0B       		.uleb128 0xb
 4866 0b01 01       		.uleb128 0x1
 4867 0b02 50       		.byte	0x50
 4868 0b03 02       		.uleb128 0x2
 4869 0b04 08       		.byte	0x8
 4870 0b05 53       		.byte	0x53
 4871 0b06 00       		.byte	0
 4872 0b07 0F       		.uleb128 0xf
 4873 0b08 9C000000 		.4byte	.LVL194
 4874 0b0c 80020000 		.4byte	0x280
 4875 0b10 0B       		.uleb128 0xb
 4876 0b11 01       		.uleb128 0x1
 4877 0b12 50       		.byte	0x50
 4878 0b13 02       		.uleb128 0x2
 4879 0b14 08       		.byte	0x8
 4880 0b15 4C       		.byte	0x4c
 4881 0b16 00       		.byte	0
 4882 0b17 00       		.byte	0
ARM GAS  C:\Users\pasan savindu\AppData\Local\Temp\ccY2T3Z5.s 			page 106


 4883 0b18 12       		.uleb128 0x12
 4884 0b19 55030000 		.4byte	.LASF45
 4885 0b1d 01       		.byte	0x1
 4886 0b1e 1C02     		.2byte	0x21c
 4887 0b20 00000000 		.4byte	.LFB78
 4888 0b24 38000000 		.4byte	.LFE78-.LFB78
 4889 0b28 01       		.uleb128 0x1
 4890 0b29 9C       		.byte	0x9c
 4891 0b2a A40B0000 		.4byte	0xba4
 4892 0b2e 0A       		.uleb128 0xa
 4893 0b2f 08000000 		.4byte	.LVL196
 4894 0b33 1E1F0000 		.4byte	0x1f1e
 4895 0b37 410B0000 		.4byte	0xb41
 4896 0b3b 0B       		.uleb128 0xb
 4897 0b3c 01       		.uleb128 0x1
 4898 0b3d 50       		.byte	0x50
 4899 0b3e 01       		.uleb128 0x1
 4900 0b3f 31       		.byte	0x31
 4901 0b40 00       		.byte	0
 4902 0b41 0A       		.uleb128 0xa
 4903 0b42 0E000000 		.4byte	.LVL197
 4904 0b46 26200000 		.4byte	0x2026
 4905 0b4a 540B0000 		.4byte	0xb54
 4906 0b4e 0B       		.uleb128 0xb
 4907 0b4f 01       		.uleb128 0x1
 4908 0b50 50       		.byte	0x50
 4909 0b51 01       		.uleb128 0x1
 4910 0b52 31       		.byte	0x31
 4911 0b53 00       		.byte	0
 4912 0b54 0A       		.uleb128 0xa
 4913 0b55 14000000 		.4byte	.LVL198
 4914 0b59 E41F0000 		.4byte	0x1fe4
 4915 0b5d 670B0000 		.4byte	0xb67
 4916 0b61 0B       		.uleb128 0xb
 4917 0b62 01       		.uleb128 0x1
 4918 0b63 50       		.byte	0x50
 4919 0b64 01       		.uleb128 0x1
 4920 0b65 31       		.byte	0x31
 4921 0b66 00       		.byte	0
 4922 0b67 0A       		.uleb128 0xa
 4923 0b68 1A000000 		.4byte	.LVL199
 4924 0b6c 26200000 		.4byte	0x2026
 4925 0b70 7A0B0000 		.4byte	0xb7a
 4926 0b74 0B       		.uleb128 0xb
 4927 0b75 01       		.uleb128 0x1
 4928 0b76 50       		.byte	0x50
 4929 0b77 01       		.uleb128 0x1
 4930 0b78 30       		.byte	0x30
 4931 0b79 00       		.byte	0
 4932 0b7a 08       		.uleb128 0x8
 4933 0b7b 24000000 		.4byte	.LVL200
 4934 0b7f 31200000 		.4byte	0x2031
 4935 0b83 0A       		.uleb128 0xa
 4936 0b84 2A000000 		.4byte	.LVL201
 4937 0b88 3C200000 		.4byte	0x203c
 4938 0b8c 9A0B0000 		.4byte	0xb9a
 4939 0b90 0B       		.uleb128 0xb
ARM GAS  C:\Users\pasan savindu\AppData\Local\Temp\ccY2T3Z5.s 			page 107


 4940 0b91 01       		.uleb128 0x1
 4941 0b92 50       		.byte	0x50
 4942 0b93 05       		.uleb128 0x5
 4943 0b94 03       		.byte	0x3
 4944 0b95 00000000 		.4byte	interrupt6_handler
 4945 0b99 00       		.byte	0
 4946 0b9a 08       		.uleb128 0x8
 4947 0b9b 2E000000 		.4byte	.LVL202
 4948 0b9f 47200000 		.4byte	0x2047
 4949 0ba3 00       		.byte	0
 4950 0ba4 09       		.uleb128 0x9
 4951 0ba5 86060000 		.4byte	.LASF46
 4952 0ba9 01       		.byte	0x1
 4953 0baa 8C       		.byte	0x8c
 4954 0bab 00000000 		.4byte	.LFB70
 4955 0baf 74000000 		.4byte	.LFE70-.LFB70
 4956 0bb3 01       		.uleb128 0x1
 4957 0bb4 9C       		.byte	0x9c
 4958 0bb5 BD0C0000 		.4byte	0xcbd
 4959 0bb9 08       		.uleb128 0x8
 4960 0bba 06000000 		.4byte	.LVL203
 4961 0bbe 52200000 		.4byte	0x2052
 4962 0bc2 08       		.uleb128 0x8
 4963 0bc3 0A000000 		.4byte	.LVL204
 4964 0bc7 5D200000 		.4byte	0x205d
 4965 0bcb 08       		.uleb128 0x8
 4966 0bcc 0E000000 		.4byte	.LVL205
 4967 0bd0 68200000 		.4byte	0x2068
 4968 0bd4 08       		.uleb128 0x8
 4969 0bd5 12000000 		.4byte	.LVL206
 4970 0bd9 73200000 		.4byte	0x2073
 4971 0bdd 08       		.uleb128 0x8
 4972 0bde 16000000 		.4byte	.LVL207
 4973 0be2 7E200000 		.4byte	0x207e
 4974 0be6 08       		.uleb128 0x8
 4975 0be7 1A000000 		.4byte	.LVL208
 4976 0beb 89200000 		.4byte	0x2089
 4977 0bef 08       		.uleb128 0x8
 4978 0bf0 1E000000 		.4byte	.LVL209
 4979 0bf4 94200000 		.4byte	0x2094
 4980 0bf8 08       		.uleb128 0x8
 4981 0bf9 22000000 		.4byte	.LVL210
 4982 0bfd 9F200000 		.4byte	0x209f
 4983 0c01 08       		.uleb128 0x8
 4984 0c02 26000000 		.4byte	.LVL211
 4985 0c06 AA200000 		.4byte	0x20aa
 4986 0c0a 08       		.uleb128 0x8
 4987 0c0b 2A000000 		.4byte	.LVL212
 4988 0c0f 180B0000 		.4byte	0xb18
 4989 0c13 0A       		.uleb128 0xa
 4990 0c14 30000000 		.4byte	.LVL213
 4991 0c18 B5200000 		.4byte	0x20b5
 4992 0c1c 2A0C0000 		.4byte	0xc2a
 4993 0c20 0B       		.uleb128 0xb
 4994 0c21 01       		.uleb128 0x1
 4995 0c22 50       		.byte	0x50
 4996 0c23 05       		.uleb128 0x5
ARM GAS  C:\Users\pasan savindu\AppData\Local\Temp\ccY2T3Z5.s 			page 108


 4997 0c24 03       		.byte	0x3
 4998 0c25 00000000 		.4byte	S1_handler
 4999 0c29 00       		.byte	0
 5000 0c2a 0A       		.uleb128 0xa
 5001 0c2b 36000000 		.4byte	.LVL214
 5002 0c2f C0200000 		.4byte	0x20c0
 5003 0c33 410C0000 		.4byte	0xc41
 5004 0c37 0B       		.uleb128 0xb
 5005 0c38 01       		.uleb128 0x1
 5006 0c39 50       		.byte	0x50
 5007 0c3a 05       		.uleb128 0x5
 5008 0c3b 03       		.byte	0x3
 5009 0c3c 00000000 		.4byte	S2_handler
 5010 0c40 00       		.byte	0
 5011 0c41 0A       		.uleb128 0xa
 5012 0c42 3C000000 		.4byte	.LVL215
 5013 0c46 CB200000 		.4byte	0x20cb
 5014 0c4a 580C0000 		.4byte	0xc58
 5015 0c4e 0B       		.uleb128 0xb
 5016 0c4f 01       		.uleb128 0x1
 5017 0c50 50       		.byte	0x50
 5018 0c51 05       		.uleb128 0x5
 5019 0c52 03       		.byte	0x3
 5020 0c53 00000000 		.4byte	S3_handler
 5021 0c57 00       		.byte	0
 5022 0c58 0A       		.uleb128 0xa
 5023 0c59 42000000 		.4byte	.LVL216
 5024 0c5d D6200000 		.4byte	0x20d6
 5025 0c61 6F0C0000 		.4byte	0xc6f
 5026 0c65 0B       		.uleb128 0xb
 5027 0c66 01       		.uleb128 0x1
 5028 0c67 50       		.byte	0x50
 5029 0c68 05       		.uleb128 0x5
 5030 0c69 03       		.byte	0x3
 5031 0c6a 00000000 		.4byte	S4_handler
 5032 0c6e 00       		.byte	0
 5033 0c6f 08       		.uleb128 0x8
 5034 0c70 46000000 		.4byte	.LVL217
 5035 0c74 E1200000 		.4byte	0x20e1
 5036 0c78 08       		.uleb128 0x8
 5037 0c79 4A000000 		.4byte	.LVL218
 5038 0c7d EC200000 		.4byte	0x20ec
 5039 0c81 0A       		.uleb128 0xa
 5040 0c82 52000000 		.4byte	.LVL219
 5041 0c86 F7200000 		.4byte	0x20f7
 5042 0c8a 960C0000 		.4byte	0xc96
 5043 0c8e 0B       		.uleb128 0xb
 5044 0c8f 01       		.uleb128 0x1
 5045 0c90 50       		.byte	0x50
 5046 0c91 03       		.uleb128 0x3
 5047 0c92 0A       		.byte	0xa
 5048 0c93 F401     		.2byte	0x1f4
 5049 0c95 00       		.byte	0
 5050 0c96 0A       		.uleb128 0xa
 5051 0c97 5A000000 		.4byte	.LVL220
 5052 0c9b 02210000 		.4byte	0x2102
 5053 0c9f AB0C0000 		.4byte	0xcab
ARM GAS  C:\Users\pasan savindu\AppData\Local\Temp\ccY2T3Z5.s 			page 109


 5054 0ca3 0B       		.uleb128 0xb
 5055 0ca4 01       		.uleb128 0x1
 5056 0ca5 50       		.byte	0x50
 5057 0ca6 03       		.uleb128 0x3
 5058 0ca7 0A       		.byte	0xa
 5059 0ca8 9808     		.2byte	0x898
 5060 0caa 00       		.byte	0
 5061 0cab 0F       		.uleb128 0xf
 5062 0cac 62000000 		.4byte	.LVL221
 5063 0cb0 0D210000 		.4byte	0x210d
 5064 0cb4 0B       		.uleb128 0xb
 5065 0cb5 01       		.uleb128 0x1
 5066 0cb6 50       		.byte	0x50
 5067 0cb7 03       		.uleb128 0x3
 5068 0cb8 0A       		.byte	0xa
 5069 0cb9 8403     		.2byte	0x384
 5070 0cbb 00       		.byte	0
 5071 0cbc 00       		.byte	0
 5072 0cbd 0D       		.uleb128 0xd
 5073 0cbe 66040000 		.4byte	.LASF47
 5074 0cc2 01       		.byte	0x1
 5075 0cc3 5202     		.2byte	0x252
 5076 0cc5 00000000 		.4byte	.LFB81
 5077 0cc9 46000000 		.4byte	.LFE81-.LFB81
 5078 0ccd 01       		.uleb128 0x1
 5079 0cce 9C       		.byte	0x9c
 5080 0ccf 780D0000 		.4byte	0xd78
 5081 0cd3 10       		.uleb128 0x10
 5082 0cd4 60020000 		.4byte	.LASF48
 5083 0cd8 01       		.byte	0x1
 5084 0cd9 5202     		.2byte	0x252
 5085 0cdb 73000000 		.4byte	0x73
 5086 0cdf A8020000 		.4byte	.LLST15
 5087 0ce3 0A       		.uleb128 0xa
 5088 0ce4 14000000 		.4byte	.LVL224
 5089 0ce8 18210000 		.4byte	0x2118
 5090 0cec F60C0000 		.4byte	0xcf6
 5091 0cf0 0B       		.uleb128 0xb
 5092 0cf1 01       		.uleb128 0x1
 5093 0cf2 50       		.byte	0x50
 5094 0cf3 01       		.uleb128 0x1
 5095 0cf4 30       		.byte	0x30
 5096 0cf5 00       		.byte	0
 5097 0cf6 0A       		.uleb128 0xa
 5098 0cf7 1A000000 		.4byte	.LVL225
 5099 0cfb 23210000 		.4byte	0x2123
 5100 0cff 090D0000 		.4byte	0xd09
 5101 0d03 0B       		.uleb128 0xb
 5102 0d04 01       		.uleb128 0x1
 5103 0d05 50       		.byte	0x50
 5104 0d06 01       		.uleb128 0x1
 5105 0d07 30       		.byte	0x30
 5106 0d08 00       		.byte	0
 5107 0d09 0A       		.uleb128 0xa
 5108 0d0a 22000000 		.4byte	.LVL228
 5109 0d0e 18210000 		.4byte	0x2118
 5110 0d12 1C0D0000 		.4byte	0xd1c
ARM GAS  C:\Users\pasan savindu\AppData\Local\Temp\ccY2T3Z5.s 			page 110


 5111 0d16 0B       		.uleb128 0xb
 5112 0d17 01       		.uleb128 0x1
 5113 0d18 50       		.byte	0x50
 5114 0d19 01       		.uleb128 0x1
 5115 0d1a 30       		.byte	0x30
 5116 0d1b 00       		.byte	0
 5117 0d1c 0A       		.uleb128 0xa
 5118 0d1d 28000000 		.4byte	.LVL229
 5119 0d21 23210000 		.4byte	0x2123
 5120 0d25 2F0D0000 		.4byte	0xd2f
 5121 0d29 0B       		.uleb128 0xb
 5122 0d2a 01       		.uleb128 0x1
 5123 0d2b 50       		.byte	0x50
 5124 0d2c 01       		.uleb128 0x1
 5125 0d2d 31       		.byte	0x31
 5126 0d2e 00       		.byte	0
 5127 0d2f 0A       		.uleb128 0xa
 5128 0d30 30000000 		.4byte	.LVL232
 5129 0d34 18210000 		.4byte	0x2118
 5130 0d38 420D0000 		.4byte	0xd42
 5131 0d3c 0B       		.uleb128 0xb
 5132 0d3d 01       		.uleb128 0x1
 5133 0d3e 50       		.byte	0x50
 5134 0d3f 01       		.uleb128 0x1
 5135 0d40 31       		.byte	0x31
 5136 0d41 00       		.byte	0
 5137 0d42 0A       		.uleb128 0xa
 5138 0d43 36000000 		.4byte	.LVL233
 5139 0d47 18210000 		.4byte	0x2118
 5140 0d4b 550D0000 		.4byte	0xd55
 5141 0d4f 0B       		.uleb128 0xb
 5142 0d50 01       		.uleb128 0x1
 5143 0d51 50       		.byte	0x50
 5144 0d52 01       		.uleb128 0x1
 5145 0d53 30       		.byte	0x30
 5146 0d54 00       		.byte	0
 5147 0d55 0A       		.uleb128 0xa
 5148 0d56 3E000000 		.4byte	.LVL236
 5149 0d5a 18210000 		.4byte	0x2118
 5150 0d5e 680D0000 		.4byte	0xd68
 5151 0d62 0B       		.uleb128 0xb
 5152 0d63 01       		.uleb128 0x1
 5153 0d64 50       		.byte	0x50
 5154 0d65 01       		.uleb128 0x1
 5155 0d66 31       		.byte	0x31
 5156 0d67 00       		.byte	0
 5157 0d68 0F       		.uleb128 0xf
 5158 0d69 44000000 		.4byte	.LVL237
 5159 0d6d 23210000 		.4byte	0x2123
 5160 0d71 0B       		.uleb128 0xb
 5161 0d72 01       		.uleb128 0x1
 5162 0d73 50       		.byte	0x50
 5163 0d74 01       		.uleb128 0x1
 5164 0d75 31       		.byte	0x31
 5165 0d76 00       		.byte	0
 5166 0d77 00       		.byte	0
 5167 0d78 13       		.uleb128 0x13
ARM GAS  C:\Users\pasan savindu\AppData\Local\Temp\ccY2T3Z5.s 			page 111


 5168 0d79 28020000 		.4byte	.LASF161
 5169 0d7d 01       		.byte	0x1
 5170 0d7e 4502     		.2byte	0x245
 5171 0d80 73000000 		.4byte	0x73
 5172 0d84 00000000 		.4byte	.LFB80
 5173 0d88 28000000 		.4byte	.LFE80-.LFB80
 5174 0d8c 01       		.uleb128 0x1
 5175 0d8d 9C       		.byte	0x9c
 5176 0d8e E70D0000 		.4byte	0xde7
 5177 0d92 10       		.uleb128 0x10
 5178 0d93 E9060000 		.4byte	.LASF49
 5179 0d97 01       		.byte	0x1
 5180 0d98 4502     		.2byte	0x245
 5181 0d9a 73000000 		.4byte	0x73
 5182 0d9e 14030000 		.4byte	.LLST16
 5183 0da2 0A       		.uleb128 0xa
 5184 0da3 06000000 		.4byte	.LVL239
 5185 0da7 BD0C0000 		.4byte	0xcbd
 5186 0dab B70D0000 		.4byte	0xdb7
 5187 0daf 0B       		.uleb128 0xb
 5188 0db0 01       		.uleb128 0x1
 5189 0db1 50       		.byte	0x50
 5190 0db2 03       		.uleb128 0x3
 5191 0db3 F3       		.byte	0xf3
 5192 0db4 01       		.uleb128 0x1
 5193 0db5 50       		.byte	0x50
 5194 0db6 00       		.byte	0
 5195 0db7 0A       		.uleb128 0xa
 5196 0db8 0C000000 		.4byte	.LVL240
 5197 0dbc 2E210000 		.4byte	0x212e
 5198 0dc0 CA0D0000 		.4byte	0xdca
 5199 0dc4 0B       		.uleb128 0xb
 5200 0dc5 01       		.uleb128 0x1
 5201 0dc6 50       		.byte	0x50
 5202 0dc7 01       		.uleb128 0x1
 5203 0dc8 31       		.byte	0x31
 5204 0dc9 00       		.byte	0
 5205 0dca 0A       		.uleb128 0xa
 5206 0dcb 12000000 		.4byte	.LVL241
 5207 0dcf 39210000 		.4byte	0x2139
 5208 0dd3 DD0D0000 		.4byte	0xddd
 5209 0dd7 0B       		.uleb128 0xb
 5210 0dd8 01       		.uleb128 0x1
 5211 0dd9 50       		.byte	0x50
 5212 0dda 01       		.uleb128 0x1
 5213 0ddb 30       		.byte	0x30
 5214 0ddc 00       		.byte	0
 5215 0ddd 08       		.uleb128 0x8
 5216 0dde 16000000 		.4byte	.LVL242
 5217 0de2 180B0000 		.4byte	0xb18
 5218 0de6 00       		.byte	0
 5219 0de7 14       		.uleb128 0x14
 5220 0de8 E9060000 		.4byte	.LASF49
 5221 0dec 01       		.byte	0x1
 5222 0ded 2802     		.2byte	0x228
 5223 0def 73000000 		.4byte	0x73
 5224 0df3 00000000 		.4byte	.LFB79
ARM GAS  C:\Users\pasan savindu\AppData\Local\Temp\ccY2T3Z5.s 			page 112


 5225 0df7 44000000 		.4byte	.LFE79-.LFB79
 5226 0dfb 01       		.uleb128 0x1
 5227 0dfc 9C       		.byte	0x9c
 5228 0dfd 4B0E0000 		.4byte	0xe4b
 5229 0e01 11       		.uleb128 0x11
 5230 0e02 78030000 		.4byte	.LASF50
 5231 0e06 01       		.byte	0x1
 5232 0e07 2902     		.2byte	0x229
 5233 0e09 D2000000 		.4byte	0xd2
 5234 0e0d 35030000 		.4byte	.LLST17
 5235 0e11 15       		.uleb128 0x15
 5236 0e12 9D040000 		.4byte	.LASF51
 5237 0e16 01       		.byte	0x1
 5238 0e17 2A02     		.2byte	0x22a
 5239 0e19 4B0E0000 		.4byte	0xe4b
 5240 0e1d 02       		.uleb128 0x2
 5241 0e1e 91       		.byte	0x91
 5242 0e1f 68       		.sleb128 -24
 5243 0e20 16       		.uleb128 0x16
 5244 0e21 04000000 		.4byte	.LBB2
 5245 0e25 1A000000 		.4byte	.LBE2-.LBB2
 5246 0e29 11       		.uleb128 0x11
 5247 0e2a E9060000 		.4byte	.LASF49
 5248 0e2e 01       		.byte	0x1
 5249 0e2f 2C02     		.2byte	0x22c
 5250 0e31 73000000 		.4byte	0x73
 5251 0e35 54030000 		.4byte	.LLST18
 5252 0e39 0F       		.uleb128 0xf
 5253 0e3a 0E000000 		.4byte	.LVL245
 5254 0e3e 780D0000 		.4byte	0xd78
 5255 0e42 0B       		.uleb128 0xb
 5256 0e43 01       		.uleb128 0x1
 5257 0e44 50       		.byte	0x50
 5258 0e45 02       		.uleb128 0x2
 5259 0e46 74       		.byte	0x74
 5260 0e47 00       		.sleb128 0
 5261 0e48 00       		.byte	0
 5262 0e49 00       		.byte	0
 5263 0e4a 00       		.byte	0
 5264 0e4b 17       		.uleb128 0x17
 5265 0e4c 73000000 		.4byte	0x73
 5266 0e50 5B0E0000 		.4byte	0xe5b
 5267 0e54 18       		.uleb128 0x18
 5268 0e55 CB000000 		.4byte	0xcb
 5269 0e59 03       		.byte	0x3
 5270 0e5a 00       		.byte	0
 5271 0e5b 19       		.uleb128 0x19
 5272 0e5c 3C050000 		.4byte	.LASF52
 5273 0e60 01       		.byte	0x1
 5274 0e61 6A02     		.2byte	0x26a
 5275 0e63 00000000 		.4byte	.LFB82
 5276 0e67 E8010000 		.4byte	.LFE82-.LFB82
 5277 0e6b 01       		.uleb128 0x1
 5278 0e6c 9C       		.byte	0x9c
 5279 0e6d D1100000 		.4byte	0x10d1
 5280 0e71 1A       		.uleb128 0x1a
 5281 0e72 F1040000 		.4byte	.LASF162
ARM GAS  C:\Users\pasan savindu\AppData\Local\Temp\ccY2T3Z5.s 			page 113


 5282 0e76 01       		.byte	0x1
 5283 0e77 6E02     		.2byte	0x26e
 5284 0e79 D1100000 		.4byte	0x10d1
 5285 0e7d 1B       		.uleb128 0x1b
 5286 0e7e 7900     		.ascii	"y\000"
 5287 0e80 01       		.byte	0x1
 5288 0e81 7002     		.2byte	0x270
 5289 0e83 A3000000 		.4byte	0xa3
 5290 0e87 73030000 		.4byte	.LLST19
 5291 0e8b 1B       		.uleb128 0x1b
 5292 0e8c 7A00     		.ascii	"z\000"
 5293 0e8e 01       		.byte	0x1
 5294 0e8f 7102     		.2byte	0x271
 5295 0e91 A3000000 		.4byte	0xa3
 5296 0e95 86030000 		.4byte	.LLST20
 5297 0e99 11       		.uleb128 0x11
 5298 0e9a 4D010000 		.4byte	.LASF53
 5299 0e9e 01       		.byte	0x1
 5300 0e9f 7202     		.2byte	0x272
 5301 0ea1 B6000000 		.4byte	0xb6
 5302 0ea5 AB030000 		.4byte	.LLST21
 5303 0ea9 11       		.uleb128 0x11
 5304 0eaa 59060000 		.4byte	.LASF43
 5305 0eae 01       		.byte	0x1
 5306 0eaf 7302     		.2byte	0x273
 5307 0eb1 73000000 		.4byte	0x73
 5308 0eb5 F3030000 		.4byte	.LLST22
 5309 0eb9 0A       		.uleb128 0xa
 5310 0eba 0C000000 		.4byte	.LVL248
 5311 0ebe 44210000 		.4byte	0x2144
 5312 0ec2 D10E0000 		.4byte	0xed1
 5313 0ec6 0B       		.uleb128 0xb
 5314 0ec7 01       		.uleb128 0x1
 5315 0ec8 50       		.byte	0x50
 5316 0ec9 01       		.uleb128 0x1
 5317 0eca 3D       		.byte	0x3d
 5318 0ecb 0B       		.uleb128 0xb
 5319 0ecc 01       		.uleb128 0x1
 5320 0ecd 51       		.byte	0x51
 5321 0ece 01       		.uleb128 0x1
 5322 0ecf 30       		.byte	0x30
 5323 0ed0 00       		.byte	0
 5324 0ed1 0A       		.uleb128 0xa
 5325 0ed2 12000000 		.4byte	.LVL249
 5326 0ed6 4F210000 		.4byte	0x214f
 5327 0eda E40E0000 		.4byte	0xee4
 5328 0ede 0B       		.uleb128 0xb
 5329 0edf 01       		.uleb128 0x1
 5330 0ee0 50       		.byte	0x50
 5331 0ee1 01       		.uleb128 0x1
 5332 0ee2 3B       		.byte	0x3b
 5333 0ee3 00       		.byte	0
 5334 0ee4 0A       		.uleb128 0xa
 5335 0ee5 18000000 		.4byte	.LVL250
 5336 0ee9 4F210000 		.4byte	0x214f
 5337 0eed F70E0000 		.4byte	0xef7
 5338 0ef1 0B       		.uleb128 0xb
ARM GAS  C:\Users\pasan savindu\AppData\Local\Temp\ccY2T3Z5.s 			page 114


 5339 0ef2 01       		.uleb128 0x1
 5340 0ef3 50       		.byte	0x50
 5341 0ef4 01       		.uleb128 0x1
 5342 0ef5 31       		.byte	0x31
 5343 0ef6 00       		.byte	0
 5344 0ef7 08       		.uleb128 0x8
 5345 0ef8 1C000000 		.4byte	.LVL251
 5346 0efc 5A210000 		.4byte	0x215a
 5347 0f00 0A       		.uleb128 0xa
 5348 0f01 22000000 		.4byte	.LVL252
 5349 0f05 E41F0000 		.4byte	0x1fe4
 5350 0f09 140F0000 		.4byte	0xf14
 5351 0f0d 0B       		.uleb128 0xb
 5352 0f0e 01       		.uleb128 0x1
 5353 0f0f 50       		.byte	0x50
 5354 0f10 02       		.uleb128 0x2
 5355 0f11 08       		.byte	0x8
 5356 0f12 64       		.byte	0x64
 5357 0f13 00       		.byte	0
 5358 0f14 0A       		.uleb128 0xa
 5359 0f15 2A000000 		.4byte	.LVL253
 5360 0f19 44210000 		.4byte	0x2144
 5361 0f1d 2C0F0000 		.4byte	0xf2c
 5362 0f21 0B       		.uleb128 0xb
 5363 0f22 01       		.uleb128 0x1
 5364 0f23 50       		.byte	0x50
 5365 0f24 01       		.uleb128 0x1
 5366 0f25 3D       		.byte	0x3d
 5367 0f26 0B       		.uleb128 0xb
 5368 0f27 01       		.uleb128 0x1
 5369 0f28 51       		.byte	0x51
 5370 0f29 01       		.uleb128 0x1
 5371 0f2a 30       		.byte	0x30
 5372 0f2b 00       		.byte	0
 5373 0f2c 0A       		.uleb128 0xa
 5374 0f2d 30000000 		.4byte	.LVL254
 5375 0f31 4F210000 		.4byte	0x214f
 5376 0f35 3F0F0000 		.4byte	0xf3f
 5377 0f39 0B       		.uleb128 0xb
 5378 0f3a 01       		.uleb128 0x1
 5379 0f3b 50       		.byte	0x50
 5380 0f3c 01       		.uleb128 0x1
 5381 0f3d 39       		.byte	0x39
 5382 0f3e 00       		.byte	0
 5383 0f3f 0A       		.uleb128 0xa
 5384 0f40 36000000 		.4byte	.LVL255
 5385 0f44 4F210000 		.4byte	0x214f
 5386 0f48 520F0000 		.4byte	0xf52
 5387 0f4c 0B       		.uleb128 0xb
 5388 0f4d 01       		.uleb128 0x1
 5389 0f4e 50       		.byte	0x50
 5390 0f4f 01       		.uleb128 0x1
 5391 0f50 4D       		.byte	0x4d
 5392 0f51 00       		.byte	0
 5393 0f52 08       		.uleb128 0x8
 5394 0f53 3A000000 		.4byte	.LVL256
 5395 0f57 5A210000 		.4byte	0x215a
ARM GAS  C:\Users\pasan savindu\AppData\Local\Temp\ccY2T3Z5.s 			page 115


 5396 0f5b 0A       		.uleb128 0xa
 5397 0f5c 40000000 		.4byte	.LVL257
 5398 0f60 E41F0000 		.4byte	0x1fe4
 5399 0f64 6F0F0000 		.4byte	0xf6f
 5400 0f68 0B       		.uleb128 0xb
 5401 0f69 01       		.uleb128 0x1
 5402 0f6a 50       		.byte	0x50
 5403 0f6b 02       		.uleb128 0x2
 5404 0f6c 08       		.byte	0x8
 5405 0f6d 64       		.byte	0x64
 5406 0f6e 00       		.byte	0
 5407 0f6f 0A       		.uleb128 0xa
 5408 0f70 4C000000 		.4byte	.LVL259
 5409 0f74 44210000 		.4byte	0x2144
 5410 0f78 870F0000 		.4byte	0xf87
 5411 0f7c 0B       		.uleb128 0xb
 5412 0f7d 01       		.uleb128 0x1
 5413 0f7e 50       		.byte	0x50
 5414 0f7f 01       		.uleb128 0x1
 5415 0f80 3D       		.byte	0x3d
 5416 0f81 0B       		.uleb128 0xb
 5417 0f82 01       		.uleb128 0x1
 5418 0f83 51       		.byte	0x51
 5419 0f84 01       		.uleb128 0x1
 5420 0f85 30       		.byte	0x30
 5421 0f86 00       		.byte	0
 5422 0f87 0A       		.uleb128 0xa
 5423 0f88 52000000 		.4byte	.LVL260
 5424 0f8c 4F210000 		.4byte	0x214f
 5425 0f90 9A0F0000 		.4byte	0xf9a
 5426 0f94 0B       		.uleb128 0xb
 5427 0f95 01       		.uleb128 0x1
 5428 0f96 50       		.byte	0x50
 5429 0f97 01       		.uleb128 0x1
 5430 0f98 30       		.byte	0x30
 5431 0f99 00       		.byte	0
 5432 0f9a 08       		.uleb128 0x8
 5433 0f9b 56000000 		.4byte	.LVL261
 5434 0f9f 5A210000 		.4byte	0x215a
 5435 0fa3 0A       		.uleb128 0xa
 5436 0fa4 5E000000 		.4byte	.LVL262
 5437 0fa8 44210000 		.4byte	0x2144
 5438 0fac BB0F0000 		.4byte	0xfbb
 5439 0fb0 0B       		.uleb128 0xb
 5440 0fb1 01       		.uleb128 0x1
 5441 0fb2 50       		.byte	0x50
 5442 0fb3 01       		.uleb128 0x1
 5443 0fb4 3D       		.byte	0x3d
 5444 0fb5 0B       		.uleb128 0xb
 5445 0fb6 01       		.uleb128 0x1
 5446 0fb7 51       		.byte	0x51
 5447 0fb8 01       		.uleb128 0x1
 5448 0fb9 31       		.byte	0x31
 5449 0fba 00       		.byte	0
 5450 0fbb 0A       		.uleb128 0xa
 5451 0fbc 64000000 		.4byte	.LVL263
 5452 0fc0 65210000 		.4byte	0x2165
ARM GAS  C:\Users\pasan savindu\AppData\Local\Temp\ccY2T3Z5.s 			page 116


 5453 0fc4 CE0F0000 		.4byte	0xfce
 5454 0fc8 0B       		.uleb128 0xb
 5455 0fc9 01       		.uleb128 0x1
 5456 0fca 50       		.byte	0x50
 5457 0fcb 01       		.uleb128 0x1
 5458 0fcc 31       		.byte	0x31
 5459 0fcd 00       		.byte	0
 5460 0fce 0A       		.uleb128 0xa
 5461 0fcf 6A000000 		.4byte	.LVL264
 5462 0fd3 65210000 		.4byte	0x2165
 5463 0fd7 E10F0000 		.4byte	0xfe1
 5464 0fdb 0B       		.uleb128 0xb
 5465 0fdc 01       		.uleb128 0x1
 5466 0fdd 50       		.byte	0x50
 5467 0fde 01       		.uleb128 0x1
 5468 0fdf 31       		.byte	0x31
 5469 0fe0 00       		.byte	0
 5470 0fe1 0A       		.uleb128 0xa
 5471 0fe2 70000000 		.4byte	.LVL265
 5472 0fe6 65210000 		.4byte	0x2165
 5473 0fea F40F0000 		.4byte	0xff4
 5474 0fee 0B       		.uleb128 0xb
 5475 0fef 01       		.uleb128 0x1
 5476 0ff0 50       		.byte	0x50
 5477 0ff1 01       		.uleb128 0x1
 5478 0ff2 31       		.byte	0x31
 5479 0ff3 00       		.byte	0
 5480 0ff4 0A       		.uleb128 0xa
 5481 0ff5 78000000 		.4byte	.LVL266
 5482 0ff9 65210000 		.4byte	0x2165
 5483 0ffd 07100000 		.4byte	0x1007
 5484 1001 0B       		.uleb128 0xb
 5485 1002 01       		.uleb128 0x1
 5486 1003 50       		.byte	0x50
 5487 1004 01       		.uleb128 0x1
 5488 1005 31       		.byte	0x31
 5489 1006 00       		.byte	0
 5490 1007 0A       		.uleb128 0xa
 5491 1008 82000000 		.4byte	.LVL267
 5492 100c 65210000 		.4byte	0x2165
 5493 1010 1A100000 		.4byte	0x101a
 5494 1014 0B       		.uleb128 0xb
 5495 1015 01       		.uleb128 0x1
 5496 1016 50       		.byte	0x50
 5497 1017 01       		.uleb128 0x1
 5498 1018 31       		.byte	0x31
 5499 1019 00       		.byte	0
 5500 101a 0A       		.uleb128 0xa
 5501 101b 8A000000 		.4byte	.LVL268
 5502 101f 65210000 		.4byte	0x2165
 5503 1023 2D100000 		.4byte	0x102d
 5504 1027 0B       		.uleb128 0xb
 5505 1028 01       		.uleb128 0x1
 5506 1029 50       		.byte	0x50
 5507 102a 01       		.uleb128 0x1
 5508 102b 30       		.byte	0x30
 5509 102c 00       		.byte	0
ARM GAS  C:\Users\pasan savindu\AppData\Local\Temp\ccY2T3Z5.s 			page 117


 5510 102d 08       		.uleb128 0x8
 5511 102e 90000000 		.4byte	.LVL269
 5512 1032 5A210000 		.4byte	0x215a
 5513 1036 08       		.uleb128 0x8
 5514 1037 B6000000 		.4byte	.LVL274
 5515 103b 70210000 		.4byte	0x2170
 5516 103f 0A       		.uleb128 0xa
 5517 1040 1C010000 		.4byte	.LVL289
 5518 1044 7B210000 		.4byte	0x217b
 5519 1048 5C100000 		.4byte	0x105c
 5520 104c 0B       		.uleb128 0xb
 5521 104d 01       		.uleb128 0x1
 5522 104e 50       		.byte	0x50
 5523 104f 02       		.uleb128 0x2
 5524 1050 77       		.byte	0x77
 5525 1051 00       		.sleb128 0
 5526 1052 0B       		.uleb128 0xb
 5527 1053 01       		.uleb128 0x1
 5528 1054 51       		.byte	0x51
 5529 1055 05       		.uleb128 0x5
 5530 1056 03       		.byte	0x3
 5531 1057 00000000 		.4byte	.LC0
 5532 105b 00       		.byte	0
 5533 105c 0A       		.uleb128 0xa
 5534 105d 22010000 		.4byte	.LVL290
 5535 1061 86210000 		.4byte	0x2186
 5536 1065 70100000 		.4byte	0x1070
 5537 1069 0B       		.uleb128 0xb
 5538 106a 01       		.uleb128 0x1
 5539 106b 50       		.byte	0x50
 5540 106c 02       		.uleb128 0x2
 5541 106d 77       		.byte	0x77
 5542 106e 00       		.sleb128 0
 5543 106f 00       		.byte	0
 5544 1070 0A       		.uleb128 0xa
 5545 1071 28010000 		.4byte	.LVL291
 5546 1075 E41F0000 		.4byte	0x1fe4
 5547 1079 84100000 		.4byte	0x1084
 5548 107d 0B       		.uleb128 0xb
 5549 107e 01       		.uleb128 0x1
 5550 107f 50       		.byte	0x50
 5551 1080 02       		.uleb128 0x2
 5552 1081 08       		.byte	0x8
 5553 1082 C8       		.byte	0xc8
 5554 1083 00       		.byte	0
 5555 1084 0A       		.uleb128 0xa
 5556 1085 4A010000 		.4byte	.LVL294
 5557 1089 80020000 		.4byte	0x280
 5558 108d 98100000 		.4byte	0x1098
 5559 1091 0B       		.uleb128 0xb
 5560 1092 01       		.uleb128 0x1
 5561 1093 50       		.byte	0x50
 5562 1094 02       		.uleb128 0x2
 5563 1095 08       		.byte	0x8
 5564 1096 52       		.byte	0x52
 5565 1097 00       		.byte	0
 5566 1098 0A       		.uleb128 0xa
ARM GAS  C:\Users\pasan savindu\AppData\Local\Temp\ccY2T3Z5.s 			page 118


 5567 1099 6C010000 		.4byte	.LVL297
 5568 109d 80020000 		.4byte	0x280
 5569 10a1 AC100000 		.4byte	0x10ac
 5570 10a5 0B       		.uleb128 0xb
 5571 10a6 01       		.uleb128 0x1
 5572 10a7 50       		.byte	0x50
 5573 10a8 02       		.uleb128 0x2
 5574 10a9 08       		.byte	0x8
 5575 10aa 4C       		.byte	0x4c
 5576 10ab 00       		.byte	0
 5577 10ac 0A       		.uleb128 0xa
 5578 10ad 8E010000 		.4byte	.LVL300
 5579 10b1 80020000 		.4byte	0x280
 5580 10b5 C0100000 		.4byte	0x10c0
 5581 10b9 0B       		.uleb128 0xb
 5582 10ba 01       		.uleb128 0x1
 5583 10bb 50       		.byte	0x50
 5584 10bc 02       		.uleb128 0x2
 5585 10bd 08       		.byte	0x8
 5586 10be 52       		.byte	0x52
 5587 10bf 00       		.byte	0
 5588 10c0 0F       		.uleb128 0xf
 5589 10c1 B0010000 		.4byte	.LVL303
 5590 10c5 80020000 		.4byte	0x280
 5591 10c9 0B       		.uleb128 0xb
 5592 10ca 01       		.uleb128 0x1
 5593 10cb 50       		.byte	0x50
 5594 10cc 02       		.uleb128 0x2
 5595 10cd 08       		.byte	0x8
 5596 10ce 53       		.byte	0x53
 5597 10cf 00       		.byte	0
 5598 10d0 00       		.byte	0
 5599 10d1 17       		.uleb128 0x17
 5600 10d2 A3000000 		.4byte	0xa3
 5601 10d6 E1100000 		.4byte	0x10e1
 5602 10da 18       		.uleb128 0x18
 5603 10db CB000000 		.4byte	0xcb
 5604 10df 05       		.byte	0x5
 5605 10e0 00       		.byte	0
 5606 10e1 0D       		.uleb128 0xd
 5607 10e2 BC010000 		.4byte	.LASF54
 5608 10e6 01       		.byte	0x1
 5609 10e7 B802     		.2byte	0x2b8
 5610 10e9 00000000 		.4byte	.LFB83
 5611 10ed 6C000000 		.4byte	.LFE83-.LFB83
 5612 10f1 01       		.uleb128 0x1
 5613 10f2 9C       		.byte	0x9c
 5614 10f3 DC110000 		.4byte	0x11dc
 5615 10f7 10       		.uleb128 0x10
 5616 10f8 E4060000 		.4byte	.LASF55
 5617 10fc 01       		.byte	0x1
 5618 10fd B802     		.2byte	0x2b8
 5619 10ff 73000000 		.4byte	0x73
 5620 1103 29040000 		.4byte	.LLST23
 5621 1107 0A       		.uleb128 0xa
 5622 1108 10000000 		.4byte	.LVL308
 5623 110c 5B070000 		.4byte	0x75b
ARM GAS  C:\Users\pasan savindu\AppData\Local\Temp\ccY2T3Z5.s 			page 119


 5624 1110 22110000 		.4byte	0x1122
 5625 1114 0B       		.uleb128 0xb
 5626 1115 01       		.uleb128 0x1
 5627 1116 50       		.byte	0x50
 5628 1117 02       		.uleb128 0x2
 5629 1118 08       		.byte	0x8
 5630 1119 46       		.byte	0x46
 5631 111a 0B       		.uleb128 0xb
 5632 111b 01       		.uleb128 0x1
 5633 111c 51       		.byte	0x51
 5634 111d 03       		.uleb128 0x3
 5635 111e 0A       		.byte	0xa
 5636 111f C8AF     		.2byte	0xafc8
 5637 1121 00       		.byte	0
 5638 1122 0A       		.uleb128 0xa
 5639 1123 1A000000 		.4byte	.LVL309
 5640 1127 26080000 		.4byte	0x826
 5641 112b 3D110000 		.4byte	0x113d
 5642 112f 0B       		.uleb128 0xb
 5643 1130 01       		.uleb128 0x1
 5644 1131 50       		.byte	0x50
 5645 1132 02       		.uleb128 0x2
 5646 1133 08       		.byte	0x8
 5647 1134 52       		.byte	0x52
 5648 1135 0B       		.uleb128 0xb
 5649 1136 01       		.uleb128 0x1
 5650 1137 51       		.byte	0x51
 5651 1138 03       		.uleb128 0x3
 5652 1139 0A       		.byte	0xa
 5653 113a 7A3F     		.2byte	0x3f7a
 5654 113c 00       		.byte	0
 5655 113d 0A       		.uleb128 0xa
 5656 113e 24000000 		.4byte	.LVL310
 5657 1142 5B070000 		.4byte	0x75b
 5658 1146 58110000 		.4byte	0x1158
 5659 114a 0B       		.uleb128 0xb
 5660 114b 01       		.uleb128 0x1
 5661 114c 50       		.byte	0x50
 5662 114d 02       		.uleb128 0x2
 5663 114e 08       		.byte	0x8
 5664 114f 46       		.byte	0x46
 5665 1150 0B       		.uleb128 0xb
 5666 1151 01       		.uleb128 0x1
 5667 1152 51       		.byte	0x51
 5668 1153 03       		.uleb128 0x3
 5669 1154 0A       		.byte	0xa
 5670 1155 E02E     		.2byte	0x2ee0
 5671 1157 00       		.byte	0
 5672 1158 0A       		.uleb128 0xa
 5673 1159 2E000000 		.4byte	.LVL311
 5674 115d 26080000 		.4byte	0x826
 5675 1161 73110000 		.4byte	0x1173
 5676 1165 0B       		.uleb128 0xb
 5677 1166 01       		.uleb128 0x1
 5678 1167 50       		.byte	0x50
 5679 1168 02       		.uleb128 0x2
 5680 1169 08       		.byte	0x8
ARM GAS  C:\Users\pasan savindu\AppData\Local\Temp\ccY2T3Z5.s 			page 120


 5681 116a 4C       		.byte	0x4c
 5682 116b 0B       		.uleb128 0xb
 5683 116c 01       		.uleb128 0x1
 5684 116d 51       		.byte	0x51
 5685 116e 03       		.uleb128 0x3
 5686 116f 0A       		.byte	0xa
 5687 1170 C233     		.2byte	0x33c2
 5688 1172 00       		.byte	0
 5689 1173 0A       		.uleb128 0xa
 5690 1174 3E000000 		.4byte	.LVL314
 5691 1178 5B070000 		.4byte	0x75b
 5692 117c 8E110000 		.4byte	0x118e
 5693 1180 0B       		.uleb128 0xb
 5694 1181 01       		.uleb128 0x1
 5695 1182 50       		.byte	0x50
 5696 1183 02       		.uleb128 0x2
 5697 1184 08       		.byte	0x8
 5698 1185 46       		.byte	0x46
 5699 1186 0B       		.uleb128 0xb
 5700 1187 01       		.uleb128 0x1
 5701 1188 51       		.byte	0x51
 5702 1189 03       		.uleb128 0x3
 5703 118a 0A       		.byte	0xa
 5704 118b C8AF     		.2byte	0xafc8
 5705 118d 00       		.byte	0
 5706 118e 0A       		.uleb128 0xa
 5707 118f 48000000 		.4byte	.LVL315
 5708 1193 26080000 		.4byte	0x826
 5709 1197 A9110000 		.4byte	0x11a9
 5710 119b 0B       		.uleb128 0xb
 5711 119c 01       		.uleb128 0x1
 5712 119d 50       		.byte	0x50
 5713 119e 02       		.uleb128 0x2
 5714 119f 08       		.byte	0x8
 5715 11a0 4C       		.byte	0x4c
 5716 11a1 0B       		.uleb128 0xb
 5717 11a2 01       		.uleb128 0x1
 5718 11a3 51       		.byte	0x51
 5719 11a4 03       		.uleb128 0x3
 5720 11a5 0A       		.byte	0xa
 5721 11a6 C233     		.2byte	0x33c2
 5722 11a8 00       		.byte	0
 5723 11a9 0A       		.uleb128 0xa
 5724 11aa 52000000 		.4byte	.LVL316
 5725 11ae 5B070000 		.4byte	0x75b
 5726 11b2 C4110000 		.4byte	0x11c4
 5727 11b6 0B       		.uleb128 0xb
 5728 11b7 01       		.uleb128 0x1
 5729 11b8 50       		.byte	0x50
 5730 11b9 02       		.uleb128 0x2
 5731 11ba 08       		.byte	0x8
 5732 11bb 46       		.byte	0x46
 5733 11bc 0B       		.uleb128 0xb
 5734 11bd 01       		.uleb128 0x1
 5735 11be 51       		.byte	0x51
 5736 11bf 03       		.uleb128 0x3
 5737 11c0 0A       		.byte	0xa
ARM GAS  C:\Users\pasan savindu\AppData\Local\Temp\ccY2T3Z5.s 			page 121


 5738 11c1 E02E     		.2byte	0x2ee0
 5739 11c3 00       		.byte	0
 5740 11c4 0F       		.uleb128 0xf
 5741 11c5 5C000000 		.4byte	.LVL317
 5742 11c9 26080000 		.4byte	0x826
 5743 11cd 0B       		.uleb128 0xb
 5744 11ce 01       		.uleb128 0x1
 5745 11cf 50       		.byte	0x50
 5746 11d0 02       		.uleb128 0x2
 5747 11d1 08       		.byte	0x8
 5748 11d2 52       		.byte	0x52
 5749 11d3 0B       		.uleb128 0xb
 5750 11d4 01       		.uleb128 0x1
 5751 11d5 51       		.byte	0x51
 5752 11d6 03       		.uleb128 0x3
 5753 11d7 0A       		.byte	0xa
 5754 11d8 C233     		.2byte	0x33c2
 5755 11da 00       		.byte	0
 5756 11db 00       		.byte	0
 5757 11dc 12       		.uleb128 0x12
 5758 11dd 35010000 		.4byte	.LASF56
 5759 11e1 01       		.byte	0x1
 5760 11e2 CB02     		.2byte	0x2cb
 5761 11e4 00000000 		.4byte	.LFB84
 5762 11e8 40030000 		.4byte	.LFE84-.LFB84
 5763 11ec 01       		.uleb128 0x1
 5764 11ed 9C       		.byte	0x9c
 5765 11ee 28170000 		.4byte	0x1728
 5766 11f2 11       		.uleb128 0x11
 5767 11f3 73010000 		.4byte	.LASF57
 5768 11f7 01       		.byte	0x1
 5769 11f8 DB02     		.2byte	0x2db
 5770 11fa 73000000 		.4byte	0x73
 5771 11fe 63040000 		.4byte	.LLST24
 5772 1202 11       		.uleb128 0x11
 5773 1203 59060000 		.4byte	.LASF43
 5774 1207 01       		.byte	0x1
 5775 1208 DC02     		.2byte	0x2dc
 5776 120a 73000000 		.4byte	0x73
 5777 120e 95040000 		.4byte	.LLST25
 5778 1212 0A       		.uleb128 0xa
 5779 1213 08000000 		.4byte	.LVL318
 5780 1217 B81F0000 		.4byte	0x1fb8
 5781 121b 25120000 		.4byte	0x1225
 5782 121f 0B       		.uleb128 0xb
 5783 1220 01       		.uleb128 0x1
 5784 1221 50       		.byte	0x50
 5785 1222 01       		.uleb128 0x1
 5786 1223 30       		.byte	0x30
 5787 1224 00       		.byte	0
 5788 1225 0A       		.uleb128 0xa
 5789 1226 0E000000 		.4byte	.LVL319
 5790 122a C31F0000 		.4byte	0x1fc3
 5791 122e 38120000 		.4byte	0x1238
 5792 1232 0B       		.uleb128 0xb
 5793 1233 01       		.uleb128 0x1
 5794 1234 50       		.byte	0x50
ARM GAS  C:\Users\pasan savindu\AppData\Local\Temp\ccY2T3Z5.s 			page 122


 5795 1235 01       		.uleb128 0x1
 5796 1236 30       		.byte	0x30
 5797 1237 00       		.byte	0
 5798 1238 08       		.uleb128 0x8
 5799 1239 1C000000 		.4byte	.LVL320
 5800 123d 601F0000 		.4byte	0x1f60
 5801 1241 0A       		.uleb128 0xa
 5802 1242 2E000000 		.4byte	.LVL321
 5803 1246 F7200000 		.4byte	0x20f7
 5804 124a 56120000 		.4byte	0x1256
 5805 124e 0B       		.uleb128 0xb
 5806 124f 01       		.uleb128 0x1
 5807 1250 50       		.byte	0x50
 5808 1251 03       		.uleb128 0x3
 5809 1252 0A       		.byte	0xa
 5810 1253 F401     		.2byte	0x1f4
 5811 1255 00       		.byte	0
 5812 1256 0A       		.uleb128 0xa
 5813 1257 36000000 		.4byte	.LVL322
 5814 125b 02210000 		.4byte	0x2102
 5815 125f 6B120000 		.4byte	0x126b
 5816 1263 0B       		.uleb128 0xb
 5817 1264 01       		.uleb128 0x1
 5818 1265 50       		.byte	0x50
 5819 1266 03       		.uleb128 0x3
 5820 1267 0A       		.byte	0xa
 5821 1268 BC02     		.2byte	0x2bc
 5822 126a 00       		.byte	0
 5823 126b 0A       		.uleb128 0xa
 5824 126c 3E000000 		.4byte	.LVL323
 5825 1270 E41F0000 		.4byte	0x1fe4
 5826 1274 80120000 		.4byte	0x1280
 5827 1278 0B       		.uleb128 0xb
 5828 1279 01       		.uleb128 0x1
 5829 127a 50       		.byte	0x50
 5830 127b 03       		.uleb128 0x3
 5831 127c 0A       		.byte	0xa
 5832 127d F401     		.2byte	0x1f4
 5833 127f 00       		.byte	0
 5834 1280 0A       		.uleb128 0xa
 5835 1281 46000000 		.4byte	.LVL324
 5836 1285 F7200000 		.4byte	0x20f7
 5837 1289 95120000 		.4byte	0x1295
 5838 128d 0B       		.uleb128 0xb
 5839 128e 01       		.uleb128 0x1
 5840 128f 50       		.byte	0x50
 5841 1290 03       		.uleb128 0x3
 5842 1291 0A       		.byte	0xa
 5843 1292 B603     		.2byte	0x3b6
 5844 1294 00       		.byte	0
 5845 1295 0A       		.uleb128 0xa
 5846 1296 4E000000 		.4byte	.LVL325
 5847 129a E41F0000 		.4byte	0x1fe4
 5848 129e AA120000 		.4byte	0x12aa
 5849 12a2 0B       		.uleb128 0xb
 5850 12a3 01       		.uleb128 0x1
 5851 12a4 50       		.byte	0x50
ARM GAS  C:\Users\pasan savindu\AppData\Local\Temp\ccY2T3Z5.s 			page 123


 5852 12a5 03       		.uleb128 0x3
 5853 12a6 0A       		.byte	0xa
 5854 12a7 F401     		.2byte	0x1f4
 5855 12a9 00       		.byte	0
 5856 12aa 08       		.uleb128 0x8
 5857 12ab 54000000 		.4byte	.LVL327
 5858 12af 4A1F0000 		.4byte	0x1f4a
 5859 12b3 0A       		.uleb128 0xa
 5860 12b4 70000000 		.4byte	.LVL328
 5861 12b8 80020000 		.4byte	0x280
 5862 12bc C7120000 		.4byte	0x12c7
 5863 12c0 0B       		.uleb128 0xb
 5864 12c1 01       		.uleb128 0x1
 5865 12c2 50       		.byte	0x50
 5866 12c3 02       		.uleb128 0x2
 5867 12c4 08       		.byte	0x8
 5868 12c5 46       		.byte	0x46
 5869 12c6 00       		.byte	0
 5870 12c7 0A       		.uleb128 0xa
 5871 12c8 8A000000 		.4byte	.LVL329
 5872 12cc 80020000 		.4byte	0x280
 5873 12d0 DB120000 		.4byte	0x12db
 5874 12d4 0B       		.uleb128 0xb
 5875 12d5 01       		.uleb128 0x1
 5876 12d6 50       		.byte	0x50
 5877 12d7 02       		.uleb128 0x2
 5878 12d8 08       		.byte	0x8
 5879 12d9 53       		.byte	0x53
 5880 12da 00       		.byte	0
 5881 12db 0A       		.uleb128 0xa
 5882 12dc 94000000 		.4byte	.LVL330
 5883 12e0 5B070000 		.4byte	0x75b
 5884 12e4 EF120000 		.4byte	0x12ef
 5885 12e8 0B       		.uleb128 0xb
 5886 12e9 01       		.uleb128 0x1
 5887 12ea 50       		.byte	0x50
 5888 12eb 02       		.uleb128 0x2
 5889 12ec 08       		.byte	0x8
 5890 12ed 42       		.byte	0x42
 5891 12ee 00       		.byte	0
 5892 12ef 0A       		.uleb128 0xa
 5893 12f0 BC000000 		.4byte	.LVL331
 5894 12f4 26080000 		.4byte	0x826
 5895 12f8 0A130000 		.4byte	0x130a
 5896 12fc 0B       		.uleb128 0xb
 5897 12fd 01       		.uleb128 0x1
 5898 12fe 50       		.byte	0x50
 5899 12ff 02       		.uleb128 0x2
 5900 1300 08       		.byte	0x8
 5901 1301 4C       		.byte	0x4c
 5902 1302 0B       		.uleb128 0xb
 5903 1303 01       		.uleb128 0x1
 5904 1304 51       		.byte	0x51
 5905 1305 03       		.uleb128 0x3
 5906 1306 0A       		.byte	0xa
 5907 1307 C233     		.2byte	0x33c2
 5908 1309 00       		.byte	0
ARM GAS  C:\Users\pasan savindu\AppData\Local\Temp\ccY2T3Z5.s 			page 124


 5909 130a 0A       		.uleb128 0xa
 5910 130b C6000000 		.4byte	.LVL332
 5911 130f 5B070000 		.4byte	0x75b
 5912 1313 25130000 		.4byte	0x1325
 5913 1317 0B       		.uleb128 0xb
 5914 1318 01       		.uleb128 0x1
 5915 1319 50       		.byte	0x50
 5916 131a 02       		.uleb128 0x2
 5917 131b 08       		.byte	0x8
 5918 131c 46       		.byte	0x46
 5919 131d 0B       		.uleb128 0xb
 5920 131e 01       		.uleb128 0x1
 5921 131f 51       		.byte	0x51
 5922 1320 03       		.uleb128 0x3
 5923 1321 0A       		.byte	0xa
 5924 1322 204E     		.2byte	0x4e20
 5925 1324 00       		.byte	0
 5926 1325 0A       		.uleb128 0xa
 5927 1326 D0000000 		.4byte	.LVL333
 5928 132a 26080000 		.4byte	0x826
 5929 132e 40130000 		.4byte	0x1340
 5930 1332 0B       		.uleb128 0xb
 5931 1333 01       		.uleb128 0x1
 5932 1334 50       		.byte	0x50
 5933 1335 02       		.uleb128 0x2
 5934 1336 08       		.byte	0x8
 5935 1337 52       		.byte	0x52
 5936 1338 0B       		.uleb128 0xb
 5937 1339 01       		.uleb128 0x1
 5938 133a 51       		.byte	0x51
 5939 133b 03       		.uleb128 0x3
 5940 133c 0A       		.byte	0xa
 5941 133d 7A3F     		.2byte	0x3f7a
 5942 133f 00       		.byte	0
 5943 1340 0A       		.uleb128 0xa
 5944 1341 EC000000 		.4byte	.LVL334
 5945 1345 26080000 		.4byte	0x826
 5946 1349 5B130000 		.4byte	0x135b
 5947 134d 0B       		.uleb128 0xb
 5948 134e 01       		.uleb128 0x1
 5949 134f 50       		.byte	0x50
 5950 1350 02       		.uleb128 0x2
 5951 1351 08       		.byte	0x8
 5952 1352 52       		.byte	0x52
 5953 1353 0B       		.uleb128 0xb
 5954 1354 01       		.uleb128 0x1
 5955 1355 51       		.byte	0x51
 5956 1356 03       		.uleb128 0x3
 5957 1357 0A       		.byte	0xa
 5958 1358 7A3F     		.2byte	0x3f7a
 5959 135a 00       		.byte	0
 5960 135b 0A       		.uleb128 0xa
 5961 135c F6000000 		.4byte	.LVL335
 5962 1360 5B070000 		.4byte	0x75b
 5963 1364 76130000 		.4byte	0x1376
 5964 1368 0B       		.uleb128 0xb
 5965 1369 01       		.uleb128 0x1
ARM GAS  C:\Users\pasan savindu\AppData\Local\Temp\ccY2T3Z5.s 			page 125


 5966 136a 50       		.byte	0x50
 5967 136b 02       		.uleb128 0x2
 5968 136c 08       		.byte	0x8
 5969 136d 46       		.byte	0x46
 5970 136e 0B       		.uleb128 0xb
 5971 136f 01       		.uleb128 0x1
 5972 1370 51       		.byte	0x51
 5973 1371 03       		.uleb128 0x3
 5974 1372 0A       		.byte	0xa
 5975 1373 204E     		.2byte	0x4e20
 5976 1375 00       		.byte	0
 5977 1376 0A       		.uleb128 0xa
 5978 1377 00010000 		.4byte	.LVL336
 5979 137b 26080000 		.4byte	0x826
 5980 137f 91130000 		.4byte	0x1391
 5981 1383 0B       		.uleb128 0xb
 5982 1384 01       		.uleb128 0x1
 5983 1385 50       		.byte	0x50
 5984 1386 02       		.uleb128 0x2
 5985 1387 08       		.byte	0x8
 5986 1388 4C       		.byte	0x4c
 5987 1389 0B       		.uleb128 0xb
 5988 138a 01       		.uleb128 0x1
 5989 138b 51       		.byte	0x51
 5990 138c 03       		.uleb128 0x3
 5991 138d 0A       		.byte	0xa
 5992 138e C233     		.2byte	0x33c2
 5993 1390 00       		.byte	0
 5994 1391 0A       		.uleb128 0xa
 5995 1392 28010000 		.4byte	.LVL337
 5996 1396 26080000 		.4byte	0x826
 5997 139a AC130000 		.4byte	0x13ac
 5998 139e 0B       		.uleb128 0xb
 5999 139f 01       		.uleb128 0x1
 6000 13a0 50       		.byte	0x50
 6001 13a1 02       		.uleb128 0x2
 6002 13a2 08       		.byte	0x8
 6003 13a3 52       		.byte	0x52
 6004 13a4 0B       		.uleb128 0xb
 6005 13a5 01       		.uleb128 0x1
 6006 13a6 51       		.byte	0x51
 6007 13a7 03       		.uleb128 0x3
 6008 13a8 0A       		.byte	0xa
 6009 13a9 7A3F     		.2byte	0x3f7a
 6010 13ab 00       		.byte	0
 6011 13ac 0A       		.uleb128 0xa
 6012 13ad 32010000 		.4byte	.LVL338
 6013 13b1 5B070000 		.4byte	0x75b
 6014 13b5 C7130000 		.4byte	0x13c7
 6015 13b9 0B       		.uleb128 0xb
 6016 13ba 01       		.uleb128 0x1
 6017 13bb 50       		.byte	0x50
 6018 13bc 02       		.uleb128 0x2
 6019 13bd 08       		.byte	0x8
 6020 13be 46       		.byte	0x46
 6021 13bf 0B       		.uleb128 0xb
 6022 13c0 01       		.uleb128 0x1
ARM GAS  C:\Users\pasan savindu\AppData\Local\Temp\ccY2T3Z5.s 			page 126


 6023 13c1 51       		.byte	0x51
 6024 13c2 03       		.uleb128 0x3
 6025 13c3 0A       		.byte	0xa
 6026 13c4 204E     		.2byte	0x4e20
 6027 13c6 00       		.byte	0
 6028 13c7 0A       		.uleb128 0xa
 6029 13c8 3C010000 		.4byte	.LVL339
 6030 13cc 26080000 		.4byte	0x826
 6031 13d0 E2130000 		.4byte	0x13e2
 6032 13d4 0B       		.uleb128 0xb
 6033 13d5 01       		.uleb128 0x1
 6034 13d6 50       		.byte	0x50
 6035 13d7 02       		.uleb128 0x2
 6036 13d8 08       		.byte	0x8
 6037 13d9 4C       		.byte	0x4c
 6038 13da 0B       		.uleb128 0xb
 6039 13db 01       		.uleb128 0x1
 6040 13dc 51       		.byte	0x51
 6041 13dd 03       		.uleb128 0x3
 6042 13de 0A       		.byte	0xa
 6043 13df C233     		.2byte	0x33c2
 6044 13e1 00       		.byte	0
 6045 13e2 0A       		.uleb128 0xa
 6046 13e3 58010000 		.4byte	.LVL340
 6047 13e7 26080000 		.4byte	0x826
 6048 13eb FD130000 		.4byte	0x13fd
 6049 13ef 0B       		.uleb128 0xb
 6050 13f0 01       		.uleb128 0x1
 6051 13f1 50       		.byte	0x50
 6052 13f2 02       		.uleb128 0x2
 6053 13f3 08       		.byte	0x8
 6054 13f4 4C       		.byte	0x4c
 6055 13f5 0B       		.uleb128 0xb
 6056 13f6 01       		.uleb128 0x1
 6057 13f7 51       		.byte	0x51
 6058 13f8 03       		.uleb128 0x3
 6059 13f9 0A       		.byte	0xa
 6060 13fa C233     		.2byte	0x33c2
 6061 13fc 00       		.byte	0
 6062 13fd 0A       		.uleb128 0xa
 6063 13fe 62010000 		.4byte	.LVL341
 6064 1402 5B070000 		.4byte	0x75b
 6065 1406 18140000 		.4byte	0x1418
 6066 140a 0B       		.uleb128 0xb
 6067 140b 01       		.uleb128 0x1
 6068 140c 50       		.byte	0x50
 6069 140d 02       		.uleb128 0x2
 6070 140e 08       		.byte	0x8
 6071 140f 46       		.byte	0x46
 6072 1410 0B       		.uleb128 0xb
 6073 1411 01       		.uleb128 0x1
 6074 1412 51       		.byte	0x51
 6075 1413 03       		.uleb128 0x3
 6076 1414 0A       		.byte	0xa
 6077 1415 204E     		.2byte	0x4e20
 6078 1417 00       		.byte	0
 6079 1418 0A       		.uleb128 0xa
ARM GAS  C:\Users\pasan savindu\AppData\Local\Temp\ccY2T3Z5.s 			page 127


 6080 1419 6C010000 		.4byte	.LVL342
 6081 141d 26080000 		.4byte	0x826
 6082 1421 33140000 		.4byte	0x1433
 6083 1425 0B       		.uleb128 0xb
 6084 1426 01       		.uleb128 0x1
 6085 1427 50       		.byte	0x50
 6086 1428 02       		.uleb128 0x2
 6087 1429 08       		.byte	0x8
 6088 142a 52       		.byte	0x52
 6089 142b 0B       		.uleb128 0xb
 6090 142c 01       		.uleb128 0x1
 6091 142d 51       		.byte	0x51
 6092 142e 03       		.uleb128 0x3
 6093 142f 0A       		.byte	0xa
 6094 1430 7A3F     		.2byte	0x3f7a
 6095 1432 00       		.byte	0
 6096 1433 0A       		.uleb128 0xa
 6097 1434 90010000 		.4byte	.LVL348
 6098 1438 80020000 		.4byte	0x280
 6099 143c 47140000 		.4byte	0x1447
 6100 1440 0B       		.uleb128 0xb
 6101 1441 01       		.uleb128 0x1
 6102 1442 50       		.byte	0x50
 6103 1443 02       		.uleb128 0x2
 6104 1444 08       		.byte	0x8
 6105 1445 53       		.byte	0x53
 6106 1446 00       		.byte	0
 6107 1447 0A       		.uleb128 0xa
 6108 1448 9A010000 		.4byte	.LVL349
 6109 144c 5B070000 		.4byte	0x75b
 6110 1450 5B140000 		.4byte	0x145b
 6111 1454 0B       		.uleb128 0xb
 6112 1455 01       		.uleb128 0x1
 6113 1456 50       		.byte	0x50
 6114 1457 02       		.uleb128 0x2
 6115 1458 08       		.byte	0x8
 6116 1459 42       		.byte	0x42
 6117 145a 00       		.byte	0
 6118 145b 0A       		.uleb128 0xa
 6119 145c C2010000 		.4byte	.LVL350
 6120 1460 26080000 		.4byte	0x826
 6121 1464 76140000 		.4byte	0x1476
 6122 1468 0B       		.uleb128 0xb
 6123 1469 01       		.uleb128 0x1
 6124 146a 50       		.byte	0x50
 6125 146b 02       		.uleb128 0x2
 6126 146c 08       		.byte	0x8
 6127 146d 4C       		.byte	0x4c
 6128 146e 0B       		.uleb128 0xb
 6129 146f 01       		.uleb128 0x1
 6130 1470 51       		.byte	0x51
 6131 1471 03       		.uleb128 0x3
 6132 1472 0A       		.byte	0xa
 6133 1473 C233     		.2byte	0x33c2
 6134 1475 00       		.byte	0
 6135 1476 0A       		.uleb128 0xa
 6136 1477 CC010000 		.4byte	.LVL351
ARM GAS  C:\Users\pasan savindu\AppData\Local\Temp\ccY2T3Z5.s 			page 128


 6137 147b 5B070000 		.4byte	0x75b
 6138 147f 91140000 		.4byte	0x1491
 6139 1483 0B       		.uleb128 0xb
 6140 1484 01       		.uleb128 0x1
 6141 1485 50       		.byte	0x50
 6142 1486 02       		.uleb128 0x2
 6143 1487 08       		.byte	0x8
 6144 1488 46       		.byte	0x46
 6145 1489 0B       		.uleb128 0xb
 6146 148a 01       		.uleb128 0x1
 6147 148b 51       		.byte	0x51
 6148 148c 03       		.uleb128 0x3
 6149 148d 0A       		.byte	0xa
 6150 148e 1027     		.2byte	0x2710
 6151 1490 00       		.byte	0
 6152 1491 0A       		.uleb128 0xa
 6153 1492 D6010000 		.4byte	.LVL352
 6154 1496 26080000 		.4byte	0x826
 6155 149a AC140000 		.4byte	0x14ac
 6156 149e 0B       		.uleb128 0xb
 6157 149f 01       		.uleb128 0x1
 6158 14a0 50       		.byte	0x50
 6159 14a1 02       		.uleb128 0x2
 6160 14a2 08       		.byte	0x8
 6161 14a3 52       		.byte	0x52
 6162 14a4 0B       		.uleb128 0xb
 6163 14a5 01       		.uleb128 0x1
 6164 14a6 51       		.byte	0x51
 6165 14a7 03       		.uleb128 0x3
 6166 14a8 0A       		.byte	0xa
 6167 14a9 7A3F     		.2byte	0x3f7a
 6168 14ab 00       		.byte	0
 6169 14ac 0A       		.uleb128 0xa
 6170 14ad F2010000 		.4byte	.LVL353
 6171 14b1 26080000 		.4byte	0x826
 6172 14b5 C7140000 		.4byte	0x14c7
 6173 14b9 0B       		.uleb128 0xb
 6174 14ba 01       		.uleb128 0x1
 6175 14bb 50       		.byte	0x50
 6176 14bc 02       		.uleb128 0x2
 6177 14bd 08       		.byte	0x8
 6178 14be 52       		.byte	0x52
 6179 14bf 0B       		.uleb128 0xb
 6180 14c0 01       		.uleb128 0x1
 6181 14c1 51       		.byte	0x51
 6182 14c2 03       		.uleb128 0x3
 6183 14c3 0A       		.byte	0xa
 6184 14c4 7A3F     		.2byte	0x3f7a
 6185 14c6 00       		.byte	0
 6186 14c7 0A       		.uleb128 0xa
 6187 14c8 FC010000 		.4byte	.LVL354
 6188 14cc 5B070000 		.4byte	0x75b
 6189 14d0 E2140000 		.4byte	0x14e2
 6190 14d4 0B       		.uleb128 0xb
 6191 14d5 01       		.uleb128 0x1
 6192 14d6 50       		.byte	0x50
 6193 14d7 02       		.uleb128 0x2
ARM GAS  C:\Users\pasan savindu\AppData\Local\Temp\ccY2T3Z5.s 			page 129


 6194 14d8 08       		.byte	0x8
 6195 14d9 46       		.byte	0x46
 6196 14da 0B       		.uleb128 0xb
 6197 14db 01       		.uleb128 0x1
 6198 14dc 51       		.byte	0x51
 6199 14dd 03       		.uleb128 0x3
 6200 14de 0A       		.byte	0xa
 6201 14df 1027     		.2byte	0x2710
 6202 14e1 00       		.byte	0
 6203 14e2 0A       		.uleb128 0xa
 6204 14e3 06020000 		.4byte	.LVL355
 6205 14e7 26080000 		.4byte	0x826
 6206 14eb FD140000 		.4byte	0x14fd
 6207 14ef 0B       		.uleb128 0xb
 6208 14f0 01       		.uleb128 0x1
 6209 14f1 50       		.byte	0x50
 6210 14f2 02       		.uleb128 0x2
 6211 14f3 08       		.byte	0x8
 6212 14f4 4C       		.byte	0x4c
 6213 14f5 0B       		.uleb128 0xb
 6214 14f6 01       		.uleb128 0x1
 6215 14f7 51       		.byte	0x51
 6216 14f8 03       		.uleb128 0x3
 6217 14f9 0A       		.byte	0xa
 6218 14fa C233     		.2byte	0x33c2
 6219 14fc 00       		.byte	0
 6220 14fd 0A       		.uleb128 0xa
 6221 14fe 2E020000 		.4byte	.LVL356
 6222 1502 26080000 		.4byte	0x826
 6223 1506 18150000 		.4byte	0x1518
 6224 150a 0B       		.uleb128 0xb
 6225 150b 01       		.uleb128 0x1
 6226 150c 50       		.byte	0x50
 6227 150d 02       		.uleb128 0x2
 6228 150e 08       		.byte	0x8
 6229 150f 52       		.byte	0x52
 6230 1510 0B       		.uleb128 0xb
 6231 1511 01       		.uleb128 0x1
 6232 1512 51       		.byte	0x51
 6233 1513 03       		.uleb128 0x3
 6234 1514 0A       		.byte	0xa
 6235 1515 7A3F     		.2byte	0x3f7a
 6236 1517 00       		.byte	0
 6237 1518 0A       		.uleb128 0xa
 6238 1519 38020000 		.4byte	.LVL357
 6239 151d 5B070000 		.4byte	0x75b
 6240 1521 33150000 		.4byte	0x1533
 6241 1525 0B       		.uleb128 0xb
 6242 1526 01       		.uleb128 0x1
 6243 1527 50       		.byte	0x50
 6244 1528 02       		.uleb128 0x2
 6245 1529 08       		.byte	0x8
 6246 152a 46       		.byte	0x46
 6247 152b 0B       		.uleb128 0xb
 6248 152c 01       		.uleb128 0x1
 6249 152d 51       		.byte	0x51
 6250 152e 03       		.uleb128 0x3
ARM GAS  C:\Users\pasan savindu\AppData\Local\Temp\ccY2T3Z5.s 			page 130


 6251 152f 0A       		.byte	0xa
 6252 1530 1027     		.2byte	0x2710
 6253 1532 00       		.byte	0
 6254 1533 0A       		.uleb128 0xa
 6255 1534 42020000 		.4byte	.LVL358
 6256 1538 26080000 		.4byte	0x826
 6257 153c 4E150000 		.4byte	0x154e
 6258 1540 0B       		.uleb128 0xb
 6259 1541 01       		.uleb128 0x1
 6260 1542 50       		.byte	0x50
 6261 1543 02       		.uleb128 0x2
 6262 1544 08       		.byte	0x8
 6263 1545 4C       		.byte	0x4c
 6264 1546 0B       		.uleb128 0xb
 6265 1547 01       		.uleb128 0x1
 6266 1548 51       		.byte	0x51
 6267 1549 03       		.uleb128 0x3
 6268 154a 0A       		.byte	0xa
 6269 154b C233     		.2byte	0x33c2
 6270 154d 00       		.byte	0
 6271 154e 0A       		.uleb128 0xa
 6272 154f 5E020000 		.4byte	.LVL359
 6273 1553 26080000 		.4byte	0x826
 6274 1557 69150000 		.4byte	0x1569
 6275 155b 0B       		.uleb128 0xb
 6276 155c 01       		.uleb128 0x1
 6277 155d 50       		.byte	0x50
 6278 155e 02       		.uleb128 0x2
 6279 155f 08       		.byte	0x8
 6280 1560 4C       		.byte	0x4c
 6281 1561 0B       		.uleb128 0xb
 6282 1562 01       		.uleb128 0x1
 6283 1563 51       		.byte	0x51
 6284 1564 03       		.uleb128 0x3
 6285 1565 0A       		.byte	0xa
 6286 1566 C233     		.2byte	0x33c2
 6287 1568 00       		.byte	0
 6288 1569 0A       		.uleb128 0xa
 6289 156a 68020000 		.4byte	.LVL360
 6290 156e 5B070000 		.4byte	0x75b
 6291 1572 84150000 		.4byte	0x1584
 6292 1576 0B       		.uleb128 0xb
 6293 1577 01       		.uleb128 0x1
 6294 1578 50       		.byte	0x50
 6295 1579 02       		.uleb128 0x2
 6296 157a 08       		.byte	0x8
 6297 157b 46       		.byte	0x46
 6298 157c 0B       		.uleb128 0xb
 6299 157d 01       		.uleb128 0x1
 6300 157e 51       		.byte	0x51
 6301 157f 03       		.uleb128 0x3
 6302 1580 0A       		.byte	0xa
 6303 1581 1027     		.2byte	0x2710
 6304 1583 00       		.byte	0
 6305 1584 0A       		.uleb128 0xa
 6306 1585 72020000 		.4byte	.LVL361
 6307 1589 26080000 		.4byte	0x826
ARM GAS  C:\Users\pasan savindu\AppData\Local\Temp\ccY2T3Z5.s 			page 131


 6308 158d 9F150000 		.4byte	0x159f
 6309 1591 0B       		.uleb128 0xb
 6310 1592 01       		.uleb128 0x1
 6311 1593 50       		.byte	0x50
 6312 1594 02       		.uleb128 0x2
 6313 1595 08       		.byte	0x8
 6314 1596 52       		.byte	0x52
 6315 1597 0B       		.uleb128 0xb
 6316 1598 01       		.uleb128 0x1
 6317 1599 51       		.byte	0x51
 6318 159a 03       		.uleb128 0x3
 6319 159b 0A       		.byte	0xa
 6320 159c 7A3F     		.2byte	0x3f7a
 6321 159e 00       		.byte	0
 6322 159f 08       		.uleb128 0x8
 6323 15a0 76020000 		.4byte	.LVL362
 6324 15a4 4A1F0000 		.4byte	0x1f4a
 6325 15a8 0A       		.uleb128 0xa
 6326 15a9 7E020000 		.4byte	.LVL363
 6327 15ad 80020000 		.4byte	0x280
 6328 15b1 BC150000 		.4byte	0x15bc
 6329 15b5 0B       		.uleb128 0xb
 6330 15b6 01       		.uleb128 0x1
 6331 15b7 50       		.byte	0x50
 6332 15b8 02       		.uleb128 0x2
 6333 15b9 08       		.byte	0x8
 6334 15ba 53       		.byte	0x53
 6335 15bb 00       		.byte	0
 6336 15bc 0A       		.uleb128 0xa
 6337 15bd 88020000 		.4byte	.LVL364
 6338 15c1 5B070000 		.4byte	0x75b
 6339 15c5 D7150000 		.4byte	0x15d7
 6340 15c9 0B       		.uleb128 0xb
 6341 15ca 01       		.uleb128 0x1
 6342 15cb 50       		.byte	0x50
 6343 15cc 02       		.uleb128 0x2
 6344 15cd 08       		.byte	0x8
 6345 15ce 46       		.byte	0x46
 6346 15cf 0B       		.uleb128 0xb
 6347 15d0 01       		.uleb128 0x1
 6348 15d1 51       		.byte	0x51
 6349 15d2 03       		.uleb128 0x3
 6350 15d3 0A       		.byte	0xa
 6351 15d4 A00F     		.2byte	0xfa0
 6352 15d6 00       		.byte	0
 6353 15d7 0A       		.uleb128 0xa
 6354 15d8 9A020000 		.4byte	.LVL366
 6355 15dc 91210000 		.4byte	0x2191
 6356 15e0 EA150000 		.4byte	0x15ea
 6357 15e4 0B       		.uleb128 0xb
 6358 15e5 01       		.uleb128 0x1
 6359 15e6 50       		.byte	0x50
 6360 15e7 01       		.uleb128 0x1
 6361 15e8 31       		.byte	0x31
 6362 15e9 00       		.byte	0
 6363 15ea 0A       		.uleb128 0xa
 6364 15eb A0020000 		.4byte	.LVL367
ARM GAS  C:\Users\pasan savindu\AppData\Local\Temp\ccY2T3Z5.s 			page 132


 6365 15ef FA1F0000 		.4byte	0x1ffa
 6366 15f3 FD150000 		.4byte	0x15fd
 6367 15f7 0B       		.uleb128 0xb
 6368 15f8 01       		.uleb128 0x1
 6369 15f9 50       		.byte	0x50
 6370 15fa 01       		.uleb128 0x1
 6371 15fb 3A       		.byte	0x3a
 6372 15fc 00       		.byte	0
 6373 15fd 0A       		.uleb128 0xa
 6374 15fe A6020000 		.4byte	.LVL368
 6375 1602 91210000 		.4byte	0x2191
 6376 1606 10160000 		.4byte	0x1610
 6377 160a 0B       		.uleb128 0xb
 6378 160b 01       		.uleb128 0x1
 6379 160c 50       		.byte	0x50
 6380 160d 01       		.uleb128 0x1
 6381 160e 30       		.byte	0x30
 6382 160f 00       		.byte	0
 6383 1610 08       		.uleb128 0x8
 6384 1611 AA020000 		.4byte	.LVL369
 6385 1615 9C210000 		.4byte	0x219c
 6386 1619 0A       		.uleb128 0xa
 6387 161a B4020000 		.4byte	.LVL370
 6388 161e E41F0000 		.4byte	0x1fe4
 6389 1622 2C160000 		.4byte	0x162c
 6390 1626 0B       		.uleb128 0xb
 6391 1627 01       		.uleb128 0x1
 6392 1628 50       		.byte	0x50
 6393 1629 01       		.uleb128 0x1
 6394 162a 3A       		.byte	0x3a
 6395 162b 00       		.byte	0
 6396 162c 0A       		.uleb128 0xa
 6397 162d BC020000 		.4byte	.LVL371
 6398 1631 A7210000 		.4byte	0x21a7
 6399 1635 3F160000 		.4byte	0x163f
 6400 1639 0B       		.uleb128 0xb
 6401 163a 01       		.uleb128 0x1
 6402 163b 50       		.byte	0x50
 6403 163c 01       		.uleb128 0x1
 6404 163d 31       		.byte	0x31
 6405 163e 00       		.byte	0
 6406 163f 0A       		.uleb128 0xa
 6407 1640 C2020000 		.4byte	.LVL372
 6408 1644 FA1F0000 		.4byte	0x1ffa
 6409 1648 52160000 		.4byte	0x1652
 6410 164c 0B       		.uleb128 0xb
 6411 164d 01       		.uleb128 0x1
 6412 164e 50       		.byte	0x50
 6413 164f 01       		.uleb128 0x1
 6414 1650 3A       		.byte	0x3a
 6415 1651 00       		.byte	0
 6416 1652 0A       		.uleb128 0xa
 6417 1653 C8020000 		.4byte	.LVL373
 6418 1657 A7210000 		.4byte	0x21a7
 6419 165b 65160000 		.4byte	0x1665
 6420 165f 0B       		.uleb128 0xb
 6421 1660 01       		.uleb128 0x1
ARM GAS  C:\Users\pasan savindu\AppData\Local\Temp\ccY2T3Z5.s 			page 133


 6422 1661 50       		.byte	0x50
 6423 1662 01       		.uleb128 0x1
 6424 1663 30       		.byte	0x30
 6425 1664 00       		.byte	0
 6426 1665 08       		.uleb128 0x8
 6427 1666 CC020000 		.4byte	.LVL374
 6428 166a B2210000 		.4byte	0x21b2
 6429 166e 0A       		.uleb128 0xa
 6430 166f D6020000 		.4byte	.LVL375
 6431 1673 E41F0000 		.4byte	0x1fe4
 6432 1677 81160000 		.4byte	0x1681
 6433 167b 0B       		.uleb128 0xb
 6434 167c 01       		.uleb128 0x1
 6435 167d 50       		.byte	0x50
 6436 167e 01       		.uleb128 0x1
 6437 167f 3A       		.byte	0x3a
 6438 1680 00       		.byte	0
 6439 1681 0A       		.uleb128 0xa
 6440 1682 DE020000 		.4byte	.LVL376
 6441 1686 EF1F0000 		.4byte	0x1fef
 6442 168a 94160000 		.4byte	0x1694
 6443 168e 0B       		.uleb128 0xb
 6444 168f 01       		.uleb128 0x1
 6445 1690 50       		.byte	0x50
 6446 1691 01       		.uleb128 0x1
 6447 1692 31       		.byte	0x31
 6448 1693 00       		.byte	0
 6449 1694 0A       		.uleb128 0xa
 6450 1695 E4020000 		.4byte	.LVL377
 6451 1699 FA1F0000 		.4byte	0x1ffa
 6452 169d A7160000 		.4byte	0x16a7
 6453 16a1 0B       		.uleb128 0xb
 6454 16a2 01       		.uleb128 0x1
 6455 16a3 50       		.byte	0x50
 6456 16a4 01       		.uleb128 0x1
 6457 16a5 3A       		.byte	0x3a
 6458 16a6 00       		.byte	0
 6459 16a7 0A       		.uleb128 0xa
 6460 16a8 EA020000 		.4byte	.LVL378
 6461 16ac EF1F0000 		.4byte	0x1fef
 6462 16b0 BA160000 		.4byte	0x16ba
 6463 16b4 0B       		.uleb128 0xb
 6464 16b5 01       		.uleb128 0x1
 6465 16b6 50       		.byte	0x50
 6466 16b7 01       		.uleb128 0x1
 6467 16b8 30       		.byte	0x30
 6468 16b9 00       		.byte	0
 6469 16ba 08       		.uleb128 0x8
 6470 16bb EE020000 		.4byte	.LVL379
 6471 16bf 05200000 		.4byte	0x2005
 6472 16c3 0A       		.uleb128 0xa
 6473 16c4 F8020000 		.4byte	.LVL380
 6474 16c8 E41F0000 		.4byte	0x1fe4
 6475 16cc D6160000 		.4byte	0x16d6
 6476 16d0 0B       		.uleb128 0xb
 6477 16d1 01       		.uleb128 0x1
 6478 16d2 50       		.byte	0x50
ARM GAS  C:\Users\pasan savindu\AppData\Local\Temp\ccY2T3Z5.s 			page 134


 6479 16d3 01       		.uleb128 0x1
 6480 16d4 3A       		.byte	0x3a
 6481 16d5 00       		.byte	0
 6482 16d6 0A       		.uleb128 0xa
 6483 16d7 00030000 		.4byte	.LVL381
 6484 16db 10200000 		.4byte	0x2010
 6485 16df E9160000 		.4byte	0x16e9
 6486 16e3 0B       		.uleb128 0xb
 6487 16e4 01       		.uleb128 0x1
 6488 16e5 50       		.byte	0x50
 6489 16e6 01       		.uleb128 0x1
 6490 16e7 31       		.byte	0x31
 6491 16e8 00       		.byte	0
 6492 16e9 0A       		.uleb128 0xa
 6493 16ea 06030000 		.4byte	.LVL382
 6494 16ee FA1F0000 		.4byte	0x1ffa
 6495 16f2 FC160000 		.4byte	0x16fc
 6496 16f6 0B       		.uleb128 0xb
 6497 16f7 01       		.uleb128 0x1
 6498 16f8 50       		.byte	0x50
 6499 16f9 01       		.uleb128 0x1
 6500 16fa 3A       		.byte	0x3a
 6501 16fb 00       		.byte	0
 6502 16fc 0A       		.uleb128 0xa
 6503 16fd 0C030000 		.4byte	.LVL383
 6504 1701 10200000 		.4byte	0x2010
 6505 1705 0F170000 		.4byte	0x170f
 6506 1709 0B       		.uleb128 0xb
 6507 170a 01       		.uleb128 0x1
 6508 170b 50       		.byte	0x50
 6509 170c 01       		.uleb128 0x1
 6510 170d 30       		.byte	0x30
 6511 170e 00       		.byte	0
 6512 170f 08       		.uleb128 0x8
 6513 1710 10030000 		.4byte	.LVL384
 6514 1714 1B200000 		.4byte	0x201b
 6515 1718 0F       		.uleb128 0xf
 6516 1719 1A030000 		.4byte	.LVL385
 6517 171d E41F0000 		.4byte	0x1fe4
 6518 1721 0B       		.uleb128 0xb
 6519 1722 01       		.uleb128 0x1
 6520 1723 50       		.byte	0x50
 6521 1724 01       		.uleb128 0x1
 6522 1725 3A       		.byte	0x3a
 6523 1726 00       		.byte	0
 6524 1727 00       		.byte	0
 6525 1728 12       		.uleb128 0x12
 6526 1729 AD010000 		.4byte	.LASF58
 6527 172d 01       		.byte	0x1
 6528 172e 4B03     		.2byte	0x34b
 6529 1730 00000000 		.4byte	.LFB85
 6530 1734 30000000 		.4byte	.LFE85-.LFB85
 6531 1738 01       		.uleb128 0x1
 6532 1739 9C       		.byte	0x9c
 6533 173a 8F170000 		.4byte	0x178f
 6534 173e 0A       		.uleb128 0xa
 6535 173f 0A000000 		.4byte	.LVL387
ARM GAS  C:\Users\pasan savindu\AppData\Local\Temp\ccY2T3Z5.s 			page 135


 6536 1743 F7200000 		.4byte	0x20f7
 6537 1747 53170000 		.4byte	0x1753
 6538 174b 0B       		.uleb128 0xb
 6539 174c 01       		.uleb128 0x1
 6540 174d 50       		.byte	0x50
 6541 174e 03       		.uleb128 0x3
 6542 174f 0A       		.byte	0xa
 6543 1750 F401     		.2byte	0x1f4
 6544 1752 00       		.byte	0
 6545 1753 0A       		.uleb128 0xa
 6546 1754 12000000 		.4byte	.LVL388
 6547 1758 E41F0000 		.4byte	0x1fe4
 6548 175c 68170000 		.4byte	0x1768
 6549 1760 0B       		.uleb128 0xb
 6550 1761 01       		.uleb128 0x1
 6551 1762 50       		.byte	0x50
 6552 1763 03       		.uleb128 0x3
 6553 1764 0A       		.byte	0xa
 6554 1765 F401     		.2byte	0x1f4
 6555 1767 00       		.byte	0
 6556 1768 0A       		.uleb128 0xa
 6557 1769 1A000000 		.4byte	.LVL389
 6558 176d 02210000 		.4byte	0x2102
 6559 1771 7D170000 		.4byte	0x177d
 6560 1775 0B       		.uleb128 0xb
 6561 1776 01       		.uleb128 0x1
 6562 1777 50       		.byte	0x50
 6563 1778 03       		.uleb128 0x3
 6564 1779 0A       		.byte	0xa
 6565 177a 6009     		.2byte	0x960
 6566 177c 00       		.byte	0
 6567 177d 0F       		.uleb128 0xf
 6568 177e 22000000 		.4byte	.LVL390
 6569 1782 E41F0000 		.4byte	0x1fe4
 6570 1786 0B       		.uleb128 0xb
 6571 1787 01       		.uleb128 0x1
 6572 1788 50       		.byte	0x50
 6573 1789 03       		.uleb128 0x3
 6574 178a 0A       		.byte	0xa
 6575 178b F401     		.2byte	0x1f4
 6576 178d 00       		.byte	0
 6577 178e 00       		.byte	0
 6578 178f 0D       		.uleb128 0xd
 6579 1790 0F010000 		.4byte	.LASF59
 6580 1794 01       		.byte	0x1
 6581 1795 5A03     		.2byte	0x35a
 6582 1797 00000000 		.4byte	.LFB86
 6583 179b EC000000 		.4byte	.LFE86-.LFB86
 6584 179f 01       		.uleb128 0x1
 6585 17a0 9C       		.byte	0x9c
 6586 17a1 24190000 		.4byte	0x1924
 6587 17a5 10       		.uleb128 0x10
 6588 17a6 E4060000 		.4byte	.LASF55
 6589 17aa 01       		.byte	0x1
 6590 17ab 5A03     		.2byte	0x35a
 6591 17ad 73000000 		.4byte	0x73
 6592 17b1 E1040000 		.4byte	.LLST26
ARM GAS  C:\Users\pasan savindu\AppData\Local\Temp\ccY2T3Z5.s 			page 136


 6593 17b5 11       		.uleb128 0x11
 6594 17b6 59060000 		.4byte	.LASF43
 6595 17ba 01       		.byte	0x1
 6596 17bb 5C03     		.2byte	0x35c
 6597 17bd 73000000 		.4byte	0x73
 6598 17c1 23050000 		.4byte	.LLST27
 6599 17c5 0A       		.uleb128 0xa
 6600 17c6 24000000 		.4byte	.LVL394
 6601 17ca 26080000 		.4byte	0x826
 6602 17ce E0170000 		.4byte	0x17e0
 6603 17d2 0B       		.uleb128 0xb
 6604 17d3 01       		.uleb128 0x1
 6605 17d4 50       		.byte	0x50
 6606 17d5 02       		.uleb128 0x2
 6607 17d6 08       		.byte	0x8
 6608 17d7 52       		.byte	0x52
 6609 17d8 0B       		.uleb128 0xb
 6610 17d9 01       		.uleb128 0x1
 6611 17da 51       		.byte	0x51
 6612 17db 03       		.uleb128 0x3
 6613 17dc 0A       		.byte	0xa
 6614 17dd 7A3F     		.2byte	0x3f7a
 6615 17df 00       		.byte	0
 6616 17e0 0A       		.uleb128 0xa
 6617 17e1 34000000 		.4byte	.LVL397
 6618 17e5 26080000 		.4byte	0x826
 6619 17e9 FB170000 		.4byte	0x17fb
 6620 17ed 0B       		.uleb128 0xb
 6621 17ee 01       		.uleb128 0x1
 6622 17ef 50       		.byte	0x50
 6623 17f0 02       		.uleb128 0x2
 6624 17f1 08       		.byte	0x8
 6625 17f2 4C       		.byte	0x4c
 6626 17f3 0B       		.uleb128 0xb
 6627 17f4 01       		.uleb128 0x1
 6628 17f5 51       		.byte	0x51
 6629 17f6 03       		.uleb128 0x3
 6630 17f7 0A       		.byte	0xa
 6631 17f8 C233     		.2byte	0x33c2
 6632 17fa 00       		.byte	0
 6633 17fb 08       		.uleb128 0x8
 6634 17fc 40000000 		.4byte	.LVL398
 6635 1800 F1080000 		.4byte	0x8f1
 6636 1804 0A       		.uleb128 0xa
 6637 1805 4A000000 		.4byte	.LVL399
 6638 1809 5B070000 		.4byte	0x75b
 6639 180d 1F180000 		.4byte	0x181f
 6640 1811 0B       		.uleb128 0xb
 6641 1812 01       		.uleb128 0x1
 6642 1813 50       		.byte	0x50
 6643 1814 02       		.uleb128 0x2
 6644 1815 08       		.byte	0x8
 6645 1816 46       		.byte	0x46
 6646 1817 0B       		.uleb128 0xb
 6647 1818 01       		.uleb128 0x1
 6648 1819 51       		.byte	0x51
 6649 181a 03       		.uleb128 0x3
ARM GAS  C:\Users\pasan savindu\AppData\Local\Temp\ccY2T3Z5.s 			page 137


 6650 181b 0A       		.byte	0xa
 6651 181c 204E     		.2byte	0x4e20
 6652 181e 00       		.byte	0
 6653 181f 0A       		.uleb128 0xa
 6654 1820 58000000 		.4byte	.LVL400
 6655 1824 26080000 		.4byte	0x826
 6656 1828 3A180000 		.4byte	0x183a
 6657 182c 0B       		.uleb128 0xb
 6658 182d 01       		.uleb128 0x1
 6659 182e 50       		.byte	0x50
 6660 182f 02       		.uleb128 0x2
 6661 1830 08       		.byte	0x8
 6662 1831 52       		.byte	0x52
 6663 1832 0B       		.uleb128 0xb
 6664 1833 01       		.uleb128 0x1
 6665 1834 51       		.byte	0x51
 6666 1835 03       		.uleb128 0x3
 6667 1836 0A       		.byte	0xa
 6668 1837 7A3F     		.2byte	0x3f7a
 6669 1839 00       		.byte	0
 6670 183a 0A       		.uleb128 0xa
 6671 183b 66000000 		.4byte	.LVL401
 6672 183f 26080000 		.4byte	0x826
 6673 1843 55180000 		.4byte	0x1855
 6674 1847 0B       		.uleb128 0xb
 6675 1848 01       		.uleb128 0x1
 6676 1849 50       		.byte	0x50
 6677 184a 02       		.uleb128 0x2
 6678 184b 08       		.byte	0x8
 6679 184c 4C       		.byte	0x4c
 6680 184d 0B       		.uleb128 0xb
 6681 184e 01       		.uleb128 0x1
 6682 184f 51       		.byte	0x51
 6683 1850 03       		.uleb128 0x3
 6684 1851 0A       		.byte	0xa
 6685 1852 C233     		.2byte	0x33c2
 6686 1854 00       		.byte	0
 6687 1855 0A       		.uleb128 0xa
 6688 1856 80000000 		.4byte	.LVL404
 6689 185a 80020000 		.4byte	0x280
 6690 185e 69180000 		.4byte	0x1869
 6691 1862 0B       		.uleb128 0xb
 6692 1863 01       		.uleb128 0x1
 6693 1864 50       		.byte	0x50
 6694 1865 02       		.uleb128 0x2
 6695 1866 08       		.byte	0x8
 6696 1867 46       		.byte	0x46
 6697 1868 00       		.byte	0
 6698 1869 0A       		.uleb128 0xa
 6699 186a 8E000000 		.4byte	.LVL405
 6700 186e 80020000 		.4byte	0x280
 6701 1872 7D180000 		.4byte	0x187d
 6702 1876 0B       		.uleb128 0xb
 6703 1877 01       		.uleb128 0x1
 6704 1878 50       		.byte	0x50
 6705 1879 02       		.uleb128 0x2
 6706 187a 08       		.byte	0x8
ARM GAS  C:\Users\pasan savindu\AppData\Local\Temp\ccY2T3Z5.s 			page 138


 6707 187b 53       		.byte	0x53
 6708 187c 00       		.byte	0
 6709 187d 0A       		.uleb128 0xa
 6710 187e 98000000 		.4byte	.LVL407
 6711 1882 91210000 		.4byte	0x2191
 6712 1886 90180000 		.4byte	0x1890
 6713 188a 0B       		.uleb128 0xb
 6714 188b 01       		.uleb128 0x1
 6715 188c 50       		.byte	0x50
 6716 188d 01       		.uleb128 0x1
 6717 188e 31       		.byte	0x31
 6718 188f 00       		.byte	0
 6719 1890 0A       		.uleb128 0xa
 6720 1891 9E000000 		.4byte	.LVL408
 6721 1895 FA1F0000 		.4byte	0x1ffa
 6722 1899 A3180000 		.4byte	0x18a3
 6723 189d 0B       		.uleb128 0xb
 6724 189e 01       		.uleb128 0x1
 6725 189f 50       		.byte	0x50
 6726 18a0 01       		.uleb128 0x1
 6727 18a1 3A       		.byte	0x3a
 6728 18a2 00       		.byte	0
 6729 18a3 0A       		.uleb128 0xa
 6730 18a4 A4000000 		.4byte	.LVL409
 6731 18a8 91210000 		.4byte	0x2191
 6732 18ac B6180000 		.4byte	0x18b6
 6733 18b0 0B       		.uleb128 0xb
 6734 18b1 01       		.uleb128 0x1
 6735 18b2 50       		.byte	0x50
 6736 18b3 01       		.uleb128 0x1
 6737 18b4 30       		.byte	0x30
 6738 18b5 00       		.byte	0
 6739 18b6 08       		.uleb128 0x8
 6740 18b7 A8000000 		.4byte	.LVL410
 6741 18bb 9C210000 		.4byte	0x219c
 6742 18bf 0A       		.uleb128 0xa
 6743 18c0 B2000000 		.4byte	.LVL411
 6744 18c4 E41F0000 		.4byte	0x1fe4
 6745 18c8 D2180000 		.4byte	0x18d2
 6746 18cc 0B       		.uleb128 0xb
 6747 18cd 01       		.uleb128 0x1
 6748 18ce 50       		.byte	0x50
 6749 18cf 01       		.uleb128 0x1
 6750 18d0 3A       		.byte	0x3a
 6751 18d1 00       		.byte	0
 6752 18d2 0A       		.uleb128 0xa
 6753 18d3 BA000000 		.4byte	.LVL412
 6754 18d7 A7210000 		.4byte	0x21a7
 6755 18db E5180000 		.4byte	0x18e5
 6756 18df 0B       		.uleb128 0xb
 6757 18e0 01       		.uleb128 0x1
 6758 18e1 50       		.byte	0x50
 6759 18e2 01       		.uleb128 0x1
 6760 18e3 31       		.byte	0x31
 6761 18e4 00       		.byte	0
 6762 18e5 0A       		.uleb128 0xa
 6763 18e6 C0000000 		.4byte	.LVL413
ARM GAS  C:\Users\pasan savindu\AppData\Local\Temp\ccY2T3Z5.s 			page 139


 6764 18ea FA1F0000 		.4byte	0x1ffa
 6765 18ee F8180000 		.4byte	0x18f8
 6766 18f2 0B       		.uleb128 0xb
 6767 18f3 01       		.uleb128 0x1
 6768 18f4 50       		.byte	0x50
 6769 18f5 01       		.uleb128 0x1
 6770 18f6 3A       		.byte	0x3a
 6771 18f7 00       		.byte	0
 6772 18f8 0A       		.uleb128 0xa
 6773 18f9 C6000000 		.4byte	.LVL414
 6774 18fd A7210000 		.4byte	0x21a7
 6775 1901 0B190000 		.4byte	0x190b
 6776 1905 0B       		.uleb128 0xb
 6777 1906 01       		.uleb128 0x1
 6778 1907 50       		.byte	0x50
 6779 1908 01       		.uleb128 0x1
 6780 1909 30       		.byte	0x30
 6781 190a 00       		.byte	0
 6782 190b 08       		.uleb128 0x8
 6783 190c CA000000 		.4byte	.LVL415
 6784 1910 B2210000 		.4byte	0x21b2
 6785 1914 0F       		.uleb128 0xf
 6786 1915 D4000000 		.4byte	.LVL416
 6787 1919 E41F0000 		.4byte	0x1fe4
 6788 191d 0B       		.uleb128 0xb
 6789 191e 01       		.uleb128 0x1
 6790 191f 50       		.byte	0x50
 6791 1920 01       		.uleb128 0x1
 6792 1921 3A       		.byte	0x3a
 6793 1922 00       		.byte	0
 6794 1923 00       		.byte	0
 6795 1924 12       		.uleb128 0x12
 6796 1925 A3070000 		.4byte	.LASF60
 6797 1929 01       		.byte	0x1
 6798 192a 9503     		.2byte	0x395
 6799 192c 00000000 		.4byte	.LFB87
 6800 1930 B8000000 		.4byte	.LFE87-.LFB87
 6801 1934 01       		.uleb128 0x1
 6802 1935 9C       		.byte	0x9c
 6803 1936 DD1A0000 		.4byte	0x1add
 6804 193a 11       		.uleb128 0x11
 6805 193b 6F060000 		.4byte	.LASF61
 6806 193f 01       		.byte	0x1
 6807 1940 9603     		.2byte	0x396
 6808 1942 73000000 		.4byte	0x73
 6809 1946 59050000 		.4byte	.LLST28
 6810 194a 08       		.uleb128 0x8
 6811 194b 06000000 		.4byte	.LVL418
 6812 194f E70D0000 		.4byte	0xde7
 6813 1953 0A       		.uleb128 0xa
 6814 1954 10000000 		.4byte	.LVL421
 6815 1958 F7200000 		.4byte	0x20f7
 6816 195c 68190000 		.4byte	0x1968
 6817 1960 0B       		.uleb128 0xb
 6818 1961 01       		.uleb128 0x1
 6819 1962 50       		.byte	0x50
 6820 1963 03       		.uleb128 0x3
ARM GAS  C:\Users\pasan savindu\AppData\Local\Temp\ccY2T3Z5.s 			page 140


 6821 1964 0A       		.byte	0xa
 6822 1965 BC02     		.2byte	0x2bc
 6823 1967 00       		.byte	0
 6824 1968 0A       		.uleb128 0xa
 6825 1969 18000000 		.4byte	.LVL422
 6826 196d E41F0000 		.4byte	0x1fe4
 6827 1971 7D190000 		.4byte	0x197d
 6828 1975 0B       		.uleb128 0xb
 6829 1976 01       		.uleb128 0x1
 6830 1977 50       		.byte	0x50
 6831 1978 03       		.uleb128 0x3
 6832 1979 0A       		.byte	0xa
 6833 197a E803     		.2byte	0x3e8
 6834 197c 00       		.byte	0
 6835 197d 0A       		.uleb128 0xa
 6836 197e 20000000 		.4byte	.LVL423
 6837 1982 F7200000 		.4byte	0x20f7
 6838 1986 92190000 		.4byte	0x1992
 6839 198a 0B       		.uleb128 0xb
 6840 198b 01       		.uleb128 0x1
 6841 198c 50       		.byte	0x50
 6842 198d 03       		.uleb128 0x3
 6843 198e 0A       		.byte	0xa
 6844 198f F401     		.2byte	0x1f4
 6845 1991 00       		.byte	0
 6846 1992 0A       		.uleb128 0xa
 6847 1993 2A000000 		.4byte	.LVL424
 6848 1997 5B070000 		.4byte	0x75b
 6849 199b AD190000 		.4byte	0x19ad
 6850 199f 0B       		.uleb128 0xb
 6851 19a0 01       		.uleb128 0x1
 6852 19a1 50       		.byte	0x50
 6853 19a2 02       		.uleb128 0x2
 6854 19a3 08       		.byte	0x8
 6855 19a4 42       		.byte	0x42
 6856 19a5 0B       		.uleb128 0xb
 6857 19a6 01       		.uleb128 0x1
 6858 19a7 51       		.byte	0x51
 6859 19a8 03       		.uleb128 0x3
 6860 19a9 0A       		.byte	0xa
 6861 19aa A00F     		.2byte	0xfa0
 6862 19ac 00       		.byte	0
 6863 19ad 0A       		.uleb128 0xa
 6864 19ae 3C000000 		.4byte	.LVL425
 6865 19b2 BD210000 		.4byte	0x21bd
 6866 19b6 C0190000 		.4byte	0x19c0
 6867 19ba 0B       		.uleb128 0xb
 6868 19bb 01       		.uleb128 0x1
 6869 19bc 50       		.byte	0x50
 6870 19bd 01       		.uleb128 0x1
 6871 19be 31       		.byte	0x31
 6872 19bf 00       		.byte	0
 6873 19c0 0A       		.uleb128 0xa
 6874 19c1 44000000 		.4byte	.LVL426
 6875 19c5 E41F0000 		.4byte	0x1fe4
 6876 19c9 D5190000 		.4byte	0x19d5
 6877 19cd 0B       		.uleb128 0xb
ARM GAS  C:\Users\pasan savindu\AppData\Local\Temp\ccY2T3Z5.s 			page 141


 6878 19ce 01       		.uleb128 0x1
 6879 19cf 50       		.byte	0x50
 6880 19d0 03       		.uleb128 0x3
 6881 19d1 0A       		.byte	0xa
 6882 19d2 E803     		.2byte	0x3e8
 6883 19d4 00       		.byte	0
 6884 19d5 0A       		.uleb128 0xa
 6885 19d6 4A000000 		.4byte	.LVL427
 6886 19da BD210000 		.4byte	0x21bd
 6887 19de E8190000 		.4byte	0x19e8
 6888 19e2 0B       		.uleb128 0xb
 6889 19e3 01       		.uleb128 0x1
 6890 19e4 50       		.byte	0x50
 6891 19e5 01       		.uleb128 0x1
 6892 19e6 30       		.byte	0x30
 6893 19e7 00       		.byte	0
 6894 19e8 0A       		.uleb128 0xa
 6895 19e9 52000000 		.4byte	.LVL428
 6896 19ed 0D210000 		.4byte	0x210d
 6897 19f1 FD190000 		.4byte	0x19fd
 6898 19f5 0B       		.uleb128 0xb
 6899 19f6 01       		.uleb128 0x1
 6900 19f7 50       		.byte	0x50
 6901 19f8 03       		.uleb128 0x3
 6902 19f9 0A       		.byte	0xa
 6903 19fa C409     		.2byte	0x9c4
 6904 19fc 00       		.byte	0
 6905 19fd 0A       		.uleb128 0xa
 6906 19fe 5A000000 		.4byte	.LVL429
 6907 1a02 E41F0000 		.4byte	0x1fe4
 6908 1a06 121A0000 		.4byte	0x1a12
 6909 1a0a 0B       		.uleb128 0xb
 6910 1a0b 01       		.uleb128 0x1
 6911 1a0c 50       		.byte	0x50
 6912 1a0d 03       		.uleb128 0x3
 6913 1a0e 0A       		.byte	0xa
 6914 1a0f F401     		.2byte	0x1f4
 6915 1a11 00       		.byte	0
 6916 1a12 0A       		.uleb128 0xa
 6917 1a13 62000000 		.4byte	.LVL430
 6918 1a17 0D210000 		.4byte	0x210d
 6919 1a1b 271A0000 		.4byte	0x1a27
 6920 1a1f 0B       		.uleb128 0xb
 6921 1a20 01       		.uleb128 0x1
 6922 1a21 50       		.byte	0x50
 6923 1a22 03       		.uleb128 0x3
 6924 1a23 0A       		.byte	0xa
 6925 1a24 8403     		.2byte	0x384
 6926 1a26 00       		.byte	0
 6927 1a27 0A       		.uleb128 0xa
 6928 1a28 6C000000 		.4byte	.LVL431
 6929 1a2c 0D210000 		.4byte	0x210d
 6930 1a30 3C1A0000 		.4byte	0x1a3c
 6931 1a34 0B       		.uleb128 0xb
 6932 1a35 01       		.uleb128 0x1
 6933 1a36 50       		.byte	0x50
 6934 1a37 03       		.uleb128 0x3
ARM GAS  C:\Users\pasan savindu\AppData\Local\Temp\ccY2T3Z5.s 			page 142


 6935 1a38 0A       		.byte	0xa
 6936 1a39 4006     		.2byte	0x640
 6937 1a3b 00       		.byte	0
 6938 1a3c 0A       		.uleb128 0xa
 6939 1a3d 74000000 		.4byte	.LVL432
 6940 1a41 E41F0000 		.4byte	0x1fe4
 6941 1a45 511A0000 		.4byte	0x1a51
 6942 1a49 0B       		.uleb128 0xb
 6943 1a4a 01       		.uleb128 0x1
 6944 1a4b 50       		.byte	0x50
 6945 1a4c 03       		.uleb128 0x3
 6946 1a4d 0A       		.byte	0xa
 6947 1a4e F401     		.2byte	0x1f4
 6948 1a50 00       		.byte	0
 6949 1a51 0A       		.uleb128 0xa
 6950 1a52 7C000000 		.4byte	.LVL433
 6951 1a56 0D210000 		.4byte	0x210d
 6952 1a5a 661A0000 		.4byte	0x1a66
 6953 1a5e 0B       		.uleb128 0xb
 6954 1a5f 01       		.uleb128 0x1
 6955 1a60 50       		.byte	0x50
 6956 1a61 03       		.uleb128 0x3
 6957 1a62 0A       		.byte	0xa
 6958 1a63 8403     		.2byte	0x384
 6959 1a65 00       		.byte	0
 6960 1a66 0A       		.uleb128 0xa
 6961 1a67 84000000 		.4byte	.LVL434
 6962 1a6b C8210000 		.4byte	0x21c8
 6963 1a6f 791A0000 		.4byte	0x1a79
 6964 1a73 0B       		.uleb128 0xb
 6965 1a74 01       		.uleb128 0x1
 6966 1a75 50       		.byte	0x50
 6967 1a76 01       		.uleb128 0x1
 6968 1a77 31       		.byte	0x31
 6969 1a78 00       		.byte	0
 6970 1a79 0A       		.uleb128 0xa
 6971 1a7a 8C000000 		.4byte	.LVL435
 6972 1a7e E41F0000 		.4byte	0x1fe4
 6973 1a82 8E1A0000 		.4byte	0x1a8e
 6974 1a86 0B       		.uleb128 0xb
 6975 1a87 01       		.uleb128 0x1
 6976 1a88 50       		.byte	0x50
 6977 1a89 03       		.uleb128 0x3
 6978 1a8a 0A       		.byte	0xa
 6979 1a8b E803     		.2byte	0x3e8
 6980 1a8d 00       		.byte	0
 6981 1a8e 0A       		.uleb128 0xa
 6982 1a8f 92000000 		.4byte	.LVL436
 6983 1a93 C8210000 		.4byte	0x21c8
 6984 1a97 A11A0000 		.4byte	0x1aa1
 6985 1a9b 0B       		.uleb128 0xb
 6986 1a9c 01       		.uleb128 0x1
 6987 1a9d 50       		.byte	0x50
 6988 1a9e 01       		.uleb128 0x1
 6989 1a9f 30       		.byte	0x30
 6990 1aa0 00       		.byte	0
 6991 1aa1 0A       		.uleb128 0xa
ARM GAS  C:\Users\pasan savindu\AppData\Local\Temp\ccY2T3Z5.s 			page 143


 6992 1aa2 9A000000 		.4byte	.LVL437
 6993 1aa6 0D210000 		.4byte	0x210d
 6994 1aaa B61A0000 		.4byte	0x1ab6
 6995 1aae 0B       		.uleb128 0xb
 6996 1aaf 01       		.uleb128 0x1
 6997 1ab0 50       		.byte	0x50
 6998 1ab1 03       		.uleb128 0x3
 6999 1ab2 0A       		.byte	0xa
 7000 1ab3 0807     		.2byte	0x708
 7001 1ab5 00       		.byte	0
 7002 1ab6 0A       		.uleb128 0xa
 7003 1ab7 A2000000 		.4byte	.LVL438
 7004 1abb E41F0000 		.4byte	0x1fe4
 7005 1abf CB1A0000 		.4byte	0x1acb
 7006 1ac3 0B       		.uleb128 0xb
 7007 1ac4 01       		.uleb128 0x1
 7008 1ac5 50       		.byte	0x50
 7009 1ac6 03       		.uleb128 0x3
 7010 1ac7 0A       		.byte	0xa
 7011 1ac8 F401     		.2byte	0x1f4
 7012 1aca 00       		.byte	0
 7013 1acb 0F       		.uleb128 0xf
 7014 1acc AA000000 		.4byte	.LVL439
 7015 1ad0 0D210000 		.4byte	0x210d
 7016 1ad4 0B       		.uleb128 0xb
 7017 1ad5 01       		.uleb128 0x1
 7018 1ad6 50       		.byte	0x50
 7019 1ad7 03       		.uleb128 0x3
 7020 1ad8 0A       		.byte	0xa
 7021 1ad9 8403     		.2byte	0x384
 7022 1adb 00       		.byte	0
 7023 1adc 00       		.byte	0
 7024 1add 0D       		.uleb128 0xd
 7025 1ade A3010000 		.4byte	.LASF62
 7026 1ae2 01       		.byte	0x1
 7027 1ae3 BA03     		.2byte	0x3ba
 7028 1ae5 00000000 		.4byte	.LFB88
 7029 1ae9 EC000000 		.4byte	.LFE88-.LFB88
 7030 1aed 01       		.uleb128 0x1
 7031 1aee 9C       		.byte	0x9c
 7032 1aef B81C0000 		.4byte	0x1cb8
 7033 1af3 10       		.uleb128 0x10
 7034 1af4 E4060000 		.4byte	.LASF55
 7035 1af8 01       		.byte	0x1
 7036 1af9 BA03     		.2byte	0x3ba
 7037 1afb 73000000 		.4byte	0x73
 7038 1aff 77050000 		.4byte	.LLST29
 7039 1b03 10       		.uleb128 0x10
 7040 1b04 20030000 		.4byte	.LASF63
 7041 1b08 01       		.byte	0x1
 7042 1b09 BA03     		.2byte	0x3ba
 7043 1b0b 73000000 		.4byte	0x73
 7044 1b0f B9050000 		.4byte	.LLST30
 7045 1b13 1C       		.uleb128 0x1c
 7046 1b14 59060000 		.4byte	.LASF43
 7047 1b18 01       		.byte	0x1
 7048 1b19 BB03     		.2byte	0x3bb
ARM GAS  C:\Users\pasan savindu\AppData\Local\Temp\ccY2T3Z5.s 			page 144


 7049 1b1b 73000000 		.4byte	0x73
 7050 1b1f 00       		.byte	0
 7051 1b20 11       		.uleb128 0x11
 7052 1b21 85070000 		.4byte	.LASF64
 7053 1b25 01       		.byte	0x1
 7054 1b26 BC03     		.2byte	0x3bc
 7055 1b28 73000000 		.4byte	0x73
 7056 1b2c 06060000 		.4byte	.LLST31
 7057 1b30 0A       		.uleb128 0xa
 7058 1b31 24000000 		.4byte	.LVL445
 7059 1b35 26080000 		.4byte	0x826
 7060 1b39 4B1B0000 		.4byte	0x1b4b
 7061 1b3d 0B       		.uleb128 0xb
 7062 1b3e 01       		.uleb128 0x1
 7063 1b3f 50       		.byte	0x50
 7064 1b40 02       		.uleb128 0x2
 7065 1b41 08       		.byte	0x8
 7066 1b42 4C       		.byte	0x4c
 7067 1b43 0B       		.uleb128 0xb
 7068 1b44 01       		.uleb128 0x1
 7069 1b45 51       		.byte	0x51
 7070 1b46 03       		.uleb128 0x3
 7071 1b47 0A       		.byte	0xa
 7072 1b48 8467     		.2byte	0x6784
 7073 1b4a 00       		.byte	0
 7074 1b4b 0A       		.uleb128 0xa
 7075 1b4c 2E000000 		.4byte	.LVL446
 7076 1b50 5B070000 		.4byte	0x75b
 7077 1b54 661B0000 		.4byte	0x1b66
 7078 1b58 0B       		.uleb128 0xb
 7079 1b59 01       		.uleb128 0x1
 7080 1b5a 50       		.byte	0x50
 7081 1b5b 02       		.uleb128 0x2
 7082 1b5c 08       		.byte	0x8
 7083 1b5d 46       		.byte	0x46
 7084 1b5e 0B       		.uleb128 0xb
 7085 1b5f 01       		.uleb128 0x1
 7086 1b60 51       		.byte	0x51
 7087 1b61 03       		.uleb128 0x3
 7088 1b62 0A       		.byte	0xa
 7089 1b63 50C3     		.2byte	0xc350
 7090 1b65 00       		.byte	0
 7091 1b66 0A       		.uleb128 0xa
 7092 1b67 36000000 		.4byte	.LVL447
 7093 1b6b 5B070000 		.4byte	0x75b
 7094 1b6f 7F1B0000 		.4byte	0x1b7f
 7095 1b73 0B       		.uleb128 0xb
 7096 1b74 01       		.uleb128 0x1
 7097 1b75 50       		.byte	0x50
 7098 1b76 02       		.uleb128 0x2
 7099 1b77 08       		.byte	0x8
 7100 1b78 46       		.byte	0x46
 7101 1b79 0B       		.uleb128 0xb
 7102 1b7a 01       		.uleb128 0x1
 7103 1b7b 51       		.byte	0x51
 7104 1b7c 01       		.uleb128 0x1
 7105 1b7d 30       		.byte	0x30
ARM GAS  C:\Users\pasan savindu\AppData\Local\Temp\ccY2T3Z5.s 			page 145


 7106 1b7e 00       		.byte	0
 7107 1b7f 0A       		.uleb128 0xa
 7108 1b80 44000000 		.4byte	.LVL448
 7109 1b84 26080000 		.4byte	0x826
 7110 1b88 9A1B0000 		.4byte	0x1b9a
 7111 1b8c 0B       		.uleb128 0xb
 7112 1b8d 01       		.uleb128 0x1
 7113 1b8e 50       		.byte	0x50
 7114 1b8f 02       		.uleb128 0x2
 7115 1b90 08       		.byte	0x8
 7116 1b91 52       		.byte	0x52
 7117 1b92 0B       		.uleb128 0xb
 7118 1b93 01       		.uleb128 0x1
 7119 1b94 51       		.byte	0x51
 7120 1b95 03       		.uleb128 0x3
 7121 1b96 0A       		.byte	0xa
 7122 1b97 7A3F     		.2byte	0x3f7a
 7123 1b99 00       		.byte	0
 7124 1b9a 0A       		.uleb128 0xa
 7125 1b9b 54000000 		.4byte	.LVL449
 7126 1b9f 26080000 		.4byte	0x826
 7127 1ba3 B51B0000 		.4byte	0x1bb5
 7128 1ba7 0B       		.uleb128 0xb
 7129 1ba8 01       		.uleb128 0x1
 7130 1ba9 50       		.byte	0x50
 7131 1baa 02       		.uleb128 0x2
 7132 1bab 08       		.byte	0x8
 7133 1bac 4C       		.byte	0x4c
 7134 1bad 0B       		.uleb128 0xb
 7135 1bae 01       		.uleb128 0x1
 7136 1baf 51       		.byte	0x51
 7137 1bb0 03       		.uleb128 0x3
 7138 1bb1 0A       		.byte	0xa
 7139 1bb2 C233     		.2byte	0x33c2
 7140 1bb4 00       		.byte	0
 7141 1bb5 08       		.uleb128 0x8
 7142 1bb6 58000000 		.4byte	.LVL450
 7143 1bba F1080000 		.4byte	0x8f1
 7144 1bbe 0A       		.uleb128 0xa
 7145 1bbf 62000000 		.4byte	.LVL451
 7146 1bc3 5B070000 		.4byte	0x75b
 7147 1bc7 D91B0000 		.4byte	0x1bd9
 7148 1bcb 0B       		.uleb128 0xb
 7149 1bcc 01       		.uleb128 0x1
 7150 1bcd 50       		.byte	0x50
 7151 1bce 02       		.uleb128 0x2
 7152 1bcf 08       		.byte	0x8
 7153 1bd0 46       		.byte	0x46
 7154 1bd1 0B       		.uleb128 0xb
 7155 1bd2 01       		.uleb128 0x1
 7156 1bd3 51       		.byte	0x51
 7157 1bd4 03       		.uleb128 0x3
 7158 1bd5 0A       		.byte	0xa
 7159 1bd6 B888     		.2byte	0x88b8
 7160 1bd8 00       		.byte	0
 7161 1bd9 0A       		.uleb128 0xa
 7162 1bda 7E000000 		.4byte	.LVL454
ARM GAS  C:\Users\pasan savindu\AppData\Local\Temp\ccY2T3Z5.s 			page 146


 7163 1bde 5B070000 		.4byte	0x75b
 7164 1be2 F41B0000 		.4byte	0x1bf4
 7165 1be6 0B       		.uleb128 0xb
 7166 1be7 01       		.uleb128 0x1
 7167 1be8 50       		.byte	0x50
 7168 1be9 02       		.uleb128 0x2
 7169 1bea 08       		.byte	0x8
 7170 1beb 42       		.byte	0x42
 7171 1bec 0B       		.uleb128 0xb
 7172 1bed 01       		.uleb128 0x1
 7173 1bee 51       		.byte	0x51
 7174 1bef 03       		.uleb128 0x3
 7175 1bf0 0A       		.byte	0xa
 7176 1bf1 8813     		.2byte	0x1388
 7177 1bf3 00       		.byte	0
 7178 1bf4 0A       		.uleb128 0xa
 7179 1bf5 8C000000 		.4byte	.LVL455
 7180 1bf9 26080000 		.4byte	0x826
 7181 1bfd 0F1C0000 		.4byte	0x1c0f
 7182 1c01 0B       		.uleb128 0xb
 7183 1c02 01       		.uleb128 0x1
 7184 1c03 50       		.byte	0x50
 7185 1c04 02       		.uleb128 0x2
 7186 1c05 08       		.byte	0x8
 7187 1c06 4C       		.byte	0x4c
 7188 1c07 0B       		.uleb128 0xb
 7189 1c08 01       		.uleb128 0x1
 7190 1c09 51       		.byte	0x51
 7191 1c0a 03       		.uleb128 0x3
 7192 1c0b 0A       		.byte	0xa
 7193 1c0c C233     		.2byte	0x33c2
 7194 1c0e 00       		.byte	0
 7195 1c0f 0A       		.uleb128 0xa
 7196 1c10 9C000000 		.4byte	.LVL456
 7197 1c14 26080000 		.4byte	0x826
 7198 1c18 2A1C0000 		.4byte	0x1c2a
 7199 1c1c 0B       		.uleb128 0xb
 7200 1c1d 01       		.uleb128 0x1
 7201 1c1e 50       		.byte	0x50
 7202 1c1f 02       		.uleb128 0x2
 7203 1c20 08       		.byte	0x8
 7204 1c21 52       		.byte	0x52
 7205 1c22 0B       		.uleb128 0xb
 7206 1c23 01       		.uleb128 0x1
 7207 1c24 51       		.byte	0x51
 7208 1c25 03       		.uleb128 0x3
 7209 1c26 0A       		.byte	0xa
 7210 1c27 7A3F     		.2byte	0x3f7a
 7211 1c29 00       		.byte	0
 7212 1c2a 08       		.uleb128 0x8
 7213 1c2b A0000000 		.4byte	.LVL457
 7214 1c2f F1080000 		.4byte	0x8f1
 7215 1c33 0A       		.uleb128 0xa
 7216 1c34 A8000000 		.4byte	.LVL458
 7217 1c38 5B070000 		.4byte	0x75b
 7218 1c3c 501C0000 		.4byte	0x1c50
 7219 1c40 0B       		.uleb128 0xb
ARM GAS  C:\Users\pasan savindu\AppData\Local\Temp\ccY2T3Z5.s 			page 147


 7220 1c41 01       		.uleb128 0x1
 7221 1c42 50       		.byte	0x50
 7222 1c43 02       		.uleb128 0x2
 7223 1c44 08       		.byte	0x8
 7224 1c45 46       		.byte	0x46
 7225 1c46 0B       		.uleb128 0xb
 7226 1c47 01       		.uleb128 0x1
 7227 1c48 51       		.byte	0x51
 7228 1c49 05       		.uleb128 0x5
 7229 1c4a 0C       		.byte	0xc
 7230 1c4b 084C0100 		.4byte	0x14c08
 7231 1c4f 00       		.byte	0
 7232 1c50 0A       		.uleb128 0xa
 7233 1c51 B0000000 		.4byte	.LVL459
 7234 1c55 5B070000 		.4byte	0x75b
 7235 1c59 6A1C0000 		.4byte	0x1c6a
 7236 1c5d 0B       		.uleb128 0xb
 7237 1c5e 01       		.uleb128 0x1
 7238 1c5f 50       		.byte	0x50
 7239 1c60 02       		.uleb128 0x2
 7240 1c61 08       		.byte	0x8
 7241 1c62 46       		.byte	0x46
 7242 1c63 0B       		.uleb128 0xb
 7243 1c64 01       		.uleb128 0x1
 7244 1c65 51       		.byte	0x51
 7245 1c66 02       		.uleb128 0x2
 7246 1c67 75       		.byte	0x75
 7247 1c68 00       		.sleb128 0
 7248 1c69 00       		.byte	0
 7249 1c6a 0A       		.uleb128 0xa
 7250 1c6b BE000000 		.4byte	.LVL460
 7251 1c6f 26080000 		.4byte	0x826
 7252 1c73 851C0000 		.4byte	0x1c85
 7253 1c77 0B       		.uleb128 0xb
 7254 1c78 01       		.uleb128 0x1
 7255 1c79 50       		.byte	0x50
 7256 1c7a 02       		.uleb128 0x2
 7257 1c7b 08       		.byte	0x8
 7258 1c7c 4C       		.byte	0x4c
 7259 1c7d 0B       		.uleb128 0xb
 7260 1c7e 01       		.uleb128 0x1
 7261 1c7f 51       		.byte	0x51
 7262 1c80 03       		.uleb128 0x3
 7263 1c81 0A       		.byte	0xa
 7264 1c82 C233     		.2byte	0x33c2
 7265 1c84 00       		.byte	0
 7266 1c85 0A       		.uleb128 0xa
 7267 1c86 CE000000 		.4byte	.LVL461
 7268 1c8a 26080000 		.4byte	0x826
 7269 1c8e A01C0000 		.4byte	0x1ca0
 7270 1c92 0B       		.uleb128 0xb
 7271 1c93 01       		.uleb128 0x1
 7272 1c94 50       		.byte	0x50
 7273 1c95 02       		.uleb128 0x2
 7274 1c96 08       		.byte	0x8
 7275 1c97 52       		.byte	0x52
 7276 1c98 0B       		.uleb128 0xb
ARM GAS  C:\Users\pasan savindu\AppData\Local\Temp\ccY2T3Z5.s 			page 148


 7277 1c99 01       		.uleb128 0x1
 7278 1c9a 51       		.byte	0x51
 7279 1c9b 03       		.uleb128 0x3
 7280 1c9c 0A       		.byte	0xa
 7281 1c9d 7A3F     		.2byte	0x3f7a
 7282 1c9f 00       		.byte	0
 7283 1ca0 0F       		.uleb128 0xf
 7284 1ca1 D8000000 		.4byte	.LVL462
 7285 1ca5 5B070000 		.4byte	0x75b
 7286 1ca9 0B       		.uleb128 0xb
 7287 1caa 01       		.uleb128 0x1
 7288 1cab 50       		.byte	0x50
 7289 1cac 02       		.uleb128 0x2
 7290 1cad 08       		.byte	0x8
 7291 1cae 46       		.byte	0x46
 7292 1caf 0B       		.uleb128 0xb
 7293 1cb0 01       		.uleb128 0x1
 7294 1cb1 51       		.byte	0x51
 7295 1cb2 03       		.uleb128 0x3
 7296 1cb3 0A       		.byte	0xa
 7297 1cb4 B888     		.2byte	0x88b8
 7298 1cb6 00       		.byte	0
 7299 1cb7 00       		.byte	0
 7300 1cb8 1D       		.uleb128 0x1d
 7301 1cb9 9D080000 		.4byte	.LASF163
 7302 1cbd 01       		.byte	0x1
 7303 1cbe A4       		.byte	0xa4
 7304 1cbf 73000000 		.4byte	0x73
 7305 1cc3 00000000 		.4byte	.LFB71
 7306 1cc7 7C000000 		.4byte	.LFE71-.LFB71
 7307 1ccb 01       		.uleb128 0x1
 7308 1ccc 9C       		.byte	0x9c
 7309 1ccd 4C1D0000 		.4byte	0x1d4c
 7310 1cd1 07       		.uleb128 0x7
 7311 1cd2 20030000 		.4byte	.LASF63
 7312 1cd6 01       		.byte	0x1
 7313 1cd7 AA       		.byte	0xaa
 7314 1cd8 73000000 		.4byte	0x73
 7315 1cdc 3F060000 		.4byte	.LLST32
 7316 1ce0 08       		.uleb128 0x8
 7317 1ce1 08000000 		.4byte	.LVL464
 7318 1ce5 A40B0000 		.4byte	0xba4
 7319 1ce9 08       		.uleb128 0x8
 7320 1cea 0C000000 		.4byte	.LVL465
 7321 1cee D3210000 		.4byte	0x21d3
 7322 1cf2 08       		.uleb128 0x8
 7323 1cf3 1C000000 		.4byte	.LVL466
 7324 1cf7 D3210000 		.4byte	0x21d3
 7325 1cfb 08       		.uleb128 0x8
 7326 1cfc 42000000 		.4byte	.LVL468
 7327 1d00 E1100000 		.4byte	0x10e1
 7328 1d04 08       		.uleb128 0x8
 7329 1d05 48000000 		.4byte	.LVL469
 7330 1d09 DC110000 		.4byte	0x11dc
 7331 1d0d 08       		.uleb128 0x8
 7332 1d0e 4E000000 		.4byte	.LVL470
 7333 1d12 28170000 		.4byte	0x1728
ARM GAS  C:\Users\pasan savindu\AppData\Local\Temp\ccY2T3Z5.s 			page 149


 7334 1d16 08       		.uleb128 0x8
 7335 1d17 58000000 		.4byte	.LVL471
 7336 1d1b 8F170000 		.4byte	0x178f
 7337 1d1f 08       		.uleb128 0x8
 7338 1d20 5E000000 		.4byte	.LVL472
 7339 1d24 24190000 		.4byte	0x1924
 7340 1d28 0A       		.uleb128 0xa
 7341 1d29 6A000000 		.4byte	.LVL473
 7342 1d2d DD1A0000 		.4byte	0x1add
 7343 1d31 3C1D0000 		.4byte	0x1d3c
 7344 1d35 0B       		.uleb128 0xb
 7345 1d36 01       		.uleb128 0x1
 7346 1d37 51       		.byte	0x51
 7347 1d38 02       		.uleb128 0x2
 7348 1d39 74       		.byte	0x74
 7349 1d3a 00       		.sleb128 0
 7350 1d3b 00       		.byte	0
 7351 1d3c 0F       		.uleb128 0xf
 7352 1d3d 72000000 		.4byte	.LVL475
 7353 1d41 E41F0000 		.4byte	0x1fe4
 7354 1d45 0B       		.uleb128 0xb
 7355 1d46 01       		.uleb128 0x1
 7356 1d47 50       		.byte	0x50
 7357 1d48 01       		.uleb128 0x1
 7358 1d49 3A       		.byte	0x3a
 7359 1d4a 00       		.byte	0
 7360 1d4b 00       		.byte	0
 7361 1d4c 1E       		.uleb128 0x1e
 7362 1d4d 15060000 		.4byte	.LASF65
 7363 1d51 06       		.byte	0x6
 7364 1d52 1207     		.2byte	0x712
 7365 1d54 581D0000 		.4byte	0x1d58
 7366 1d58 1F       		.uleb128 0x1f
 7367 1d59 8C000000 		.4byte	0x8c
 7368 1d5d 20       		.uleb128 0x20
 7369 1d5e 0F080000 		.4byte	.LASF66
 7370 1d62 01       		.byte	0x1
 7371 1d63 1A       		.byte	0x1a
 7372 1d64 97000000 		.4byte	0x97
 7373 1d68 05       		.uleb128 0x5
 7374 1d69 03       		.byte	0x3
 7375 1d6a 00000000 		.4byte	state
 7376 1d6e 20       		.uleb128 0x20
 7377 1d6f E4060000 		.4byte	.LASF55
 7378 1d73 01       		.byte	0x1
 7379 1d74 1B       		.byte	0x1b
 7380 1d75 73000000 		.4byte	0x73
 7381 1d79 05       		.uleb128 0x5
 7382 1d7a 03       		.byte	0x3
 7383 1d7b 00000000 		.4byte	Base
 7384 1d7f 20       		.uleb128 0x20
 7385 1d80 BB040000 		.4byte	.LASF67
 7386 1d84 01       		.byte	0x1
 7387 1d85 1C       		.byte	0x1c
 7388 1d86 73000000 		.4byte	0x73
 7389 1d8a 05       		.uleb128 0x5
 7390 1d8b 03       		.byte	0x3
ARM GAS  C:\Users\pasan savindu\AppData\Local\Temp\ccY2T3Z5.s 			page 150


 7391 1d8c 00000000 		.4byte	countL
 7392 1d90 20       		.uleb128 0x20
 7393 1d91 CA040000 		.4byte	.LASF68
 7394 1d95 01       		.byte	0x1
 7395 1d96 1C       		.byte	0x1c
 7396 1d97 73000000 		.4byte	0x73
 7397 1d9b 05       		.uleb128 0x5
 7398 1d9c 03       		.byte	0x3
 7399 1d9d 00000000 		.4byte	countR
 7400 1da1 20       		.uleb128 0x20
 7401 1da2 4C000000 		.4byte	.LASF69
 7402 1da6 01       		.byte	0x1
 7403 1da7 1D       		.byte	0x1d
 7404 1da8 97000000 		.4byte	0x97
 7405 1dac 05       		.uleb128 0x5
 7406 1dad 03       		.byte	0x3
 7407 1dae 00000000 		.4byte	speedL
 7408 1db2 20       		.uleb128 0x20
 7409 1db3 61000000 		.4byte	.LASF70
 7410 1db7 01       		.byte	0x1
 7411 1db8 1D       		.byte	0x1d
 7412 1db9 73000000 		.4byte	0x73
 7413 1dbd 05       		.uleb128 0x5
 7414 1dbe 03       		.byte	0x3
 7415 1dbf 00000000 		.4byte	speedR
 7416 1dc3 20       		.uleb128 0x20
 7417 1dc4 F7040000 		.4byte	.LASF71
 7418 1dc8 01       		.byte	0x1
 7419 1dc9 1E       		.byte	0x1e
 7420 1dca 97000000 		.4byte	0x97
 7421 1dce 05       		.uleb128 0x5
 7422 1dcf 03       		.byte	0x3
 7423 1dd0 00000000 		.4byte	obstacle1
 7424 1dd4 20       		.uleb128 0x20
 7425 1dd5 01050000 		.4byte	.LASF72
 7426 1dd9 01       		.byte	0x1
 7427 1dda 1E       		.byte	0x1e
 7428 1ddb 97000000 		.4byte	0x97
 7429 1ddf 05       		.uleb128 0x5
 7430 1de0 03       		.byte	0x3
 7431 1de1 00000000 		.4byte	obstacle2
 7432 1de5 20       		.uleb128 0x20
 7433 1de6 0B050000 		.4byte	.LASF73
 7434 1dea 01       		.byte	0x1
 7435 1deb 1F       		.byte	0x1f
 7436 1dec 97000000 		.4byte	0x97
 7437 1df0 05       		.uleb128 0x5
 7438 1df1 03       		.byte	0x3
 7439 1df2 00000000 		.4byte	obstacle3
 7440 1df6 20       		.uleb128 0x20
 7441 1df7 15050000 		.4byte	.LASF74
 7442 1dfb 01       		.byte	0x1
 7443 1dfc 1F       		.byte	0x1f
 7444 1dfd 97000000 		.4byte	0x97
 7445 1e01 05       		.uleb128 0x5
 7446 1e02 03       		.byte	0x3
 7447 1e03 00000000 		.4byte	obstacle4
ARM GAS  C:\Users\pasan savindu\AppData\Local\Temp\ccY2T3Z5.s 			page 151


 7448 1e07 20       		.uleb128 0x20
 7449 1e08 57050000 		.4byte	.LASF75
 7450 1e0c 01       		.byte	0x1
 7451 1e0d 20       		.byte	0x20
 7452 1e0e 73000000 		.4byte	0x73
 7453 1e12 05       		.uleb128 0x5
 7454 1e13 03       		.byte	0x3
 7455 1e14 00000000 		.4byte	S1_distance
 7456 1e18 20       		.uleb128 0x20
 7457 1e19 23080000 		.4byte	.LASF76
 7458 1e1d 01       		.byte	0x1
 7459 1e1e 20       		.byte	0x20
 7460 1e1f 73000000 		.4byte	0x73
 7461 1e23 05       		.uleb128 0x5
 7462 1e24 03       		.byte	0x3
 7463 1e25 00000000 		.4byte	S2_distance
 7464 1e29 20       		.uleb128 0x20
 7465 1e2a FE000000 		.4byte	.LASF77
 7466 1e2e 01       		.byte	0x1
 7467 1e2f 21       		.byte	0x21
 7468 1e30 73000000 		.4byte	0x73
 7469 1e34 05       		.uleb128 0x5
 7470 1e35 03       		.byte	0x3
 7471 1e36 00000000 		.4byte	S3_distance
 7472 1e3a 20       		.uleb128 0x20
 7473 1e3b 28030000 		.4byte	.LASF78
 7474 1e3f 01       		.byte	0x1
 7475 1e40 21       		.byte	0x21
 7476 1e41 73000000 		.4byte	0x73
 7477 1e45 05       		.uleb128 0x5
 7478 1e46 03       		.byte	0x3
 7479 1e47 00000000 		.4byte	S4_distance
 7480 1e4b 20       		.uleb128 0x20
 7481 1e4c 40010000 		.4byte	.LASF79
 7482 1e50 01       		.byte	0x1
 7483 1e51 22       		.byte	0x22
 7484 1e52 97000000 		.4byte	0x97
 7485 1e56 05       		.uleb128 0x5
 7486 1e57 03       		.byte	0x3
 7487 1e58 00000000 		.4byte	puckdetected
 7488 1e5c 20       		.uleb128 0x20
 7489 1e5d 3D060000 		.4byte	.LASF80
 7490 1e61 01       		.byte	0x1
 7491 1e62 23       		.byte	0x23
 7492 1e63 81000000 		.4byte	0x81
 7493 1e67 05       		.uleb128 0x5
 7494 1e68 03       		.byte	0x3
 7495 1e69 00000000 		.4byte	iFreq
 7496 1e6d 20       		.uleb128 0x20
 7497 1e6e 7B010000 		.4byte	.LASF81
 7498 1e72 01       		.byte	0x1
 7499 1e73 24       		.byte	0x24
 7500 1e74 73000000 		.4byte	0x73
 7501 1e78 05       		.uleb128 0x5
 7502 1e79 03       		.byte	0x3
 7503 1e7a 00000000 		.4byte	dataReady
 7504 1e7e 17       		.uleb128 0x17
ARM GAS  C:\Users\pasan savindu\AppData\Local\Temp\ccY2T3Z5.s 			page 152


 7505 1e7f BD000000 		.4byte	0xbd
 7506 1e83 8E1E0000 		.4byte	0x1e8e
 7507 1e87 18       		.uleb128 0x18
 7508 1e88 CB000000 		.4byte	0xcb
 7509 1e8c 13       		.byte	0x13
 7510 1e8d 00       		.byte	0
 7511 1e8e 20       		.uleb128 0x20
 7512 1e8f 68000000 		.4byte	.LASF82
 7513 1e93 01       		.byte	0x1
 7514 1e94 25       		.byte	0x25
 7515 1e95 7E1E0000 		.4byte	0x1e7e
 7516 1e99 05       		.uleb128 0x5
 7517 1e9a 03       		.byte	0x3
 7518 1e9b 00000000 		.4byte	string1
 7519 1e9f 20       		.uleb128 0x20
 7520 1ea0 7B090000 		.4byte	.LASF83
 7521 1ea4 01       		.byte	0x1
 7522 1ea5 26       		.byte	0x26
 7523 1ea6 73000000 		.4byte	0x73
 7524 1eaa 05       		.uleb128 0x5
 7525 1eab 03       		.byte	0x3
 7526 1eac 00000000 		.4byte	position
 7527 1eb0 21       		.uleb128 0x21
 7528 1eb1 E2000000 		.4byte	.LASF84
 7529 1eb5 E2000000 		.4byte	.LASF84
 7530 1eb9 07       		.byte	0x7
 7531 1eba 5E       		.byte	0x5e
 7532 1ebb 21       		.uleb128 0x21
 7533 1ebc 36020000 		.4byte	.LASF85
 7534 1ec0 36020000 		.4byte	.LASF85
 7535 1ec4 07       		.byte	0x7
 7536 1ec5 69       		.byte	0x69
 7537 1ec6 21       		.uleb128 0x21
 7538 1ec7 3B090000 		.4byte	.LASF86
 7539 1ecb 3B090000 		.4byte	.LASF86
 7540 1ecf 08       		.byte	0x8
 7541 1ed0 5E       		.byte	0x5e
 7542 1ed1 21       		.uleb128 0x21
 7543 1ed2 19010000 		.4byte	.LASF87
 7544 1ed6 19010000 		.4byte	.LASF87
 7545 1eda 08       		.byte	0x8
 7546 1edb 69       		.byte	0x69
 7547 1edc 21       		.uleb128 0x21
 7548 1edd 44070000 		.4byte	.LASF88
 7549 1ee1 44070000 		.4byte	.LASF88
 7550 1ee5 09       		.byte	0x9
 7551 1ee6 5E       		.byte	0x5e
 7552 1ee7 21       		.uleb128 0x21
 7553 1ee8 66090000 		.4byte	.LASF89
 7554 1eec 66090000 		.4byte	.LASF89
 7555 1ef0 09       		.byte	0x9
 7556 1ef1 69       		.byte	0x69
 7557 1ef2 21       		.uleb128 0x21
 7558 1ef3 B6060000 		.4byte	.LASF90
 7559 1ef7 B6060000 		.4byte	.LASF90
 7560 1efb 0A       		.byte	0xa
 7561 1efc 5E       		.byte	0x5e
ARM GAS  C:\Users\pasan savindu\AppData\Local\Temp\ccY2T3Z5.s 			page 153


 7562 1efd 21       		.uleb128 0x21
 7563 1efe DB030000 		.4byte	.LASF91
 7564 1f02 DB030000 		.4byte	.LASF91
 7565 1f06 0A       		.byte	0xa
 7566 1f07 69       		.byte	0x69
 7567 1f08 21       		.uleb128 0x21
 7568 1f09 8A080000 		.4byte	.LASF92
 7569 1f0d 8A080000 		.4byte	.LASF92
 7570 1f11 0B       		.byte	0xb
 7571 1f12 50       		.byte	0x50
 7572 1f13 21       		.uleb128 0x21
 7573 1f14 2F080000 		.4byte	.LASF93
 7574 1f18 2F080000 		.4byte	.LASF93
 7575 1f1c 0C       		.byte	0xc
 7576 1f1d 5B       		.byte	0x5b
 7577 1f1e 21       		.uleb128 0x21
 7578 1f1f 63010000 		.4byte	.LASF94
 7579 1f23 63010000 		.4byte	.LASF94
 7580 1f27 0D       		.byte	0xd
 7581 1f28 26       		.byte	0x26
 7582 1f29 21       		.uleb128 0x21
 7583 1f2a F6050000 		.4byte	.LASF95
 7584 1f2e F6050000 		.4byte	.LASF95
 7585 1f32 0C       		.byte	0xc
 7586 1f33 5E       		.byte	0x5e
 7587 1f34 21       		.uleb128 0x21
 7588 1f35 91050000 		.4byte	.LASF96
 7589 1f39 91050000 		.4byte	.LASF96
 7590 1f3d 0E       		.byte	0xe
 7591 1f3e 28       		.byte	0x28
 7592 1f3f 21       		.uleb128 0x21
 7593 1f40 73040000 		.4byte	.LASF97
 7594 1f44 73040000 		.4byte	.LASF97
 7595 1f48 0B       		.byte	0xb
 7596 1f49 5D       		.byte	0x5d
 7597 1f4a 21       		.uleb128 0x21
 7598 1f4b 30070000 		.4byte	.LASF98
 7599 1f4f 30070000 		.4byte	.LASF98
 7600 1f53 0F       		.byte	0xf
 7601 1f54 29       		.byte	0x29
 7602 1f55 21       		.uleb128 0x21
 7603 1f56 7B050000 		.4byte	.LASF99
 7604 1f5a 7B050000 		.4byte	.LASF99
 7605 1f5e 0F       		.byte	0xf
 7606 1f5f 2B       		.byte	0x2b
 7607 1f60 21       		.uleb128 0x21
 7608 1f61 0C040000 		.4byte	.LASF100
 7609 1f65 0C040000 		.4byte	.LASF100
 7610 1f69 10       		.byte	0x10
 7611 1f6a 4E       		.byte	0x4e
 7612 1f6b 21       		.uleb128 0x21
 7613 1f6c A6040000 		.4byte	.LASF101
 7614 1f70 A6040000 		.4byte	.LASF101
 7615 1f74 11       		.byte	0x11
 7616 1f75 4E       		.byte	0x4e
 7617 1f76 21       		.uleb128 0x21
 7618 1f77 12000000 		.4byte	.LASF102
ARM GAS  C:\Users\pasan savindu\AppData\Local\Temp\ccY2T3Z5.s 			page 154


 7619 1f7b 12000000 		.4byte	.LASF102
 7620 1f7f 12       		.byte	0x12
 7621 1f80 26       		.byte	0x26
 7622 1f81 21       		.uleb128 0x21
 7623 1f82 1F070000 		.4byte	.LASF103
 7624 1f86 1F070000 		.4byte	.LASF103
 7625 1f8a 13       		.byte	0x13
 7626 1f8b 26       		.byte	0x26
 7627 1f8c 21       		.uleb128 0x21
 7628 1f8d 2C040000 		.4byte	.LASF104
 7629 1f91 2C040000 		.4byte	.LASF104
 7630 1f95 14       		.byte	0x14
 7631 1f96 26       		.byte	0x26
 7632 1f97 21       		.uleb128 0x21
 7633 1f98 D8070000 		.4byte	.LASF105
 7634 1f9c D8070000 		.4byte	.LASF105
 7635 1fa0 15       		.byte	0x15
 7636 1fa1 26       		.byte	0x26
 7637 1fa2 21       		.uleb128 0x21
 7638 1fa3 63050000 		.4byte	.LASF106
 7639 1fa7 63050000 		.4byte	.LASF106
 7640 1fab 16       		.byte	0x16
 7641 1fac C7       		.byte	0xc7
 7642 1fad 21       		.uleb128 0x21
 7643 1fae 29000000 		.4byte	.LASF107
 7644 1fb2 29000000 		.4byte	.LASF107
 7645 1fb6 16       		.byte	0x16
 7646 1fb7 CA       		.byte	0xca
 7647 1fb8 21       		.uleb128 0x21
 7648 1fb9 4B020000 		.4byte	.LASF108
 7649 1fbd 4B020000 		.4byte	.LASF108
 7650 1fc1 10       		.byte	0x10
 7651 1fc2 4F       		.byte	0x4f
 7652 1fc3 21       		.uleb128 0x21
 7653 1fc4 63030000 		.4byte	.LASF109
 7654 1fc8 63030000 		.4byte	.LASF109
 7655 1fcc 11       		.byte	0x11
 7656 1fcd 4F       		.byte	0x4f
 7657 1fce 21       		.uleb128 0x21
 7658 1fcf 22060000 		.4byte	.LASF110
 7659 1fd3 22060000 		.4byte	.LASF110
 7660 1fd7 17       		.byte	0x17
 7661 1fd8 29       		.byte	0x29
 7662 1fd9 21       		.uleb128 0x21
 7663 1fda 91060000 		.4byte	.LASF111
 7664 1fde 91060000 		.4byte	.LASF111
 7665 1fe2 18       		.byte	0x18
 7666 1fe3 29       		.byte	0x29
 7667 1fe4 21       		.uleb128 0x21
 7668 1fe5 0A000000 		.4byte	.LASF112
 7669 1fe9 0A000000 		.4byte	.LASF112
 7670 1fed 19       		.byte	0x19
 7671 1fee 76       		.byte	0x76
 7672 1fef 21       		.uleb128 0x21
 7673 1ff0 75060000 		.4byte	.LASF113
 7674 1ff4 75060000 		.4byte	.LASF113
 7675 1ff8 1A       		.byte	0x1a
ARM GAS  C:\Users\pasan savindu\AppData\Local\Temp\ccY2T3Z5.s 			page 155


 7676 1ff9 26       		.byte	0x26
 7677 1ffa 21       		.uleb128 0x21
 7678 1ffb F5010000 		.4byte	.LASF114
 7679 1fff F5010000 		.4byte	.LASF114
 7680 2003 19       		.byte	0x19
 7681 2004 77       		.byte	0x77
 7682 2005 21       		.uleb128 0x21
 7683 2006 4C060000 		.4byte	.LASF115
 7684 200a 4C060000 		.4byte	.LASF115
 7685 200e 1B       		.byte	0x1b
 7686 200f 29       		.byte	0x29
 7687 2010 21       		.uleb128 0x21
 7688 2011 5E060000 		.4byte	.LASF116
 7689 2015 5E060000 		.4byte	.LASF116
 7690 2019 1C       		.byte	0x1c
 7691 201a 26       		.byte	0x26
 7692 201b 21       		.uleb128 0x21
 7693 201c F0030000 		.4byte	.LASF117
 7694 2020 F0030000 		.4byte	.LASF117
 7695 2024 1D       		.byte	0x1d
 7696 2025 29       		.byte	0x29
 7697 2026 21       		.uleb128 0x21
 7698 2027 7D030000 		.4byte	.LASF118
 7699 202b 7D030000 		.4byte	.LASF118
 7700 202f 1E       		.byte	0x1e
 7701 2030 2F       		.byte	0x2f
 7702 2031 21       		.uleb128 0x21
 7703 2032 B6080000 		.4byte	.LASF119
 7704 2036 B6080000 		.4byte	.LASF119
 7705 203a 0B       		.byte	0xb
 7706 203b 4F       		.byte	0x4f
 7707 203c 21       		.uleb128 0x21
 7708 203d 4A040000 		.4byte	.LASF120
 7709 2041 4A040000 		.4byte	.LASF120
 7710 2045 0E       		.byte	0xe
 7711 2046 18       		.byte	0x18
 7712 2047 21       		.uleb128 0x21
 7713 2048 D2060000 		.4byte	.LASF121
 7714 204c D2060000 		.4byte	.LASF121
 7715 2050 0C       		.byte	0xc
 7716 2051 5A       		.byte	0x5a
 7717 2052 21       		.uleb128 0x21
 7718 2053 60070000 		.4byte	.LASF122
 7719 2057 60070000 		.4byte	.LASF122
 7720 205b 16       		.byte	0x16
 7721 205c 92       		.byte	0x92
 7722 205d 21       		.uleb128 0x21
 7723 205e E5010000 		.4byte	.LASF123
 7724 2062 E5010000 		.4byte	.LASF123
 7725 2066 10       		.byte	0x10
 7726 2067 48       		.byte	0x48
 7727 2068 21       		.uleb128 0x21
 7728 2069 8D040000 		.4byte	.LASF124
 7729 206d 8D040000 		.4byte	.LASF124
 7730 2071 11       		.byte	0x11
 7731 2072 48       		.byte	0x48
 7732 2073 21       		.uleb128 0x21
ARM GAS  C:\Users\pasan savindu\AppData\Local\Temp\ccY2T3Z5.s 			page 156


 7733 2074 57090000 		.4byte	.LASF125
 7734 2078 57090000 		.4byte	.LASF125
 7735 207c 07       		.byte	0x7
 7736 207d 5A       		.byte	0x5a
 7737 207e 21       		.uleb128 0x21
 7738 207f 3B040000 		.4byte	.LASF126
 7739 2083 3B040000 		.4byte	.LASF126
 7740 2087 08       		.byte	0x8
 7741 2088 5A       		.byte	0x5a
 7742 2089 21       		.uleb128 0x21
 7743 208a 4E080000 		.4byte	.LASF127
 7744 208e 4E080000 		.4byte	.LASF127
 7745 2092 09       		.byte	0x9
 7746 2093 5A       		.byte	0x5a
 7747 2094 21       		.uleb128 0x21
 7748 2095 C7030000 		.4byte	.LASF128
 7749 2099 C7030000 		.4byte	.LASF128
 7750 209d 0A       		.byte	0xa
 7751 209e 5A       		.byte	0x5a
 7752 209f 21       		.uleb128 0x21
 7753 20a0 A2080000 		.4byte	.LASF129
 7754 20a4 A2080000 		.4byte	.LASF129
 7755 20a8 1F       		.byte	0x1f
 7756 20a9 92       		.byte	0x92
 7757 20aa 21       		.uleb128 0x21
 7758 20ab 9A030000 		.4byte	.LASF130
 7759 20af 9A030000 		.4byte	.LASF130
 7760 20b3 20       		.byte	0x20
 7761 20b4 92       		.byte	0x92
 7762 20b5 21       		.uleb128 0x21
 7763 20b6 53000000 		.4byte	.LASF131
 7764 20ba 53000000 		.4byte	.LASF131
 7765 20be 21       		.byte	0x21
 7766 20bf 18       		.byte	0x18
 7767 20c0 21       		.uleb128 0x21
 7768 20c1 34030000 		.4byte	.LASF132
 7769 20c5 34030000 		.4byte	.LASF132
 7770 20c9 22       		.byte	0x22
 7771 20ca 18       		.byte	0x18
 7772 20cb 21       		.uleb128 0x21
 7773 20cc BD070000 		.4byte	.LASF133
 7774 20d0 BD070000 		.4byte	.LASF133
 7775 20d4 23       		.byte	0x23
 7776 20d5 18       		.byte	0x18
 7777 20d6 21       		.uleb128 0x21
 7778 20d7 69080000 		.4byte	.LASF134
 7779 20db 69080000 		.4byte	.LASF134
 7780 20df 24       		.byte	0x24
 7781 20e0 18       		.byte	0x18
 7782 20e1 21       		.uleb128 0x21
 7783 20e2 AB060000 		.4byte	.LASF135
 7784 20e6 AB060000 		.4byte	.LASF135
 7785 20ea 25       		.byte	0x25
 7786 20eb 54       		.byte	0x54
 7787 20ec 21       		.uleb128 0x21
 7788 20ed 59010000 		.4byte	.LASF136
 7789 20f1 59010000 		.4byte	.LASF136
ARM GAS  C:\Users\pasan savindu\AppData\Local\Temp\ccY2T3Z5.s 			page 157


 7790 20f5 26       		.byte	0x26
 7791 20f6 93       		.byte	0x93
 7792 20f7 21       		.uleb128 0x21
 7793 20f8 A8000000 		.4byte	.LASF137
 7794 20fc A8000000 		.4byte	.LASF137
 7795 2100 20       		.byte	0x20
 7796 2101 CA       		.byte	0xca
 7797 2102 21       		.uleb128 0x21
 7798 2103 8B000000 		.4byte	.LASF138
 7799 2107 8B000000 		.4byte	.LASF138
 7800 210b 20       		.byte	0x20
 7801 210c C7       		.byte	0xc7
 7802 210d 21       		.uleb128 0x21
 7803 210e C3050000 		.4byte	.LASF139
 7804 2112 C3050000 		.4byte	.LASF139
 7805 2116 1F       		.byte	0x1f
 7806 2117 C3       		.byte	0xc3
 7807 2118 21       		.uleb128 0x21
 7808 2119 6F020000 		.4byte	.LASF140
 7809 211d 6F020000 		.4byte	.LASF140
 7810 2121 27       		.byte	0x27
 7811 2122 26       		.byte	0x26
 7812 2123 21       		.uleb128 0x21
 7813 2124 70070000 		.4byte	.LASF141
 7814 2128 70070000 		.4byte	.LASF141
 7815 212c 28       		.byte	0x28
 7816 212d 26       		.byte	0x26
 7817 212e 21       		.uleb128 0x21
 7818 212f F5060000 		.4byte	.LASF142
 7819 2133 F5060000 		.4byte	.LASF142
 7820 2137 29       		.byte	0x29
 7821 2138 26       		.byte	0x26
 7822 2139 21       		.uleb128 0x21
 7823 213a DE050000 		.4byte	.LASF143
 7824 213e DE050000 		.4byte	.LASF143
 7825 2142 2A       		.byte	0x2a
 7826 2143 26       		.byte	0x26
 7827 2144 21       		.uleb128 0x21
 7828 2145 0C030000 		.4byte	.LASF144
 7829 2149 0C030000 		.4byte	.LASF144
 7830 214d 26       		.byte	0x26
 7831 214e B1       		.byte	0xb1
 7832 214f 21       		.uleb128 0x21
 7833 2150 DD040000 		.4byte	.LASF145
 7834 2154 DD040000 		.4byte	.LASF145
 7835 2158 26       		.byte	0x26
 7836 2159 B6       		.byte	0xb6
 7837 215a 21       		.uleb128 0x21
 7838 215b 90010000 		.4byte	.LASF146
 7839 215f 90010000 		.4byte	.LASF146
 7840 2163 26       		.byte	0x26
 7841 2164 B5       		.byte	0xb5
 7842 2165 21       		.uleb128 0x21
 7843 2166 B4030000 		.4byte	.LASF147
 7844 216a B4030000 		.4byte	.LASF147
 7845 216e 26       		.byte	0x26
 7846 216f B7       		.byte	0xb7
ARM GAS  C:\Users\pasan savindu\AppData\Local\Temp\ccY2T3Z5.s 			page 158


 7847 2170 21       		.uleb128 0x21
 7848 2171 7F070000 		.4byte	.LASF148
 7849 2175 7F070000 		.4byte	.LASF148
 7850 2179 2B       		.byte	0x2b
 7851 217a 7F       		.byte	0x7f
 7852 217b 21       		.uleb128 0x21
 7853 217c 2B050000 		.4byte	.LASF149
 7854 2180 2B050000 		.4byte	.LASF149
 7855 2184 2C       		.byte	0x2c
 7856 2185 E7       		.byte	0xe7
 7857 2186 21       		.uleb128 0x21
 7858 2187 FD030000 		.4byte	.LASF150
 7859 218b FD030000 		.4byte	.LASF150
 7860 218f 25       		.byte	0x25
 7861 2190 8B       		.byte	0x8b
 7862 2191 21       		.uleb128 0x21
 7863 2192 E9070000 		.4byte	.LASF151
 7864 2196 E9070000 		.4byte	.LASF151
 7865 219a 2D       		.byte	0x2d
 7866 219b 26       		.byte	0x26
 7867 219c 21       		.uleb128 0x21
 7868 219d C5000000 		.4byte	.LASF152
 7869 21a1 C5000000 		.4byte	.LASF152
 7870 21a5 2E       		.byte	0x2e
 7871 21a6 29       		.byte	0x29
 7872 21a7 21       		.uleb128 0x21
 7873 21a8 AC070000 		.4byte	.LASF153
 7874 21ac AC070000 		.4byte	.LASF153
 7875 21b0 2F       		.byte	0x2f
 7876 21b1 26       		.byte	0x26
 7877 21b2 21       		.uleb128 0x21
 7878 21b3 CB070000 		.4byte	.LASF154
 7879 21b7 CB070000 		.4byte	.LASF154
 7880 21bb 30       		.byte	0x30
 7881 21bc 29       		.byte	0x29
 7882 21bd 21       		.uleb128 0x21
 7883 21be 70000000 		.4byte	.LASF155
 7884 21c2 70000000 		.4byte	.LASF155
 7885 21c6 31       		.byte	0x31
 7886 21c7 26       		.byte	0x26
 7887 21c8 21       		.uleb128 0x21
 7888 21c9 D6010000 		.4byte	.LASF156
 7889 21cd D6010000 		.4byte	.LASF156
 7890 21d1 32       		.byte	0x32
 7891 21d2 26       		.byte	0x26
 7892 21d3 21       		.uleb128 0x21
 7893 21d4 28090000 		.4byte	.LASF157
 7894 21d8 28090000 		.4byte	.LASF157
 7895 21dc 33       		.byte	0x33
 7896 21dd 29       		.byte	0x29
 7897 21de 00       		.byte	0
 7898              		.section	.debug_abbrev,"",%progbits
 7899              	.Ldebug_abbrev0:
 7900 0000 01       		.uleb128 0x1
 7901 0001 11       		.uleb128 0x11
 7902 0002 01       		.byte	0x1
 7903 0003 25       		.uleb128 0x25
ARM GAS  C:\Users\pasan savindu\AppData\Local\Temp\ccY2T3Z5.s 			page 159


 7904 0004 0E       		.uleb128 0xe
 7905 0005 13       		.uleb128 0x13
 7906 0006 0B       		.uleb128 0xb
 7907 0007 03       		.uleb128 0x3
 7908 0008 0E       		.uleb128 0xe
 7909 0009 1B       		.uleb128 0x1b
 7910 000a 0E       		.uleb128 0xe
 7911 000b 55       		.uleb128 0x55
 7912 000c 17       		.uleb128 0x17
 7913 000d 11       		.uleb128 0x11
 7914 000e 01       		.uleb128 0x1
 7915 000f 10       		.uleb128 0x10
 7916 0010 17       		.uleb128 0x17
 7917 0011 00       		.byte	0
 7918 0012 00       		.byte	0
 7919 0013 02       		.uleb128 0x2
 7920 0014 24       		.uleb128 0x24
 7921 0015 00       		.byte	0
 7922 0016 0B       		.uleb128 0xb
 7923 0017 0B       		.uleb128 0xb
 7924 0018 3E       		.uleb128 0x3e
 7925 0019 0B       		.uleb128 0xb
 7926 001a 03       		.uleb128 0x3
 7927 001b 0E       		.uleb128 0xe
 7928 001c 00       		.byte	0
 7929 001d 00       		.byte	0
 7930 001e 03       		.uleb128 0x3
 7931 001f 16       		.uleb128 0x16
 7932 0020 00       		.byte	0
 7933 0021 03       		.uleb128 0x3
 7934 0022 0E       		.uleb128 0xe
 7935 0023 3A       		.uleb128 0x3a
 7936 0024 0B       		.uleb128 0xb
 7937 0025 3B       		.uleb128 0x3b
 7938 0026 0B       		.uleb128 0xb
 7939 0027 49       		.uleb128 0x49
 7940 0028 13       		.uleb128 0x13
 7941 0029 00       		.byte	0
 7942 002a 00       		.byte	0
 7943 002b 04       		.uleb128 0x4
 7944 002c 24       		.uleb128 0x24
 7945 002d 00       		.byte	0
 7946 002e 0B       		.uleb128 0xb
 7947 002f 0B       		.uleb128 0xb
 7948 0030 3E       		.uleb128 0x3e
 7949 0031 0B       		.uleb128 0xb
 7950 0032 03       		.uleb128 0x3
 7951 0033 08       		.uleb128 0x8
 7952 0034 00       		.byte	0
 7953 0035 00       		.byte	0
 7954 0036 05       		.uleb128 0x5
 7955 0037 16       		.uleb128 0x16
 7956 0038 00       		.byte	0
 7957 0039 03       		.uleb128 0x3
 7958 003a 0E       		.uleb128 0xe
 7959 003b 3A       		.uleb128 0x3a
 7960 003c 0B       		.uleb128 0xb
ARM GAS  C:\Users\pasan savindu\AppData\Local\Temp\ccY2T3Z5.s 			page 160


 7961 003d 3B       		.uleb128 0x3b
 7962 003e 05       		.uleb128 0x5
 7963 003f 49       		.uleb128 0x49
 7964 0040 13       		.uleb128 0x13
 7965 0041 00       		.byte	0
 7966 0042 00       		.byte	0
 7967 0043 06       		.uleb128 0x6
 7968 0044 2E       		.uleb128 0x2e
 7969 0045 01       		.byte	0x1
 7970 0046 3F       		.uleb128 0x3f
 7971 0047 19       		.uleb128 0x19
 7972 0048 03       		.uleb128 0x3
 7973 0049 0E       		.uleb128 0xe
 7974 004a 3A       		.uleb128 0x3a
 7975 004b 0B       		.uleb128 0xb
 7976 004c 3B       		.uleb128 0x3b
 7977 004d 0B       		.uleb128 0xb
 7978 004e 27       		.uleb128 0x27
 7979 004f 19       		.uleb128 0x19
 7980 0050 11       		.uleb128 0x11
 7981 0051 01       		.uleb128 0x1
 7982 0052 12       		.uleb128 0x12
 7983 0053 06       		.uleb128 0x6
 7984 0054 40       		.uleb128 0x40
 7985 0055 18       		.uleb128 0x18
 7986 0056 9642     		.uleb128 0x2116
 7987 0058 19       		.uleb128 0x19
 7988 0059 01       		.uleb128 0x1
 7989 005a 13       		.uleb128 0x13
 7990 005b 00       		.byte	0
 7991 005c 00       		.byte	0
 7992 005d 07       		.uleb128 0x7
 7993 005e 34       		.uleb128 0x34
 7994 005f 00       		.byte	0
 7995 0060 03       		.uleb128 0x3
 7996 0061 0E       		.uleb128 0xe
 7997 0062 3A       		.uleb128 0x3a
 7998 0063 0B       		.uleb128 0xb
 7999 0064 3B       		.uleb128 0x3b
 8000 0065 0B       		.uleb128 0xb
 8001 0066 49       		.uleb128 0x49
 8002 0067 13       		.uleb128 0x13
 8003 0068 02       		.uleb128 0x2
 8004 0069 17       		.uleb128 0x17
 8005 006a 00       		.byte	0
 8006 006b 00       		.byte	0
 8007 006c 08       		.uleb128 0x8
 8008 006d 898201   		.uleb128 0x4109
 8009 0070 00       		.byte	0
 8010 0071 11       		.uleb128 0x11
 8011 0072 01       		.uleb128 0x1
 8012 0073 31       		.uleb128 0x31
 8013 0074 13       		.uleb128 0x13
 8014 0075 00       		.byte	0
 8015 0076 00       		.byte	0
 8016 0077 09       		.uleb128 0x9
 8017 0078 2E       		.uleb128 0x2e
ARM GAS  C:\Users\pasan savindu\AppData\Local\Temp\ccY2T3Z5.s 			page 161


 8018 0079 01       		.byte	0x1
 8019 007a 3F       		.uleb128 0x3f
 8020 007b 19       		.uleb128 0x19
 8021 007c 03       		.uleb128 0x3
 8022 007d 0E       		.uleb128 0xe
 8023 007e 3A       		.uleb128 0x3a
 8024 007f 0B       		.uleb128 0xb
 8025 0080 3B       		.uleb128 0x3b
 8026 0081 0B       		.uleb128 0xb
 8027 0082 27       		.uleb128 0x27
 8028 0083 19       		.uleb128 0x19
 8029 0084 11       		.uleb128 0x11
 8030 0085 01       		.uleb128 0x1
 8031 0086 12       		.uleb128 0x12
 8032 0087 06       		.uleb128 0x6
 8033 0088 40       		.uleb128 0x40
 8034 0089 18       		.uleb128 0x18
 8035 008a 9742     		.uleb128 0x2117
 8036 008c 19       		.uleb128 0x19
 8037 008d 01       		.uleb128 0x1
 8038 008e 13       		.uleb128 0x13
 8039 008f 00       		.byte	0
 8040 0090 00       		.byte	0
 8041 0091 0A       		.uleb128 0xa
 8042 0092 898201   		.uleb128 0x4109
 8043 0095 01       		.byte	0x1
 8044 0096 11       		.uleb128 0x11
 8045 0097 01       		.uleb128 0x1
 8046 0098 31       		.uleb128 0x31
 8047 0099 13       		.uleb128 0x13
 8048 009a 01       		.uleb128 0x1
 8049 009b 13       		.uleb128 0x13
 8050 009c 00       		.byte	0
 8051 009d 00       		.byte	0
 8052 009e 0B       		.uleb128 0xb
 8053 009f 8A8201   		.uleb128 0x410a
 8054 00a2 00       		.byte	0
 8055 00a3 02       		.uleb128 0x2
 8056 00a4 18       		.uleb128 0x18
 8057 00a5 9142     		.uleb128 0x2111
 8058 00a7 18       		.uleb128 0x18
 8059 00a8 00       		.byte	0
 8060 00a9 00       		.byte	0
 8061 00aa 0C       		.uleb128 0xc
 8062 00ab 05       		.uleb128 0x5
 8063 00ac 00       		.byte	0
 8064 00ad 03       		.uleb128 0x3
 8065 00ae 0E       		.uleb128 0xe
 8066 00af 3A       		.uleb128 0x3a
 8067 00b0 0B       		.uleb128 0xb
 8068 00b1 3B       		.uleb128 0x3b
 8069 00b2 0B       		.uleb128 0xb
 8070 00b3 49       		.uleb128 0x49
 8071 00b4 13       		.uleb128 0x13
 8072 00b5 02       		.uleb128 0x2
 8073 00b6 17       		.uleb128 0x17
 8074 00b7 00       		.byte	0
ARM GAS  C:\Users\pasan savindu\AppData\Local\Temp\ccY2T3Z5.s 			page 162


 8075 00b8 00       		.byte	0
 8076 00b9 0D       		.uleb128 0xd
 8077 00ba 2E       		.uleb128 0x2e
 8078 00bb 01       		.byte	0x1
 8079 00bc 3F       		.uleb128 0x3f
 8080 00bd 19       		.uleb128 0x19
 8081 00be 03       		.uleb128 0x3
 8082 00bf 0E       		.uleb128 0xe
 8083 00c0 3A       		.uleb128 0x3a
 8084 00c1 0B       		.uleb128 0xb
 8085 00c2 3B       		.uleb128 0x3b
 8086 00c3 05       		.uleb128 0x5
 8087 00c4 27       		.uleb128 0x27
 8088 00c5 19       		.uleb128 0x19
 8089 00c6 11       		.uleb128 0x11
 8090 00c7 01       		.uleb128 0x1
 8091 00c8 12       		.uleb128 0x12
 8092 00c9 06       		.uleb128 0x6
 8093 00ca 40       		.uleb128 0x40
 8094 00cb 18       		.uleb128 0x18
 8095 00cc 9742     		.uleb128 0x2117
 8096 00ce 19       		.uleb128 0x19
 8097 00cf 01       		.uleb128 0x1
 8098 00d0 13       		.uleb128 0x13
 8099 00d1 00       		.byte	0
 8100 00d2 00       		.byte	0
 8101 00d3 0E       		.uleb128 0xe
 8102 00d4 05       		.uleb128 0x5
 8103 00d5 00       		.byte	0
 8104 00d6 03       		.uleb128 0x3
 8105 00d7 08       		.uleb128 0x8
 8106 00d8 3A       		.uleb128 0x3a
 8107 00d9 0B       		.uleb128 0xb
 8108 00da 3B       		.uleb128 0x3b
 8109 00db 05       		.uleb128 0x5
 8110 00dc 49       		.uleb128 0x49
 8111 00dd 13       		.uleb128 0x13
 8112 00de 02       		.uleb128 0x2
 8113 00df 17       		.uleb128 0x17
 8114 00e0 00       		.byte	0
 8115 00e1 00       		.byte	0
 8116 00e2 0F       		.uleb128 0xf
 8117 00e3 898201   		.uleb128 0x4109
 8118 00e6 01       		.byte	0x1
 8119 00e7 11       		.uleb128 0x11
 8120 00e8 01       		.uleb128 0x1
 8121 00e9 31       		.uleb128 0x31
 8122 00ea 13       		.uleb128 0x13
 8123 00eb 00       		.byte	0
 8124 00ec 00       		.byte	0
 8125 00ed 10       		.uleb128 0x10
 8126 00ee 05       		.uleb128 0x5
 8127 00ef 00       		.byte	0
 8128 00f0 03       		.uleb128 0x3
 8129 00f1 0E       		.uleb128 0xe
 8130 00f2 3A       		.uleb128 0x3a
 8131 00f3 0B       		.uleb128 0xb
ARM GAS  C:\Users\pasan savindu\AppData\Local\Temp\ccY2T3Z5.s 			page 163


 8132 00f4 3B       		.uleb128 0x3b
 8133 00f5 05       		.uleb128 0x5
 8134 00f6 49       		.uleb128 0x49
 8135 00f7 13       		.uleb128 0x13
 8136 00f8 02       		.uleb128 0x2
 8137 00f9 17       		.uleb128 0x17
 8138 00fa 00       		.byte	0
 8139 00fb 00       		.byte	0
 8140 00fc 11       		.uleb128 0x11
 8141 00fd 34       		.uleb128 0x34
 8142 00fe 00       		.byte	0
 8143 00ff 03       		.uleb128 0x3
 8144 0100 0E       		.uleb128 0xe
 8145 0101 3A       		.uleb128 0x3a
 8146 0102 0B       		.uleb128 0xb
 8147 0103 3B       		.uleb128 0x3b
 8148 0104 05       		.uleb128 0x5
 8149 0105 49       		.uleb128 0x49
 8150 0106 13       		.uleb128 0x13
 8151 0107 02       		.uleb128 0x2
 8152 0108 17       		.uleb128 0x17
 8153 0109 00       		.byte	0
 8154 010a 00       		.byte	0
 8155 010b 12       		.uleb128 0x12
 8156 010c 2E       		.uleb128 0x2e
 8157 010d 01       		.byte	0x1
 8158 010e 3F       		.uleb128 0x3f
 8159 010f 19       		.uleb128 0x19
 8160 0110 03       		.uleb128 0x3
 8161 0111 0E       		.uleb128 0xe
 8162 0112 3A       		.uleb128 0x3a
 8163 0113 0B       		.uleb128 0xb
 8164 0114 3B       		.uleb128 0x3b
 8165 0115 05       		.uleb128 0x5
 8166 0116 11       		.uleb128 0x11
 8167 0117 01       		.uleb128 0x1
 8168 0118 12       		.uleb128 0x12
 8169 0119 06       		.uleb128 0x6
 8170 011a 40       		.uleb128 0x40
 8171 011b 18       		.uleb128 0x18
 8172 011c 9742     		.uleb128 0x2117
 8173 011e 19       		.uleb128 0x19
 8174 011f 01       		.uleb128 0x1
 8175 0120 13       		.uleb128 0x13
 8176 0121 00       		.byte	0
 8177 0122 00       		.byte	0
 8178 0123 13       		.uleb128 0x13
 8179 0124 2E       		.uleb128 0x2e
 8180 0125 01       		.byte	0x1
 8181 0126 3F       		.uleb128 0x3f
 8182 0127 19       		.uleb128 0x19
 8183 0128 03       		.uleb128 0x3
 8184 0129 0E       		.uleb128 0xe
 8185 012a 3A       		.uleb128 0x3a
 8186 012b 0B       		.uleb128 0xb
 8187 012c 3B       		.uleb128 0x3b
 8188 012d 05       		.uleb128 0x5
ARM GAS  C:\Users\pasan savindu\AppData\Local\Temp\ccY2T3Z5.s 			page 164


 8189 012e 27       		.uleb128 0x27
 8190 012f 19       		.uleb128 0x19
 8191 0130 49       		.uleb128 0x49
 8192 0131 13       		.uleb128 0x13
 8193 0132 11       		.uleb128 0x11
 8194 0133 01       		.uleb128 0x1
 8195 0134 12       		.uleb128 0x12
 8196 0135 06       		.uleb128 0x6
 8197 0136 40       		.uleb128 0x40
 8198 0137 18       		.uleb128 0x18
 8199 0138 9742     		.uleb128 0x2117
 8200 013a 19       		.uleb128 0x19
 8201 013b 01       		.uleb128 0x1
 8202 013c 13       		.uleb128 0x13
 8203 013d 00       		.byte	0
 8204 013e 00       		.byte	0
 8205 013f 14       		.uleb128 0x14
 8206 0140 2E       		.uleb128 0x2e
 8207 0141 01       		.byte	0x1
 8208 0142 3F       		.uleb128 0x3f
 8209 0143 19       		.uleb128 0x19
 8210 0144 03       		.uleb128 0x3
 8211 0145 0E       		.uleb128 0xe
 8212 0146 3A       		.uleb128 0x3a
 8213 0147 0B       		.uleb128 0xb
 8214 0148 3B       		.uleb128 0x3b
 8215 0149 05       		.uleb128 0x5
 8216 014a 49       		.uleb128 0x49
 8217 014b 13       		.uleb128 0x13
 8218 014c 11       		.uleb128 0x11
 8219 014d 01       		.uleb128 0x1
 8220 014e 12       		.uleb128 0x12
 8221 014f 06       		.uleb128 0x6
 8222 0150 40       		.uleb128 0x40
 8223 0151 18       		.uleb128 0x18
 8224 0152 9742     		.uleb128 0x2117
 8225 0154 19       		.uleb128 0x19
 8226 0155 01       		.uleb128 0x1
 8227 0156 13       		.uleb128 0x13
 8228 0157 00       		.byte	0
 8229 0158 00       		.byte	0
 8230 0159 15       		.uleb128 0x15
 8231 015a 34       		.uleb128 0x34
 8232 015b 00       		.byte	0
 8233 015c 03       		.uleb128 0x3
 8234 015d 0E       		.uleb128 0xe
 8235 015e 3A       		.uleb128 0x3a
 8236 015f 0B       		.uleb128 0xb
 8237 0160 3B       		.uleb128 0x3b
 8238 0161 05       		.uleb128 0x5
 8239 0162 49       		.uleb128 0x49
 8240 0163 13       		.uleb128 0x13
 8241 0164 02       		.uleb128 0x2
 8242 0165 18       		.uleb128 0x18
 8243 0166 00       		.byte	0
 8244 0167 00       		.byte	0
 8245 0168 16       		.uleb128 0x16
ARM GAS  C:\Users\pasan savindu\AppData\Local\Temp\ccY2T3Z5.s 			page 165


 8246 0169 0B       		.uleb128 0xb
 8247 016a 01       		.byte	0x1
 8248 016b 11       		.uleb128 0x11
 8249 016c 01       		.uleb128 0x1
 8250 016d 12       		.uleb128 0x12
 8251 016e 06       		.uleb128 0x6
 8252 016f 00       		.byte	0
 8253 0170 00       		.byte	0
 8254 0171 17       		.uleb128 0x17
 8255 0172 01       		.uleb128 0x1
 8256 0173 01       		.byte	0x1
 8257 0174 49       		.uleb128 0x49
 8258 0175 13       		.uleb128 0x13
 8259 0176 01       		.uleb128 0x1
 8260 0177 13       		.uleb128 0x13
 8261 0178 00       		.byte	0
 8262 0179 00       		.byte	0
 8263 017a 18       		.uleb128 0x18
 8264 017b 21       		.uleb128 0x21
 8265 017c 00       		.byte	0
 8266 017d 49       		.uleb128 0x49
 8267 017e 13       		.uleb128 0x13
 8268 017f 2F       		.uleb128 0x2f
 8269 0180 0B       		.uleb128 0xb
 8270 0181 00       		.byte	0
 8271 0182 00       		.byte	0
 8272 0183 19       		.uleb128 0x19
 8273 0184 2E       		.uleb128 0x2e
 8274 0185 01       		.byte	0x1
 8275 0186 3F       		.uleb128 0x3f
 8276 0187 19       		.uleb128 0x19
 8277 0188 03       		.uleb128 0x3
 8278 0189 0E       		.uleb128 0xe
 8279 018a 3A       		.uleb128 0x3a
 8280 018b 0B       		.uleb128 0xb
 8281 018c 3B       		.uleb128 0x3b
 8282 018d 05       		.uleb128 0x5
 8283 018e 11       		.uleb128 0x11
 8284 018f 01       		.uleb128 0x1
 8285 0190 12       		.uleb128 0x12
 8286 0191 06       		.uleb128 0x6
 8287 0192 40       		.uleb128 0x40
 8288 0193 18       		.uleb128 0x18
 8289 0194 9642     		.uleb128 0x2116
 8290 0196 19       		.uleb128 0x19
 8291 0197 01       		.uleb128 0x1
 8292 0198 13       		.uleb128 0x13
 8293 0199 00       		.byte	0
 8294 019a 00       		.byte	0
 8295 019b 1A       		.uleb128 0x1a
 8296 019c 34       		.uleb128 0x34
 8297 019d 00       		.byte	0
 8298 019e 03       		.uleb128 0x3
 8299 019f 0E       		.uleb128 0xe
 8300 01a0 3A       		.uleb128 0x3a
 8301 01a1 0B       		.uleb128 0xb
 8302 01a2 3B       		.uleb128 0x3b
ARM GAS  C:\Users\pasan savindu\AppData\Local\Temp\ccY2T3Z5.s 			page 166


 8303 01a3 05       		.uleb128 0x5
 8304 01a4 49       		.uleb128 0x49
 8305 01a5 13       		.uleb128 0x13
 8306 01a6 00       		.byte	0
 8307 01a7 00       		.byte	0
 8308 01a8 1B       		.uleb128 0x1b
 8309 01a9 34       		.uleb128 0x34
 8310 01aa 00       		.byte	0
 8311 01ab 03       		.uleb128 0x3
 8312 01ac 08       		.uleb128 0x8
 8313 01ad 3A       		.uleb128 0x3a
 8314 01ae 0B       		.uleb128 0xb
 8315 01af 3B       		.uleb128 0x3b
 8316 01b0 05       		.uleb128 0x5
 8317 01b1 49       		.uleb128 0x49
 8318 01b2 13       		.uleb128 0x13
 8319 01b3 02       		.uleb128 0x2
 8320 01b4 17       		.uleb128 0x17
 8321 01b5 00       		.byte	0
 8322 01b6 00       		.byte	0
 8323 01b7 1C       		.uleb128 0x1c
 8324 01b8 34       		.uleb128 0x34
 8325 01b9 00       		.byte	0
 8326 01ba 03       		.uleb128 0x3
 8327 01bb 0E       		.uleb128 0xe
 8328 01bc 3A       		.uleb128 0x3a
 8329 01bd 0B       		.uleb128 0xb
 8330 01be 3B       		.uleb128 0x3b
 8331 01bf 05       		.uleb128 0x5
 8332 01c0 49       		.uleb128 0x49
 8333 01c1 13       		.uleb128 0x13
 8334 01c2 1C       		.uleb128 0x1c
 8335 01c3 0B       		.uleb128 0xb
 8336 01c4 00       		.byte	0
 8337 01c5 00       		.byte	0
 8338 01c6 1D       		.uleb128 0x1d
 8339 01c7 2E       		.uleb128 0x2e
 8340 01c8 01       		.byte	0x1
 8341 01c9 3F       		.uleb128 0x3f
 8342 01ca 19       		.uleb128 0x19
 8343 01cb 03       		.uleb128 0x3
 8344 01cc 0E       		.uleb128 0xe
 8345 01cd 3A       		.uleb128 0x3a
 8346 01ce 0B       		.uleb128 0xb
 8347 01cf 3B       		.uleb128 0x3b
 8348 01d0 0B       		.uleb128 0xb
 8349 01d1 27       		.uleb128 0x27
 8350 01d2 19       		.uleb128 0x19
 8351 01d3 49       		.uleb128 0x49
 8352 01d4 13       		.uleb128 0x13
 8353 01d5 8701     		.uleb128 0x87
 8354 01d7 19       		.uleb128 0x19
 8355 01d8 11       		.uleb128 0x11
 8356 01d9 01       		.uleb128 0x1
 8357 01da 12       		.uleb128 0x12
 8358 01db 06       		.uleb128 0x6
 8359 01dc 40       		.uleb128 0x40
ARM GAS  C:\Users\pasan savindu\AppData\Local\Temp\ccY2T3Z5.s 			page 167


 8360 01dd 18       		.uleb128 0x18
 8361 01de 9742     		.uleb128 0x2117
 8362 01e0 19       		.uleb128 0x19
 8363 01e1 01       		.uleb128 0x1
 8364 01e2 13       		.uleb128 0x13
 8365 01e3 00       		.byte	0
 8366 01e4 00       		.byte	0
 8367 01e5 1E       		.uleb128 0x1e
 8368 01e6 34       		.uleb128 0x34
 8369 01e7 00       		.byte	0
 8370 01e8 03       		.uleb128 0x3
 8371 01e9 0E       		.uleb128 0xe
 8372 01ea 3A       		.uleb128 0x3a
 8373 01eb 0B       		.uleb128 0xb
 8374 01ec 3B       		.uleb128 0x3b
 8375 01ed 05       		.uleb128 0x5
 8376 01ee 49       		.uleb128 0x49
 8377 01ef 13       		.uleb128 0x13
 8378 01f0 3F       		.uleb128 0x3f
 8379 01f1 19       		.uleb128 0x19
 8380 01f2 3C       		.uleb128 0x3c
 8381 01f3 19       		.uleb128 0x19
 8382 01f4 00       		.byte	0
 8383 01f5 00       		.byte	0
 8384 01f6 1F       		.uleb128 0x1f
 8385 01f7 35       		.uleb128 0x35
 8386 01f8 00       		.byte	0
 8387 01f9 49       		.uleb128 0x49
 8388 01fa 13       		.uleb128 0x13
 8389 01fb 00       		.byte	0
 8390 01fc 00       		.byte	0
 8391 01fd 20       		.uleb128 0x20
 8392 01fe 34       		.uleb128 0x34
 8393 01ff 00       		.byte	0
 8394 0200 03       		.uleb128 0x3
 8395 0201 0E       		.uleb128 0xe
 8396 0202 3A       		.uleb128 0x3a
 8397 0203 0B       		.uleb128 0xb
 8398 0204 3B       		.uleb128 0x3b
 8399 0205 0B       		.uleb128 0xb
 8400 0206 49       		.uleb128 0x49
 8401 0207 13       		.uleb128 0x13
 8402 0208 3F       		.uleb128 0x3f
 8403 0209 19       		.uleb128 0x19
 8404 020a 02       		.uleb128 0x2
 8405 020b 18       		.uleb128 0x18
 8406 020c 00       		.byte	0
 8407 020d 00       		.byte	0
 8408 020e 21       		.uleb128 0x21
 8409 020f 2E       		.uleb128 0x2e
 8410 0210 00       		.byte	0
 8411 0211 3F       		.uleb128 0x3f
 8412 0212 19       		.uleb128 0x19
 8413 0213 3C       		.uleb128 0x3c
 8414 0214 19       		.uleb128 0x19
 8415 0215 6E       		.uleb128 0x6e
 8416 0216 0E       		.uleb128 0xe
ARM GAS  C:\Users\pasan savindu\AppData\Local\Temp\ccY2T3Z5.s 			page 168


 8417 0217 03       		.uleb128 0x3
 8418 0218 0E       		.uleb128 0xe
 8419 0219 3A       		.uleb128 0x3a
 8420 021a 0B       		.uleb128 0xb
 8421 021b 3B       		.uleb128 0x3b
 8422 021c 0B       		.uleb128 0xb
 8423 021d 00       		.byte	0
 8424 021e 00       		.byte	0
 8425 021f 00       		.byte	0
 8426              		.section	.debug_loc,"",%progbits
 8427              	.Ldebug_loc0:
 8428              	.LLST0:
 8429 0000 24000000 		.4byte	.LVL3
 8430 0004 28000000 		.4byte	.LVL4
 8431 0008 0100     		.2byte	0x1
 8432 000a 50       		.byte	0x50
 8433 000b 28000000 		.4byte	.LVL4
 8434 000f 52000000 		.4byte	.LVL9
 8435 0013 0100     		.2byte	0x1
 8436 0015 54       		.byte	0x54
 8437 0016 00000000 		.4byte	0
 8438 001a 00000000 		.4byte	0
 8439              	.LLST1:
 8440 001e 24000000 		.4byte	.LVL13
 8441 0022 28000000 		.4byte	.LVL14
 8442 0026 0100     		.2byte	0x1
 8443 0028 50       		.byte	0x50
 8444 0029 28000000 		.4byte	.LVL14
 8445 002d 52000000 		.4byte	.LVL19
 8446 0031 0100     		.2byte	0x1
 8447 0033 54       		.byte	0x54
 8448 0034 00000000 		.4byte	0
 8449 0038 00000000 		.4byte	0
 8450              	.LLST2:
 8451 003c 24000000 		.4byte	.LVL23
 8452 0040 28000000 		.4byte	.LVL24
 8453 0044 0100     		.2byte	0x1
 8454 0046 50       		.byte	0x50
 8455 0047 28000000 		.4byte	.LVL24
 8456 004b 52000000 		.4byte	.LVL29
 8457 004f 0100     		.2byte	0x1
 8458 0051 54       		.byte	0x54
 8459 0052 00000000 		.4byte	0
 8460 0056 00000000 		.4byte	0
 8461              	.LLST3:
 8462 005a 24000000 		.4byte	.LVL33
 8463 005e 28000000 		.4byte	.LVL34
 8464 0062 0100     		.2byte	0x1
 8465 0064 50       		.byte	0x50
 8466 0065 28000000 		.4byte	.LVL34
 8467 0069 52000000 		.4byte	.LVL39
 8468 006d 0100     		.2byte	0x1
 8469 006f 54       		.byte	0x54
 8470 0070 00000000 		.4byte	0
 8471 0074 00000000 		.4byte	0
 8472              	.LLST4:
 8473 0078 00000000 		.4byte	.LVL50
ARM GAS  C:\Users\pasan savindu\AppData\Local\Temp\ccY2T3Z5.s 			page 169


 8474 007c 07000000 		.4byte	.LVL51-1
 8475 0080 0100     		.2byte	0x1
 8476 0082 50       		.byte	0x50
 8477 0083 07000000 		.4byte	.LVL51-1
 8478 0087 8C000000 		.4byte	.LFE72
 8479 008b 0400     		.2byte	0x4
 8480 008d F3       		.byte	0xf3
 8481 008e 01       		.uleb128 0x1
 8482 008f 50       		.byte	0x50
 8483 0090 9F       		.byte	0x9f
 8484 0091 00000000 		.4byte	0
 8485 0095 00000000 		.4byte	0
 8486              	.LLST5:
 8487 0099 00000000 		.4byte	.LVL53
 8488 009d 04000000 		.4byte	.LVL54
 8489 00a1 0100     		.2byte	0x1
 8490 00a3 50       		.byte	0x50
 8491 00a4 04000000 		.4byte	.LVL54
 8492 00a8 20020000 		.4byte	.LFE73
 8493 00ac 0400     		.2byte	0x4
 8494 00ae F3       		.byte	0xf3
 8495 00af 01       		.uleb128 0x1
 8496 00b0 50       		.byte	0x50
 8497 00b1 9F       		.byte	0x9f
 8498 00b2 00000000 		.4byte	0
 8499 00b6 00000000 		.4byte	0
 8500              	.LLST6:
 8501 00ba 00000000 		.4byte	.LVL121
 8502 00be 0A000000 		.4byte	.LVL123
 8503 00c2 0100     		.2byte	0x1
 8504 00c4 50       		.byte	0x50
 8505 00c5 0A000000 		.4byte	.LVL123
 8506 00c9 9C000000 		.4byte	.LFE74
 8507 00cd 0400     		.2byte	0x4
 8508 00cf F3       		.byte	0xf3
 8509 00d0 01       		.uleb128 0x1
 8510 00d1 50       		.byte	0x50
 8511 00d2 9F       		.byte	0x9f
 8512 00d3 00000000 		.4byte	0
 8513 00d7 00000000 		.4byte	0
 8514              	.LLST7:
 8515 00db 00000000 		.4byte	.LVL121
 8516 00df 0A000000 		.4byte	.LVL123
 8517 00e3 0100     		.2byte	0x1
 8518 00e5 51       		.byte	0x51
 8519 00e6 0A000000 		.4byte	.LVL123
 8520 00ea 92000000 		.4byte	.LVL139
 8521 00ee 0100     		.2byte	0x1
 8522 00f0 56       		.byte	0x56
 8523 00f1 92000000 		.4byte	.LVL139
 8524 00f5 9C000000 		.4byte	.LFE74
 8525 00f9 0400     		.2byte	0x4
 8526 00fb F3       		.byte	0xf3
 8527 00fc 01       		.uleb128 0x1
 8528 00fd 51       		.byte	0x51
 8529 00fe 9F       		.byte	0x9f
 8530 00ff 00000000 		.4byte	0
ARM GAS  C:\Users\pasan savindu\AppData\Local\Temp\ccY2T3Z5.s 			page 170


 8531 0103 00000000 		.4byte	0
 8532              	.LLST8:
 8533 0107 06000000 		.4byte	.LVL122
 8534 010b 0A000000 		.4byte	.LVL123
 8535 010f 0200     		.2byte	0x2
 8536 0111 30       		.byte	0x30
 8537 0112 9F       		.byte	0x9f
 8538 0113 0A000000 		.4byte	.LVL123
 8539 0117 20000000 		.4byte	.LVL126
 8540 011b 0100     		.2byte	0x1
 8541 011d 54       		.byte	0x54
 8542 011e 20000000 		.4byte	.LVL126
 8543 0122 22000000 		.4byte	.LVL127
 8544 0126 0200     		.2byte	0x2
 8545 0128 31       		.byte	0x31
 8546 0129 9F       		.byte	0x9f
 8547 012a 22000000 		.4byte	.LVL127
 8548 012e 58000000 		.4byte	.LVL132
 8549 0132 0100     		.2byte	0x1
 8550 0134 54       		.byte	0x54
 8551 0135 60000000 		.4byte	.LVL133
 8552 0139 62000000 		.4byte	.LVL134
 8553 013d 0200     		.2byte	0x2
 8554 013f 30       		.byte	0x30
 8555 0140 9F       		.byte	0x9f
 8556 0141 62000000 		.4byte	.LVL134
 8557 0145 84000000 		.4byte	.LVL137
 8558 0149 0100     		.2byte	0x1
 8559 014b 54       		.byte	0x54
 8560 014c 8C000000 		.4byte	.LVL138
 8561 0150 92000000 		.4byte	.LVL139
 8562 0154 0100     		.2byte	0x1
 8563 0156 54       		.byte	0x54
 8564 0157 00000000 		.4byte	0
 8565 015b 00000000 		.4byte	0
 8566              	.LLST9:
 8567 015f 00000000 		.4byte	.LVL140
 8568 0163 0A000000 		.4byte	.LVL142
 8569 0167 0100     		.2byte	0x1
 8570 0169 50       		.byte	0x50
 8571 016a 0A000000 		.4byte	.LVL142
 8572 016e 8C000000 		.4byte	.LFE75
 8573 0172 0400     		.2byte	0x4
 8574 0174 F3       		.byte	0xf3
 8575 0175 01       		.uleb128 0x1
 8576 0176 50       		.byte	0x50
 8577 0177 9F       		.byte	0x9f
 8578 0178 00000000 		.4byte	0
 8579 017c 00000000 		.4byte	0
 8580              	.LLST10:
 8581 0180 00000000 		.4byte	.LVL140
 8582 0184 0A000000 		.4byte	.LVL142
 8583 0188 0100     		.2byte	0x1
 8584 018a 51       		.byte	0x51
 8585 018b 0A000000 		.4byte	.LVL142
 8586 018f 84000000 		.4byte	.LVL158
 8587 0193 0100     		.2byte	0x1
ARM GAS  C:\Users\pasan savindu\AppData\Local\Temp\ccY2T3Z5.s 			page 171


 8588 0195 56       		.byte	0x56
 8589 0196 84000000 		.4byte	.LVL158
 8590 019a 8C000000 		.4byte	.LFE75
 8591 019e 0400     		.2byte	0x4
 8592 01a0 F3       		.byte	0xf3
 8593 01a1 01       		.uleb128 0x1
 8594 01a2 51       		.byte	0x51
 8595 01a3 9F       		.byte	0x9f
 8596 01a4 00000000 		.4byte	0
 8597 01a8 00000000 		.4byte	0
 8598              	.LLST11:
 8599 01ac 06000000 		.4byte	.LVL141
 8600 01b0 0A000000 		.4byte	.LVL142
 8601 01b4 0200     		.2byte	0x2
 8602 01b6 30       		.byte	0x30
 8603 01b7 9F       		.byte	0x9f
 8604 01b8 0A000000 		.4byte	.LVL142
 8605 01bc 20000000 		.4byte	.LVL145
 8606 01c0 0100     		.2byte	0x1
 8607 01c2 54       		.byte	0x54
 8608 01c3 20000000 		.4byte	.LVL145
 8609 01c7 22000000 		.4byte	.LVL146
 8610 01cb 0200     		.2byte	0x2
 8611 01cd 31       		.byte	0x31
 8612 01ce 9F       		.byte	0x9f
 8613 01cf 22000000 		.4byte	.LVL146
 8614 01d3 50000000 		.4byte	.LVL151
 8615 01d7 0100     		.2byte	0x1
 8616 01d9 54       		.byte	0x54
 8617 01da 58000000 		.4byte	.LVL152
 8618 01de 5A000000 		.4byte	.LVL153
 8619 01e2 0200     		.2byte	0x2
 8620 01e4 30       		.byte	0x30
 8621 01e5 9F       		.byte	0x9f
 8622 01e6 5A000000 		.4byte	.LVL153
 8623 01ea 76000000 		.4byte	.LVL156
 8624 01ee 0100     		.2byte	0x1
 8625 01f0 54       		.byte	0x54
 8626 01f1 7E000000 		.4byte	.LVL157
 8627 01f5 84000000 		.4byte	.LVL158
 8628 01f9 0100     		.2byte	0x1
 8629 01fb 54       		.byte	0x54
 8630 01fc 00000000 		.4byte	0
 8631 0200 00000000 		.4byte	0
 8632              	.LLST12:
 8633 0204 02000000 		.4byte	.LVL159
 8634 0208 06000000 		.4byte	.LVL160
 8635 020c 0200     		.2byte	0x2
 8636 020e 30       		.byte	0x30
 8637 020f 9F       		.byte	0x9f
 8638 0210 06000000 		.4byte	.LVL160
 8639 0214 6A000000 		.4byte	.LVL174
 8640 0218 0100     		.2byte	0x1
 8641 021a 54       		.byte	0x54
 8642 021b 6A000000 		.4byte	.LVL174
 8643 021f 6C000000 		.4byte	.LVL175
 8644 0223 0200     		.2byte	0x2
ARM GAS  C:\Users\pasan savindu\AppData\Local\Temp\ccY2T3Z5.s 			page 172


 8645 0225 31       		.byte	0x31
 8646 0226 9F       		.byte	0x9f
 8647 0227 6C000000 		.4byte	.LVL175
 8648 022b 72000000 		.4byte	.LFE76
 8649 022f 0100     		.2byte	0x1
 8650 0231 54       		.byte	0x54
 8651 0232 00000000 		.4byte	0
 8652 0236 00000000 		.4byte	0
 8653              	.LLST13:
 8654 023a 00000000 		.4byte	.LVL176
 8655 023e 10000000 		.4byte	.LVL178
 8656 0242 0100     		.2byte	0x1
 8657 0244 50       		.byte	0x50
 8658 0245 10000000 		.4byte	.LVL178
 8659 0249 B4000000 		.4byte	.LFE77
 8660 024d 0400     		.2byte	0x4
 8661 024f F3       		.byte	0xf3
 8662 0250 01       		.uleb128 0x1
 8663 0251 50       		.byte	0x50
 8664 0252 9F       		.byte	0x9f
 8665 0253 00000000 		.4byte	0
 8666 0257 00000000 		.4byte	0
 8667              	.LLST14:
 8668 025b 0C000000 		.4byte	.LVL177
 8669 025f 10000000 		.4byte	.LVL178
 8670 0263 0200     		.2byte	0x2
 8671 0265 30       		.byte	0x30
 8672 0266 9F       		.byte	0x9f
 8673 0267 10000000 		.4byte	.LVL178
 8674 026b 46000000 		.4byte	.LVL184
 8675 026f 0100     		.2byte	0x1
 8676 0271 55       		.byte	0x55
 8677 0272 46000000 		.4byte	.LVL184
 8678 0276 48000000 		.4byte	.LVL185
 8679 027a 0200     		.2byte	0x2
 8680 027c 31       		.byte	0x31
 8681 027d 9F       		.byte	0x9f
 8682 027e 48000000 		.4byte	.LVL185
 8683 0282 8C000000 		.4byte	.LVL192
 8684 0286 0100     		.2byte	0x1
 8685 0288 55       		.byte	0x55
 8686 0289 8C000000 		.4byte	.LVL192
 8687 028d 8E000000 		.4byte	.LVL193
 8688 0291 0200     		.2byte	0x2
 8689 0293 31       		.byte	0x31
 8690 0294 9F       		.byte	0x9f
 8691 0295 8E000000 		.4byte	.LVL193
 8692 0299 AA000000 		.4byte	.LVL195
 8693 029d 0100     		.2byte	0x1
 8694 029f 55       		.byte	0x55
 8695 02a0 00000000 		.4byte	0
 8696 02a4 00000000 		.4byte	0
 8697              	.LLST15:
 8698 02a8 00000000 		.4byte	.LVL222
 8699 02ac 10000000 		.4byte	.LVL223
 8700 02b0 0100     		.2byte	0x1
 8701 02b2 50       		.byte	0x50
ARM GAS  C:\Users\pasan savindu\AppData\Local\Temp\ccY2T3Z5.s 			page 173


 8702 02b3 10000000 		.4byte	.LVL223
 8703 02b7 1C000000 		.4byte	.LVL226
 8704 02bb 0400     		.2byte	0x4
 8705 02bd F3       		.byte	0xf3
 8706 02be 01       		.uleb128 0x1
 8707 02bf 50       		.byte	0x50
 8708 02c0 9F       		.byte	0x9f
 8709 02c1 1C000000 		.4byte	.LVL226
 8710 02c5 1E000000 		.4byte	.LVL227
 8711 02c9 0100     		.2byte	0x1
 8712 02cb 50       		.byte	0x50
 8713 02cc 1E000000 		.4byte	.LVL227
 8714 02d0 2A000000 		.4byte	.LVL230
 8715 02d4 0400     		.2byte	0x4
 8716 02d6 F3       		.byte	0xf3
 8717 02d7 01       		.uleb128 0x1
 8718 02d8 50       		.byte	0x50
 8719 02d9 9F       		.byte	0x9f
 8720 02da 2A000000 		.4byte	.LVL230
 8721 02de 2C000000 		.4byte	.LVL231
 8722 02e2 0100     		.2byte	0x1
 8723 02e4 50       		.byte	0x50
 8724 02e5 2C000000 		.4byte	.LVL231
 8725 02e9 38000000 		.4byte	.LVL234
 8726 02ed 0400     		.2byte	0x4
 8727 02ef F3       		.byte	0xf3
 8728 02f0 01       		.uleb128 0x1
 8729 02f1 50       		.byte	0x50
 8730 02f2 9F       		.byte	0x9f
 8731 02f3 38000000 		.4byte	.LVL234
 8732 02f7 3A000000 		.4byte	.LVL235
 8733 02fb 0100     		.2byte	0x1
 8734 02fd 50       		.byte	0x50
 8735 02fe 3A000000 		.4byte	.LVL235
 8736 0302 46000000 		.4byte	.LFE81
 8737 0306 0400     		.2byte	0x4
 8738 0308 F3       		.byte	0xf3
 8739 0309 01       		.uleb128 0x1
 8740 030a 50       		.byte	0x50
 8741 030b 9F       		.byte	0x9f
 8742 030c 00000000 		.4byte	0
 8743 0310 00000000 		.4byte	0
 8744              	.LLST16:
 8745 0314 00000000 		.4byte	.LVL238
 8746 0318 05000000 		.4byte	.LVL239-1
 8747 031c 0100     		.2byte	0x1
 8748 031e 50       		.byte	0x50
 8749 031f 05000000 		.4byte	.LVL239-1
 8750 0323 28000000 		.4byte	.LFE80
 8751 0327 0400     		.2byte	0x4
 8752 0329 F3       		.byte	0xf3
 8753 032a 01       		.uleb128 0x1
 8754 032b 50       		.byte	0x50
 8755 032c 9F       		.byte	0x9f
 8756 032d 00000000 		.4byte	0
 8757 0331 00000000 		.4byte	0
 8758              	.LLST17:
ARM GAS  C:\Users\pasan savindu\AppData\Local\Temp\ccY2T3Z5.s 			page 174


 8759 0335 04000000 		.4byte	.LVL243
 8760 0339 08000000 		.4byte	.LVL244
 8761 033d 0200     		.2byte	0x2
 8762 033f 30       		.byte	0x30
 8763 0340 9F       		.byte	0x9f
 8764 0341 0E000000 		.4byte	.LVL245
 8765 0345 1A000000 		.4byte	.LVL246
 8766 0349 0100     		.2byte	0x1
 8767 034b 50       		.byte	0x50
 8768 034c 00000000 		.4byte	0
 8769 0350 00000000 		.4byte	0
 8770              	.LLST18:
 8771 0354 04000000 		.4byte	.LVL243
 8772 0358 08000000 		.4byte	.LVL244
 8773 035c 0200     		.2byte	0x2
 8774 035e 30       		.byte	0x30
 8775 035f 9F       		.byte	0x9f
 8776 0360 08000000 		.4byte	.LVL244
 8777 0364 44000000 		.4byte	.LFE79
 8778 0368 0100     		.2byte	0x1
 8779 036a 54       		.byte	0x54
 8780 036b 00000000 		.4byte	0
 8781 036f 00000000 		.4byte	0
 8782              	.LLST19:
 8783 0373 96000000 		.4byte	.LVL270
 8784 0377 B8000000 		.4byte	.LVL275
 8785 037b 0100     		.2byte	0x1
 8786 037d 54       		.byte	0x54
 8787 037e 00000000 		.4byte	0
 8788 0382 00000000 		.4byte	0
 8789              	.LLST20:
 8790 0386 9A000000 		.4byte	.LVL271
 8791 038a 9F000000 		.4byte	.LVL272-1
 8792 038e 0100     		.2byte	0x1
 8793 0390 50       		.byte	0x50
 8794 0391 9F000000 		.4byte	.LVL272-1
 8795 0395 BA000000 		.4byte	.LVL276
 8796 0399 0800     		.2byte	0x8
 8797 039b 77       		.byte	0x77
 8798 039c 00       		.sleb128 0
 8799 039d 38       		.byte	0x38
 8800 039e 24       		.byte	0x24
 8801 039f 75       		.byte	0x75
 8802 03a0 00       		.sleb128 0
 8803 03a1 21       		.byte	0x21
 8804 03a2 9F       		.byte	0x9f
 8805 03a3 00000000 		.4byte	0
 8806 03a7 00000000 		.4byte	0
 8807              	.LLST21:
 8808 03ab BA000000 		.4byte	.LVL276
 8809 03af D6000000 		.4byte	.LVL279
 8810 03b3 0600     		.2byte	0x6
 8811 03b5 54       		.byte	0x54
 8812 03b6 93       		.byte	0x93
 8813 03b7 04       		.uleb128 0x4
 8814 03b8 55       		.byte	0x55
 8815 03b9 93       		.byte	0x93
ARM GAS  C:\Users\pasan savindu\AppData\Local\Temp\ccY2T3Z5.s 			page 175


 8816 03ba 04       		.uleb128 0x4
 8817 03bb D8000000 		.4byte	.LVL280
 8818 03bf F8000000 		.4byte	.LVL283
 8819 03c3 0600     		.2byte	0x6
 8820 03c5 54       		.byte	0x54
 8821 03c6 93       		.byte	0x93
 8822 03c7 04       		.uleb128 0x4
 8823 03c8 55       		.byte	0x55
 8824 03c9 93       		.byte	0x93
 8825 03ca 04       		.uleb128 0x4
 8826 03cb FA000000 		.4byte	.LVL284
 8827 03cf 0A010000 		.4byte	.LVL286
 8828 03d3 0600     		.2byte	0x6
 8829 03d5 54       		.byte	0x54
 8830 03d6 93       		.byte	0x93
 8831 03d7 04       		.uleb128 0x4
 8832 03d8 55       		.byte	0x55
 8833 03d9 93       		.byte	0x93
 8834 03da 04       		.uleb128 0x4
 8835 03db 0C010000 		.4byte	.LVL287
 8836 03df B2010000 		.4byte	.LVL304
 8837 03e3 0600     		.2byte	0x6
 8838 03e5 54       		.byte	0x54
 8839 03e6 93       		.byte	0x93
 8840 03e7 04       		.uleb128 0x4
 8841 03e8 55       		.byte	0x55
 8842 03e9 93       		.byte	0x93
 8843 03ea 04       		.uleb128 0x4
 8844 03eb 00000000 		.4byte	0
 8845 03ef 00000000 		.4byte	0
 8846              	.LLST22:
 8847 03f3 04000000 		.4byte	.LVL247
 8848 03f7 44000000 		.4byte	.LVL258
 8849 03fb 0200     		.2byte	0x2
 8850 03fd 30       		.byte	0x30
 8851 03fe 9F       		.byte	0x9f
 8852 03ff 44000000 		.4byte	.LVL258
 8853 0403 B0010000 		.4byte	.LVL303
 8854 0407 0100     		.2byte	0x1
 8855 0409 56       		.byte	0x56
 8856 040a B0010000 		.4byte	.LVL303
 8857 040e B2010000 		.4byte	.LVL304
 8858 0412 0200     		.2byte	0x2
 8859 0414 31       		.byte	0x31
 8860 0415 9F       		.byte	0x9f
 8861 0416 B2010000 		.4byte	.LVL304
 8862 041a BC010000 		.4byte	.LVL305
 8863 041e 0100     		.2byte	0x1
 8864 0420 56       		.byte	0x56
 8865 0421 00000000 		.4byte	0
 8866 0425 00000000 		.4byte	0
 8867              	.LLST23:
 8868 0429 00000000 		.4byte	.LVL306
 8869 042d 0C000000 		.4byte	.LVL307
 8870 0431 0100     		.2byte	0x1
 8871 0433 50       		.byte	0x50
 8872 0434 0C000000 		.4byte	.LVL307
ARM GAS  C:\Users\pasan savindu\AppData\Local\Temp\ccY2T3Z5.s 			page 176


 8873 0438 30000000 		.4byte	.LVL312
 8874 043c 0400     		.2byte	0x4
 8875 043e F3       		.byte	0xf3
 8876 043f 01       		.uleb128 0x1
 8877 0440 50       		.byte	0x50
 8878 0441 9F       		.byte	0x9f
 8879 0442 30000000 		.4byte	.LVL312
 8880 0446 3A000000 		.4byte	.LVL313
 8881 044a 0100     		.2byte	0x1
 8882 044c 50       		.byte	0x50
 8883 044d 3A000000 		.4byte	.LVL313
 8884 0451 6C000000 		.4byte	.LFE83
 8885 0455 0400     		.2byte	0x4
 8886 0457 F3       		.byte	0xf3
 8887 0458 01       		.uleb128 0x1
 8888 0459 50       		.byte	0x50
 8889 045a 9F       		.byte	0x9f
 8890 045b 00000000 		.4byte	0
 8891 045f 00000000 		.4byte	0
 8892              	.LLST24:
 8893 0463 4E000000 		.4byte	.LVL325
 8894 0467 50000000 		.4byte	.LVL326
 8895 046b 0200     		.2byte	0x2
 8896 046d 30       		.byte	0x30
 8897 046e 9F       		.byte	0x9f
 8898 046f 8A000000 		.4byte	.LVL329
 8899 0473 93000000 		.4byte	.LVL330-1
 8900 0477 0500     		.2byte	0x5
 8901 0479 03       		.byte	0x3
 8902 047a 00000000 		.4byte	countL
 8903 047e 90010000 		.4byte	.LVL348
 8904 0482 99010000 		.4byte	.LVL349-1
 8905 0486 0500     		.2byte	0x5
 8906 0488 03       		.byte	0x3
 8907 0489 00000000 		.4byte	countL
 8908 048d 00000000 		.4byte	0
 8909 0491 00000000 		.4byte	0
 8910              	.LLST25:
 8911 0495 4E000000 		.4byte	.LVL325
 8912 0499 50000000 		.4byte	.LVL326
 8913 049d 0200     		.2byte	0x2
 8914 049f 30       		.byte	0x30
 8915 04a0 9F       		.byte	0x9f
 8916 04a1 50000000 		.4byte	.LVL326
 8917 04a5 6E010000 		.4byte	.LVL343
 8918 04a9 0100     		.2byte	0x1
 8919 04ab 54       		.byte	0x54
 8920 04ac 70010000 		.4byte	.LVL344
 8921 04b0 72010000 		.4byte	.LVL345
 8922 04b4 0100     		.2byte	0x1
 8923 04b6 54       		.byte	0x54
 8924 04b7 74010000 		.4byte	.LVL346
 8925 04bb 7E020000 		.4byte	.LVL363
 8926 04bf 0100     		.2byte	0x1
 8927 04c1 54       		.byte	0x54
 8928 04c2 7E020000 		.4byte	.LVL363
 8929 04c6 94020000 		.4byte	.LVL365
ARM GAS  C:\Users\pasan savindu\AppData\Local\Temp\ccY2T3Z5.s 			page 177


 8930 04ca 0200     		.2byte	0x2
 8931 04cc 31       		.byte	0x31
 8932 04cd 9F       		.byte	0x9f
 8933 04ce 94020000 		.4byte	.LVL365
 8934 04d2 22030000 		.4byte	.LVL386
 8935 04d6 0100     		.2byte	0x1
 8936 04d8 54       		.byte	0x54
 8937 04d9 00000000 		.4byte	0
 8938 04dd 00000000 		.4byte	0
 8939              	.LLST26:
 8940 04e1 00000000 		.4byte	.LVL391
 8941 04e5 20000000 		.4byte	.LVL393
 8942 04e9 0100     		.2byte	0x1
 8943 04eb 50       		.byte	0x50
 8944 04ec 20000000 		.4byte	.LVL393
 8945 04f0 26000000 		.4byte	.LVL395
 8946 04f4 0100     		.2byte	0x1
 8947 04f6 54       		.byte	0x54
 8948 04f7 26000000 		.4byte	.LVL395
 8949 04fb 30000000 		.4byte	.LVL396
 8950 04ff 0100     		.2byte	0x1
 8951 0501 50       		.byte	0x50
 8952 0502 30000000 		.4byte	.LVL396
 8953 0506 68000000 		.4byte	.LVL402
 8954 050a 0100     		.2byte	0x1
 8955 050c 54       		.byte	0x54
 8956 050d 68000000 		.4byte	.LVL402
 8957 0511 EC000000 		.4byte	.LFE86
 8958 0515 0400     		.2byte	0x4
 8959 0517 F3       		.byte	0xf3
 8960 0518 01       		.uleb128 0x1
 8961 0519 50       		.byte	0x50
 8962 051a 9F       		.byte	0x9f
 8963 051b 00000000 		.4byte	0
 8964 051f 00000000 		.4byte	0
 8965              	.LLST27:
 8966 0523 04000000 		.4byte	.LVL392
 8967 0527 6A000000 		.4byte	.LVL403
 8968 052b 0200     		.2byte	0x2
 8969 052d 30       		.byte	0x30
 8970 052e 9F       		.byte	0x9f
 8971 052f 6A000000 		.4byte	.LVL403
 8972 0533 8E000000 		.4byte	.LVL405
 8973 0537 0100     		.2byte	0x1
 8974 0539 54       		.byte	0x54
 8975 053a 8E000000 		.4byte	.LVL405
 8976 053e 92000000 		.4byte	.LVL406
 8977 0542 0200     		.2byte	0x2
 8978 0544 31       		.byte	0x31
 8979 0545 9F       		.byte	0x9f
 8980 0546 92000000 		.4byte	.LVL406
 8981 054a E2000000 		.4byte	.LVL417
 8982 054e 0100     		.2byte	0x1
 8983 0550 54       		.byte	0x54
 8984 0551 00000000 		.4byte	0
 8985 0555 00000000 		.4byte	0
 8986              	.LLST28:
ARM GAS  C:\Users\pasan savindu\AppData\Local\Temp\ccY2T3Z5.s 			page 178


 8987 0559 08000000 		.4byte	.LVL419
 8988 055d 0C000000 		.4byte	.LVL420
 8989 0561 0100     		.2byte	0x1
 8990 0563 50       		.byte	0x50
 8991 0564 0C000000 		.4byte	.LVL420
 8992 0568 B4000000 		.4byte	.LVL440
 8993 056c 0100     		.2byte	0x1
 8994 056e 54       		.byte	0x54
 8995 056f 00000000 		.4byte	0
 8996 0573 00000000 		.4byte	0
 8997              	.LLST29:
 8998 0577 00000000 		.4byte	.LVL441
 8999 057b 20000000 		.4byte	.LVL444
 9000 057f 0100     		.2byte	0x1
 9001 0581 50       		.byte	0x50
 9002 0582 20000000 		.4byte	.LVL444
 9003 0586 68000000 		.4byte	.LVL452
 9004 058a 0100     		.2byte	0x1
 9005 058c 54       		.byte	0x54
 9006 058d 68000000 		.4byte	.LVL452
 9007 0591 6A000000 		.4byte	.LVL453
 9008 0595 0100     		.2byte	0x1
 9009 0597 50       		.byte	0x50
 9010 0598 6A000000 		.4byte	.LVL453
 9011 059c E0000000 		.4byte	.LVL463
 9012 05a0 0100     		.2byte	0x1
 9013 05a2 54       		.byte	0x54
 9014 05a3 E0000000 		.4byte	.LVL463
 9015 05a7 EC000000 		.4byte	.LFE88
 9016 05ab 0400     		.2byte	0x4
 9017 05ad F3       		.byte	0xf3
 9018 05ae 01       		.uleb128 0x1
 9019 05af 50       		.byte	0x50
 9020 05b0 9F       		.byte	0x9f
 9021 05b1 00000000 		.4byte	0
 9022 05b5 00000000 		.4byte	0
 9023              	.LLST30:
 9024 05b9 00000000 		.4byte	.LVL441
 9025 05bd 04000000 		.4byte	.LVL442
 9026 05c1 0100     		.2byte	0x1
 9027 05c3 51       		.byte	0x51
 9028 05c4 04000000 		.4byte	.LVL442
 9029 05c8 1E000000 		.4byte	.LVL443
 9030 05cc 0300     		.2byte	0x3
 9031 05ce 71       		.byte	0x71
 9032 05cf 01       		.sleb128 1
 9033 05d0 9F       		.byte	0x9f
 9034 05d1 1E000000 		.4byte	.LVL443
 9035 05d5 68000000 		.4byte	.LVL452
 9036 05d9 0600     		.2byte	0x6
 9037 05db F3       		.byte	0xf3
 9038 05dc 01       		.uleb128 0x1
 9039 05dd 51       		.byte	0x51
 9040 05de 23       		.byte	0x23
 9041 05df 01       		.uleb128 0x1
 9042 05e0 9F       		.byte	0x9f
 9043 05e1 68000000 		.4byte	.LVL452
ARM GAS  C:\Users\pasan savindu\AppData\Local\Temp\ccY2T3Z5.s 			page 179


 9044 05e5 6A000000 		.4byte	.LVL453
 9045 05e9 0300     		.2byte	0x3
 9046 05eb 71       		.byte	0x71
 9047 05ec 01       		.sleb128 1
 9048 05ed 9F       		.byte	0x9f
 9049 05ee 6A000000 		.4byte	.LVL453
 9050 05f2 EC000000 		.4byte	.LFE88
 9051 05f6 0600     		.2byte	0x6
 9052 05f8 F3       		.byte	0xf3
 9053 05f9 01       		.uleb128 0x1
 9054 05fa 51       		.byte	0x51
 9055 05fb 23       		.byte	0x23
 9056 05fc 01       		.uleb128 0x1
 9057 05fd 9F       		.byte	0x9f
 9058 05fe 00000000 		.4byte	0
 9059 0602 00000000 		.4byte	0
 9060              	.LLST31:
 9061 0606 04000000 		.4byte	.LVL442
 9062 060a 36000000 		.4byte	.LVL447
 9063 060e 0200     		.2byte	0x2
 9064 0610 30       		.byte	0x30
 9065 0611 9F       		.byte	0x9f
 9066 0612 36000000 		.4byte	.LVL447
 9067 0616 68000000 		.4byte	.LVL452
 9068 061a 0400     		.2byte	0x4
 9069 061c 0A       		.byte	0xa
 9070 061d 409C     		.2byte	0x9c40
 9071 061f 9F       		.byte	0x9f
 9072 0620 68000000 		.4byte	.LVL452
 9073 0624 6A000000 		.4byte	.LVL453
 9074 0628 0200     		.2byte	0x2
 9075 062a 30       		.byte	0x30
 9076 062b 9F       		.byte	0x9f
 9077 062c 6A000000 		.4byte	.LVL453
 9078 0630 E0000000 		.4byte	.LVL463
 9079 0634 0100     		.2byte	0x1
 9080 0636 55       		.byte	0x55
 9081 0637 00000000 		.4byte	0
 9082 063b 00000000 		.4byte	0
 9083              	.LLST32:
 9084 063f 08000000 		.4byte	.LVL464
 9085 0643 26000000 		.4byte	.LVL467
 9086 0647 0200     		.2byte	0x2
 9087 0649 30       		.byte	0x30
 9088 064a 9F       		.byte	0x9f
 9089 064b 26000000 		.4byte	.LVL467
 9090 064f 7C000000 		.4byte	.LFE71
 9091 0653 0100     		.2byte	0x1
 9092 0655 54       		.byte	0x54
 9093 0656 00000000 		.4byte	0
 9094 065a 00000000 		.4byte	0
 9095              		.section	.debug_aranges,"",%progbits
 9096 0000 DC000000 		.4byte	0xdc
 9097 0004 0200     		.2byte	0x2
 9098 0006 00000000 		.4byte	.Ldebug_info0
 9099 000a 04       		.byte	0x4
 9100 000b 00       		.byte	0
ARM GAS  C:\Users\pasan savindu\AppData\Local\Temp\ccY2T3Z5.s 			page 180


 9101 000c 0000     		.2byte	0
 9102 000e 0000     		.2byte	0
 9103 0010 00000000 		.4byte	.LFB64
 9104 0014 60000000 		.4byte	.LFE64-.LFB64
 9105 0018 00000000 		.4byte	.LFB65
 9106 001c 60000000 		.4byte	.LFE65-.LFB65
 9107 0020 00000000 		.4byte	.LFB66
 9108 0024 60000000 		.4byte	.LFE66-.LFB66
 9109 0028 00000000 		.4byte	.LFB67
 9110 002c 60000000 		.4byte	.LFE67-.LFB67
 9111 0030 00000000 		.4byte	.LFB69
 9112 0034 2C000000 		.4byte	.LFE69-.LFB69
 9113 0038 00000000 		.4byte	.LFB68
 9114 003c 2C000000 		.4byte	.LFE68-.LFB68
 9115 0040 00000000 		.4byte	.LFB72
 9116 0044 8C000000 		.4byte	.LFE72-.LFB72
 9117 0048 00000000 		.4byte	.LFB73
 9118 004c 20020000 		.4byte	.LFE73-.LFB73
 9119 0050 00000000 		.4byte	.LFB74
 9120 0054 9C000000 		.4byte	.LFE74-.LFB74
 9121 0058 00000000 		.4byte	.LFB75
 9122 005c 8C000000 		.4byte	.LFE75-.LFB75
 9123 0060 00000000 		.4byte	.LFB76
 9124 0064 72000000 		.4byte	.LFE76-.LFB76
 9125 0068 00000000 		.4byte	.LFB77
 9126 006c B4000000 		.4byte	.LFE77-.LFB77
 9127 0070 00000000 		.4byte	.LFB78
 9128 0074 38000000 		.4byte	.LFE78-.LFB78
 9129 0078 00000000 		.4byte	.LFB70
 9130 007c 74000000 		.4byte	.LFE70-.LFB70
 9131 0080 00000000 		.4byte	.LFB81
 9132 0084 46000000 		.4byte	.LFE81-.LFB81
 9133 0088 00000000 		.4byte	.LFB80
 9134 008c 28000000 		.4byte	.LFE80-.LFB80
 9135 0090 00000000 		.4byte	.LFB79
 9136 0094 44000000 		.4byte	.LFE79-.LFB79
 9137 0098 00000000 		.4byte	.LFB82
 9138 009c E8010000 		.4byte	.LFE82-.LFB82
 9139 00a0 00000000 		.4byte	.LFB83
 9140 00a4 6C000000 		.4byte	.LFE83-.LFB83
 9141 00a8 00000000 		.4byte	.LFB84
 9142 00ac 40030000 		.4byte	.LFE84-.LFB84
 9143 00b0 00000000 		.4byte	.LFB85
 9144 00b4 30000000 		.4byte	.LFE85-.LFB85
 9145 00b8 00000000 		.4byte	.LFB86
 9146 00bc EC000000 		.4byte	.LFE86-.LFB86
 9147 00c0 00000000 		.4byte	.LFB87
 9148 00c4 B8000000 		.4byte	.LFE87-.LFB87
 9149 00c8 00000000 		.4byte	.LFB88
 9150 00cc EC000000 		.4byte	.LFE88-.LFB88
 9151 00d0 00000000 		.4byte	.LFB71
 9152 00d4 7C000000 		.4byte	.LFE71-.LFB71
 9153 00d8 00000000 		.4byte	0
 9154 00dc 00000000 		.4byte	0
 9155              		.section	.debug_ranges,"",%progbits
 9156              	.Ldebug_ranges0:
 9157 0000 00000000 		.4byte	.LFB64
ARM GAS  C:\Users\pasan savindu\AppData\Local\Temp\ccY2T3Z5.s 			page 181


 9158 0004 60000000 		.4byte	.LFE64
 9159 0008 00000000 		.4byte	.LFB65
 9160 000c 60000000 		.4byte	.LFE65
 9161 0010 00000000 		.4byte	.LFB66
 9162 0014 60000000 		.4byte	.LFE66
 9163 0018 00000000 		.4byte	.LFB67
 9164 001c 60000000 		.4byte	.LFE67
 9165 0020 00000000 		.4byte	.LFB69
 9166 0024 2C000000 		.4byte	.LFE69
 9167 0028 00000000 		.4byte	.LFB68
 9168 002c 2C000000 		.4byte	.LFE68
 9169 0030 00000000 		.4byte	.LFB72
 9170 0034 8C000000 		.4byte	.LFE72
 9171 0038 00000000 		.4byte	.LFB73
 9172 003c 20020000 		.4byte	.LFE73
 9173 0040 00000000 		.4byte	.LFB74
 9174 0044 9C000000 		.4byte	.LFE74
 9175 0048 00000000 		.4byte	.LFB75
 9176 004c 8C000000 		.4byte	.LFE75
 9177 0050 00000000 		.4byte	.LFB76
 9178 0054 72000000 		.4byte	.LFE76
 9179 0058 00000000 		.4byte	.LFB77
 9180 005c B4000000 		.4byte	.LFE77
 9181 0060 00000000 		.4byte	.LFB78
 9182 0064 38000000 		.4byte	.LFE78
 9183 0068 00000000 		.4byte	.LFB70
 9184 006c 74000000 		.4byte	.LFE70
 9185 0070 00000000 		.4byte	.LFB81
 9186 0074 46000000 		.4byte	.LFE81
 9187 0078 00000000 		.4byte	.LFB80
 9188 007c 28000000 		.4byte	.LFE80
 9189 0080 00000000 		.4byte	.LFB79
 9190 0084 44000000 		.4byte	.LFE79
 9191 0088 00000000 		.4byte	.LFB82
 9192 008c E8010000 		.4byte	.LFE82
 9193 0090 00000000 		.4byte	.LFB83
 9194 0094 6C000000 		.4byte	.LFE83
 9195 0098 00000000 		.4byte	.LFB84
 9196 009c 40030000 		.4byte	.LFE84
 9197 00a0 00000000 		.4byte	.LFB85
 9198 00a4 30000000 		.4byte	.LFE85
 9199 00a8 00000000 		.4byte	.LFB86
 9200 00ac EC000000 		.4byte	.LFE86
 9201 00b0 00000000 		.4byte	.LFB87
 9202 00b4 B8000000 		.4byte	.LFE87
 9203 00b8 00000000 		.4byte	.LFB88
 9204 00bc EC000000 		.4byte	.LFE88
 9205 00c0 00000000 		.4byte	.LFB71
 9206 00c4 7C000000 		.4byte	.LFE71
 9207 00c8 00000000 		.4byte	0
 9208 00cc 00000000 		.4byte	0
 9209              		.section	.debug_line,"",%progbits
 9210              	.Ldebug_line0:
 9211 0000 E1080000 		.section	.debug_str,"MS",%progbits,1
 9211      02004004 
 9211      00000201 
 9211      FB0E0D00 
ARM GAS  C:\Users\pasan savindu\AppData\Local\Temp\ccY2T3Z5.s 			page 182


 9211      01010101 
 9212              	.LASF35:
 9213 0000 64697265 		.ascii	"direction\000"
 9213      6374696F 
 9213      6E00
 9214              	.LASF112:
 9215 000a 43794465 		.ascii	"CyDelay\000"
 9215      6C617900 
 9216              	.LASF102:
 9217 0012 466F7277 		.ascii	"Forward_L_Write\000"
 9217      6172645F 
 9217      4C5F5772 
 9217      69746500 
 9218              	.LASF159:
 9219 0022 6D61696E 		.ascii	"main.c\000"
 9219      2E6300
 9220              	.LASF107:
 9221 0029 50574D5F 		.ascii	"PWM_Motor_WriteCompare2\000"
 9221      4D6F746F 
 9221      725F5772 
 9221      69746543 
 9221      6F6D7061 
 9222              	.LASF27:
 9223 0041 53345F68 		.ascii	"S4_handler\000"
 9223      616E646C 
 9223      657200
 9224              	.LASF69:
 9225 004c 73706565 		.ascii	"speedL\000"
 9225      644C00
 9226              	.LASF131:
 9227 0053 6973725F 		.ascii	"isr_1_StartEx\000"
 9227      315F5374 
 9227      61727445 
 9227      7800
 9228              	.LASF70:
 9229 0061 73706565 		.ascii	"speedR\000"
 9229      645200
 9230              	.LASF82:
 9231 0068 73747269 		.ascii	"string1\000"
 9231      6E673100 
 9232              	.LASF155:
 9233 0070 5245445F 		.ascii	"RED_LED_Write\000"
 9233      4C45445F 
 9233      57726974 
 9233      6500
 9234              	.LASF10:
 9235 007e 756E7369 		.ascii	"unsigned int\000"
 9235      676E6564 
 9235      20696E74 
 9235      00
 9236              	.LASF138:
 9237 008b 526F626F 		.ascii	"RobotArm_Servo_WriteCompare1\000"
 9237      7441726D 
 9237      5F536572 
 9237      766F5F57 
 9237      72697465 
 9238              	.LASF137:
ARM GAS  C:\Users\pasan savindu\AppData\Local\Temp\ccY2T3Z5.s 			page 183


 9239 00a8 526F626F 		.ascii	"RobotArm_Servo_WriteCompare2\000"
 9239      7441726D 
 9239      5F536572 
 9239      766F5F57 
 9239      72697465 
 9240              	.LASF152:
 9241 00c5 53315F45 		.ascii	"S1_Echo_Read\000"
 9241      63686F5F 
 9241      52656164 
 9241      00
 9242              	.LASF5:
 9243 00d2 5F5F696E 		.ascii	"__int32_t\000"
 9243      7433325F 
 9243      7400
 9244              	.LASF14:
 9245 00dc 696E7431 		.ascii	"int16\000"
 9245      3600
 9246              	.LASF84:
 9247 00e2 53315F54 		.ascii	"S1_Timer_ReadStatusRegister\000"
 9247      696D6572 
 9247      5F526561 
 9247      64537461 
 9247      74757352 
 9248              	.LASF77:
 9249 00fe 53335F64 		.ascii	"S3_distance\000"
 9249      69737461 
 9249      6E636500 
 9250              	.LASF42:
 9251 010a 73696465 		.ascii	"side\000"
 9251      00
 9252              	.LASF59:
 9253 010f 6261636B 		.ascii	"back2Base\000"
 9253      32426173 
 9253      6500
 9254              	.LASF87:
 9255 0119 53325F54 		.ascii	"S2_Timer_ReadCounter\000"
 9255      696D6572 
 9255      5F526561 
 9255      64436F75 
 9255      6E746572 
 9256              	.LASF28:
 9257 012e 72616E67 		.ascii	"range4\000"
 9257      653400
 9258              	.LASF56:
 9259 0135 73656172 		.ascii	"searchPuck\000"
 9259      63685075 
 9259      636B00
 9260              	.LASF79:
 9261 0140 7075636B 		.ascii	"puckdetected\000"
 9261      64657465 
 9261      63746564 
 9261      00
 9262              	.LASF53:
 9263 014d 6F726965 		.ascii	"orientation\000"
 9263      6E746174 
 9263      696F6E00 
 9264              	.LASF136:
ARM GAS  C:\Users\pasan savindu\AppData\Local\Temp\ccY2T3Z5.s 			page 184


 9265 0159 4932435F 		.ascii	"I2C_Start\000"
 9265      53746172 
 9265      7400
 9266              	.LASF94:
 9267 0163 436F6C6F 		.ascii	"Color_LED_Write\000"
 9267      725F4C45 
 9267      445F5772 
 9267      69746500 
 9268              	.LASF57:
 9269 0173 72657665 		.ascii	"reverse\000"
 9269      72736500 
 9270              	.LASF81:
 9271 017b 64617461 		.ascii	"dataReady\000"
 9271      52656164 
 9271      7900
 9272              	.LASF21:
 9273 0185 53315F68 		.ascii	"S1_handler\000"
 9273      616E646C 
 9273      657200
 9274              	.LASF146:
 9275 0190 4932435F 		.ascii	"I2C_MasterSendStop\000"
 9275      4D617374 
 9275      65725365 
 9275      6E645374 
 9275      6F7000
 9276              	.LASF62:
 9277 01a3 6261636B 		.ascii	"back2Zone\000"
 9277      325A6F6E 
 9277      6500
 9278              	.LASF58:
 9279 01ad 67726162 		.ascii	"grabPuck\000"
 9279      5075636B 
 9279      00
 9280              	.LASF15:
 9281 01b6 666C6F61 		.ascii	"float\000"
 9281      7400
 9282              	.LASF54:
 9283 01bc 62617365 		.ascii	"baseRoute\000"
 9283      526F7574 
 9283      6500
 9284              	.LASF44:
 9285 01c6 77616C6C 		.ascii	"wall_allignment\000"
 9285      5F616C6C 
 9285      69676E6D 
 9285      656E7400 
 9286              	.LASF156:
 9287 01d6 424C5545 		.ascii	"BLUE_LED_Write\000"
 9287      5F4C4544 
 9287      5F577269 
 9287      746500
 9288              	.LASF123:
 9289 01e5 51756164 		.ascii	"QuadDec_L_Start\000"
 9289      4465635F 
 9289      4C5F5374 
 9289      61727400 
 9290              	.LASF114:
 9291 01f5 43794465 		.ascii	"CyDelayUs\000"
ARM GAS  C:\Users\pasan savindu\AppData\Local\Temp\ccY2T3Z5.s 			page 185


 9291      6C617955 
 9291      7300
 9292              	.LASF39:
 9293 01ff 64656772 		.ascii	"degree\000"
 9293      656500
 9294              	.LASF9:
 9295 0206 6C6F6E67 		.ascii	"long long unsigned int\000"
 9295      206C6F6E 
 9295      6720756E 
 9295      7369676E 
 9295      65642069 
 9296              	.LASF4:
 9297 021d 5F5F7569 		.ascii	"__uint16_t\000"
 9297      6E743136 
 9297      5F7400
 9298              	.LASF161:
 9299 0228 6765745F 		.ascii	"get_frequency\000"
 9299      66726571 
 9299      75656E63 
 9299      7900
 9300              	.LASF85:
 9301 0236 53315F54 		.ascii	"S1_Timer_ReadCounter\000"
 9301      696D6572 
 9301      5F526561 
 9301      64436F75 
 9301      6E746572 
 9302              	.LASF108:
 9303 024b 51756164 		.ascii	"QuadDec_L_SetCounter\000"
 9303      4465635F 
 9303      4C5F5365 
 9303      74436F75 
 9303      6E746572 
 9304              	.LASF48:
 9305 0260 636F6C6F 		.ascii	"color_to_sense\000"
 9305      725F746F 
 9305      5F73656E 
 9305      736500
 9306              	.LASF140:
 9307 026f 436F6C6F 		.ascii	"Color_S2_Write\000"
 9307      725F5332 
 9307      5F577269 
 9307      746500
 9308              	.LASF158:
 9309 027e 474E5520 		.ascii	"GNU C11 5.4.1 20160609 (release) [ARM/embedded-5-br"
 9309      43313120 
 9309      352E342E 
 9309      31203230 
 9309      31363036 
 9310 02b1 616E6368 		.ascii	"anch revision 237715] -mcpu=cortex-m3 -mthumb -g -O"
 9310      20726576 
 9310      6973696F 
 9310      6E203233 
 9310      37373135 
 9311 02e4 67202D66 		.ascii	"g -ffunction-sections -ffat-lto-objects\000"
 9311      66756E63 
 9311      74696F6E 
 9311      2D736563 
ARM GAS  C:\Users\pasan savindu\AppData\Local\Temp\ccY2T3Z5.s 			page 186


 9311      74696F6E 
 9312              	.LASF144:
 9313 030c 4932435F 		.ascii	"I2C_MasterSendStart\000"
 9313      4D617374 
 9313      65725365 
 9313      6E645374 
 9313      61727400 
 9314              	.LASF63:
 9315 0320 636F756E 		.ascii	"counter\000"
 9315      74657200 
 9316              	.LASF78:
 9317 0328 53345F64 		.ascii	"S4_distance\000"
 9317      69737461 
 9317      6E636500 
 9318              	.LASF132:
 9319 0334 6973725F 		.ascii	"isr_2_StartEx\000"
 9319      325F5374 
 9319      61727445 
 9319      7800
 9320              	.LASF30:
 9321 0342 696E7465 		.ascii	"interrupt5_handler\000"
 9321      72727570 
 9321      74355F68 
 9321      616E646C 
 9321      657200
 9322              	.LASF45:
 9323 0355 73746172 		.ascii	"start_measure\000"
 9323      745F6D65 
 9323      61737572 
 9323      6500
 9324              	.LASF109:
 9325 0363 51756164 		.ascii	"QuadDec_R_SetCounter\000"
 9325      4465635F 
 9325      525F5365 
 9325      74436F75 
 9325      6E746572 
 9326              	.LASF50:
 9327 0378 66726571 		.ascii	"freq\000"
 9327      00
 9328              	.LASF118:
 9329 037d 436F6E74 		.ascii	"Control_Reg_Color_Write\000"
 9329      726F6C5F 
 9329      5265675F 
 9329      436F6C6F 
 9329      725F5772 
 9330              	.LASF38:
 9331 0395 7475726E 		.ascii	"turn\000"
 9331      00
 9332              	.LASF130:
 9333 039a 526F626F 		.ascii	"RobotArm_Servo_Start\000"
 9333      7441726D 
 9333      5F536572 
 9333      766F5F53 
 9333      74617274 
 9334              	.LASF17:
 9335 03af 63686172 		.ascii	"char\000"
 9335      00
ARM GAS  C:\Users\pasan savindu\AppData\Local\Temp\ccY2T3Z5.s 			page 187


 9336              	.LASF147:
 9337 03b4 4932435F 		.ascii	"I2C_MasterReadByte\000"
 9337      4D617374 
 9337      65725265 
 9337      61644279 
 9337      746500
 9338              	.LASF128:
 9339 03c7 53345F54 		.ascii	"S4_Timer_Start\000"
 9339      696D6572 
 9339      5F537461 
 9339      727400
 9340              	.LASF13:
 9341 03d6 696E7438 		.ascii	"int8\000"
 9341      00
 9342              	.LASF91:
 9343 03db 53345F54 		.ascii	"S4_Timer_ReadCounter\000"
 9343      696D6572 
 9343      5F526561 
 9343      64436F75 
 9343      6E746572 
 9344              	.LASF117:
 9345 03f0 53345F45 		.ascii	"S4_Echo_Read\000"
 9345      63686F5F 
 9345      52656164 
 9345      00
 9346              	.LASF150:
 9347 03fd 55415254 		.ascii	"UART_PutString\000"
 9347      5F507574 
 9347      53747269 
 9347      6E6700
 9348              	.LASF100:
 9349 040c 51756164 		.ascii	"QuadDec_L_GetCounter\000"
 9349      4465635F 
 9349      4C5F4765 
 9349      74436F75 
 9349      6E746572 
 9350              	.LASF22:
 9351 0421 53325F68 		.ascii	"S2_handler\000"
 9351      616E646C 
 9351      657200
 9352              	.LASF104:
 9353 042c 466F7277 		.ascii	"Forwad_R_Write\000"
 9353      61645F52 
 9353      5F577269 
 9353      746500
 9354              	.LASF126:
 9355 043b 53325F54 		.ascii	"S2_Timer_Start\000"
 9355      696D6572 
 9355      5F537461 
 9355      727400
 9356              	.LASF120:
 9357 044a 6973725F 		.ascii	"isr_6_StartEx\000"
 9357      365F5374 
 9357      61727445 
 9357      7800
 9358              	.LASF8:
 9359 0458 6C6F6E67 		.ascii	"long long int\000"
ARM GAS  C:\Users\pasan savindu\AppData\Local\Temp\ccY2T3Z5.s 			page 188


 9359      206C6F6E 
 9359      6720696E 
 9359      7400
 9360              	.LASF47:
 9361 0466 73656C65 		.ascii	"select_color\000"
 9361      63745F63 
 9361      6F6C6F72 
 9361      00
 9362              	.LASF97:
 9363 0473 436F6C6F 		.ascii	"Color_Counter_ReadCounter\000"
 9363      725F436F 
 9363      756E7465 
 9363      725F5265 
 9363      6164436F 
 9364              	.LASF124:
 9365 048d 51756164 		.ascii	"QuadDec_R_Start\000"
 9365      4465635F 
 9365      525F5374 
 9365      61727400 
 9366              	.LASF51:
 9367 049d 5247425F 		.ascii	"RGB_freq\000"
 9367      66726571 
 9367      00
 9368              	.LASF101:
 9369 04a6 51756164 		.ascii	"QuadDec_R_GetCounter\000"
 9369      4465635F 
 9369      525F4765 
 9369      74436F75 
 9369      6E746572 
 9370              	.LASF67:
 9371 04bb 636F756E 		.ascii	"countL\000"
 9371      744C00
 9372              	.LASF37:
 9373 04c2 636F6D6D 		.ascii	"command\000"
 9373      616E6400 
 9374              	.LASF68:
 9375 04ca 636F756E 		.ascii	"countR\000"
 9375      745200
 9376              	.LASF31:
 9377 04d1 656E636F 		.ascii	"encode_sync\000"
 9377      64655F73 
 9377      796E6300 
 9378              	.LASF145:
 9379 04dd 4932435F 		.ascii	"I2C_MasterWriteByte\000"
 9379      4D617374 
 9379      65725772 
 9379      69746542 
 9379      79746500 
 9380              	.LASF162:
 9381 04f1 61727261 		.ascii	"array\000"
 9381      7900
 9382              	.LASF71:
 9383 04f7 6F627374 		.ascii	"obstacle1\000"
 9383      61636C65 
 9383      3100
 9384              	.LASF72:
 9385 0501 6F627374 		.ascii	"obstacle2\000"
ARM GAS  C:\Users\pasan savindu\AppData\Local\Temp\ccY2T3Z5.s 			page 189


 9385      61636C65 
 9385      3200
 9386              	.LASF73:
 9387 050b 6F627374 		.ascii	"obstacle3\000"
 9387      61636C65 
 9387      3300
 9388              	.LASF74:
 9389 0515 6F627374 		.ascii	"obstacle4\000"
 9389      61636C65 
 9389      3400
 9390              	.LASF18:
 9391 051f 6C6F6E67 		.ascii	"long double\000"
 9391      20646F75 
 9391      626C6500 
 9392              	.LASF149:
 9393 052b 73707269 		.ascii	"sprintf\000"
 9393      6E746600 
 9394              	.LASF11:
 9395 0533 75696E74 		.ascii	"uint16_t\000"
 9395      31365F74 
 9395      00
 9396              	.LASF52:
 9397 053c 636F6D70 		.ascii	"compass\000"
 9397      61737300 
 9398              	.LASF29:
 9399 0544 696E7465 		.ascii	"interrupt6_handler\000"
 9399      72727570 
 9399      74365F68 
 9399      616E646C 
 9399      657200
 9400              	.LASF75:
 9401 0557 53315F64 		.ascii	"S1_distance\000"
 9401      69737461 
 9401      6E636500 
 9402              	.LASF106:
 9403 0563 50574D5F 		.ascii	"PWM_Motor_WriteCompare1\000"
 9403      4D6F746F 
 9403      725F5772 
 9403      69746543 
 9403      6F6D7061 
 9404              	.LASF99:
 9405 057b 49525F4F 		.ascii	"IR_Out_ClearInterrupt\000"
 9405      75745F43 
 9405      6C656172 
 9405      496E7465 
 9405      72727570 
 9406              	.LASF96:
 9407 0591 6973725F 		.ascii	"isr_6_ClearPending\000"
 9407      365F436C 
 9407      65617250 
 9407      656E6469 
 9407      6E6700
 9408              	.LASF23:
 9409 05a4 72616E67 		.ascii	"range1\000"
 9409      653100
 9410              	.LASF24:
 9411 05ab 72616E67 		.ascii	"range2\000"
ARM GAS  C:\Users\pasan savindu\AppData\Local\Temp\ccY2T3Z5.s 			page 190


 9411      653200
 9412              	.LASF26:
 9413 05b2 72616E67 		.ascii	"range3\000"
 9413      653300
 9414              	.LASF2:
 9415 05b9 73686F72 		.ascii	"short int\000"
 9415      7420696E 
 9415      7400
 9416              	.LASF139:
 9417 05c3 466C6963 		.ascii	"Flicker_Servo_WriteCompare\000"
 9417      6B65725F 
 9417      53657276 
 9417      6F5F5772 
 9417      69746543 
 9418              	.LASF143:
 9419 05de 436F6C6F 		.ascii	"Color_S1_Write\000"
 9419      725F5331 
 9419      5F577269 
 9419      746500
 9420              	.LASF6:
 9421 05ed 6C6F6E67 		.ascii	"long int\000"
 9421      20696E74 
 9421      00
 9422              	.LASF95:
 9423 05f6 436F6C6F 		.ascii	"Color_Timer_ReadStatusRegister\000"
 9423      725F5469 
 9423      6D65725F 
 9423      52656164 
 9423      53746174 
 9424              	.LASF65:
 9425 0615 49544D5F 		.ascii	"ITM_RxBuffer\000"
 9425      52784275 
 9425      66666572 
 9425      00
 9426              	.LASF110:
 9427 0622 6C696D69 		.ascii	"limitSW_1_Read\000"
 9427      7453575F 
 9427      315F5265 
 9427      616400
 9428              	.LASF32:
 9429 0631 6D6F746F 		.ascii	"motorcontrl\000"
 9429      72636F6E 
 9429      74726C00 
 9430              	.LASF80:
 9431 063d 69467265 		.ascii	"iFreq\000"
 9431      7100
 9432              	.LASF36:
 9433 0643 64697374 		.ascii	"distance\000"
 9433      616E6365 
 9433      00
 9434              	.LASF115:
 9435 064c 53335F45 		.ascii	"S3_Echo_Read\000"
 9435      63686F5F 
 9435      52656164 
 9435      00
 9436              	.LASF43:
 9437 0659 74656D70 		.ascii	"temp\000"
ARM GAS  C:\Users\pasan savindu\AppData\Local\Temp\ccY2T3Z5.s 			page 191


 9437      00
 9438              	.LASF116:
 9439 065e 53345F54 		.ascii	"S4_Trigger_Write\000"
 9439      72696767 
 9439      65725F57 
 9439      72697465 
 9439      00
 9440              	.LASF61:
 9441 066f 636F6C6F 		.ascii	"color\000"
 9441      7200
 9442              	.LASF113:
 9443 0675 53335F54 		.ascii	"S3_Trigger_Write\000"
 9443      72696767 
 9443      65725F57 
 9443      72697465 
 9443      00
 9444              	.LASF46:
 9445 0686 496E6974 		.ascii	"Initialize\000"
 9445      69616C69 
 9445      7A6500
 9446              	.LASF111:
 9447 0691 6C696D69 		.ascii	"limitSW_2_Read\000"
 9447      7453575F 
 9447      325F5265 
 9447      616400
 9448              	.LASF25:
 9449 06a0 53335F68 		.ascii	"S3_handler\000"
 9449      616E646C 
 9449      657200
 9450              	.LASF135:
 9451 06ab 55415254 		.ascii	"UART_Start\000"
 9451      5F537461 
 9451      727400
 9452              	.LASF90:
 9453 06b6 53345F54 		.ascii	"S4_Timer_ReadStatusRegister\000"
 9453      696D6572 
 9453      5F526561 
 9453      64537461 
 9453      74757352 
 9454              	.LASF121:
 9455 06d2 436F6C6F 		.ascii	"Color_Timer_Start\000"
 9455      725F5469 
 9455      6D65725F 
 9455      53746172 
 9455      7400
 9456              	.LASF55:
 9457 06e4 42617365 		.ascii	"Base\000"
 9457      00
 9458              	.LASF49:
 9459 06e9 636F6C6F 		.ascii	"color_sense\000"
 9459      725F7365 
 9459      6E736500 
 9460              	.LASF142:
 9461 06f5 436F6C6F 		.ascii	"Color_S0_Write\000"
 9461      725F5330 
 9461      5F577269 
 9461      746500
ARM GAS  C:\Users\pasan savindu\AppData\Local\Temp\ccY2T3Z5.s 			page 192


 9462              	.LASF19:
 9463 0704 73697A65 		.ascii	"sizetype\000"
 9463      74797065 
 9463      00
 9464              	.LASF7:
 9465 070d 6C6F6E67 		.ascii	"long unsigned int\000"
 9465      20756E73 
 9465      69676E65 
 9465      6420696E 
 9465      7400
 9466              	.LASF103:
 9467 071f 4261636B 		.ascii	"Backward_L_Write\000"
 9467      77617264 
 9467      5F4C5F57 
 9467      72697465 
 9467      00
 9468              	.LASF98:
 9469 0730 49525F4F 		.ascii	"IR_Out_Read\000"
 9469      75745F52 
 9469      65616400 
 9470              	.LASF12:
 9471 073c 696E7433 		.ascii	"int32_t\000"
 9471      325F7400 
 9472              	.LASF88:
 9473 0744 53335F54 		.ascii	"S3_Timer_ReadStatusRegister\000"
 9473      696D6572 
 9473      5F526561 
 9473      64537461 
 9473      74757352 
 9474              	.LASF122:
 9475 0760 50574D5F 		.ascii	"PWM_Motor_Start\000"
 9475      4D6F746F 
 9475      725F5374 
 9475      61727400 
 9476              	.LASF141:
 9477 0770 436F6C6F 		.ascii	"Color_S3_Write\000"
 9477      725F5333 
 9477      5F577269 
 9477      746500
 9478              	.LASF148:
 9479 077f 6174616E 		.ascii	"atan2\000"
 9479      3200
 9480              	.LASF64:
 9481 0785 64697374 		.ascii	"dist_increament\000"
 9481      5F696E63 
 9481      7265616D 
 9481      656E7400 
 9482              	.LASF1:
 9483 0795 756E7369 		.ascii	"unsigned char\000"
 9483      676E6564 
 9483      20636861 
 9483      7200
 9484              	.LASF60:
 9485 07a3 736F7274 		.ascii	"sortPuck\000"
 9485      5075636B 
 9485      00
 9486              	.LASF153:
ARM GAS  C:\Users\pasan savindu\AppData\Local\Temp\ccY2T3Z5.s 			page 193


 9487 07ac 53325F54 		.ascii	"S2_Trigger_Write\000"
 9487      72696767 
 9487      65725F57 
 9487      72697465 
 9487      00
 9488              	.LASF133:
 9489 07bd 6973725F 		.ascii	"isr_3_StartEx\000"
 9489      335F5374 
 9489      61727445 
 9489      7800
 9490              	.LASF154:
 9491 07cb 53325F45 		.ascii	"S2_Echo_Read\000"
 9491      63686F5F 
 9491      52656164 
 9491      00
 9492              	.LASF105:
 9493 07d8 4261636B 		.ascii	"Backward_R_Write\000"
 9493      77617264 
 9493      5F525F57 
 9493      72697465 
 9493      00
 9494              	.LASF151:
 9495 07e9 53315F54 		.ascii	"S1_Trigger_Write\000"
 9495      72696767 
 9495      65725F57 
 9495      72697465 
 9495      00
 9496              	.LASF33:
 9497 07fa 4D6F7665 		.ascii	"Move\000"
 9497      00
 9498              	.LASF41:
 9499 07ff 73696465 		.ascii	"side_allignment\000"
 9499      5F616C6C 
 9499      69676E6D 
 9499      656E7400 
 9500              	.LASF66:
 9501 080f 73746174 		.ascii	"state\000"
 9501      6500
 9502              	.LASF40:
 9503 0815 77616C6C 		.ascii	"wall_detected\000"
 9503      5F646574 
 9503      65637465 
 9503      6400
 9504              	.LASF76:
 9505 0823 53325F64 		.ascii	"S2_distance\000"
 9505      69737461 
 9505      6E636500 
 9506              	.LASF93:
 9507 082f 436F6C6F 		.ascii	"Color_Timer_Stop\000"
 9507      725F5469 
 9507      6D65725F 
 9507      53746F70 
 9507      00
 9508              	.LASF34:
 9509 0840 6D6F7665 		.ascii	"move_straight\000"
 9509      5F737472 
 9509      61696768 
ARM GAS  C:\Users\pasan savindu\AppData\Local\Temp\ccY2T3Z5.s 			page 194


 9509      7400
 9510              	.LASF127:
 9511 084e 53335F54 		.ascii	"S3_Timer_Start\000"
 9511      696D6572 
 9511      5F537461 
 9511      727400
 9512              	.LASF0:
 9513 085d 7369676E 		.ascii	"signed char\000"
 9513      65642063 
 9513      68617200 
 9514              	.LASF134:
 9515 0869 6973725F 		.ascii	"isr_4_StartEx\000"
 9515      345F5374 
 9515      61727445 
 9515      7800
 9516              	.LASF3:
 9517 0877 73686F72 		.ascii	"short unsigned int\000"
 9517      7420756E 
 9517      7369676E 
 9517      65642069 
 9517      6E7400
 9518              	.LASF92:
 9519 088a 436F6C6F 		.ascii	"Color_Counter_Stop\000"
 9519      725F436F 
 9519      756E7465 
 9519      725F5374 
 9519      6F7000
 9520              	.LASF163:
 9521 089d 6D61696E 		.ascii	"main\000"
 9521      00
 9522              	.LASF129:
 9523 08a2 466C6963 		.ascii	"Flicker_Servo_Start\000"
 9523      6B65725F 
 9523      53657276 
 9523      6F5F5374 
 9523      61727400 
 9524              	.LASF119:
 9525 08b6 436F6C6F 		.ascii	"Color_Counter_Start\000"
 9525      725F436F 
 9525      756E7465 
 9525      725F5374 
 9525      61727400 
 9526              	.LASF160:
 9527 08ca 523A5C59 		.ascii	"R:\\Year 03\\ECE3091 - Engineering Design\\Codes\\V"
 9527      65617220 
 9527      30335C45 
 9527      43453330 
 9527      3931202D 
 9528 08f9 65727369 		.ascii	"ersion_03\\Version_03\\Test_01.cydsn\000"
 9528      6F6E5F30 
 9528      335C5665 
 9528      7273696F 
 9528      6E5F3033 
 9529              	.LASF20:
 9530 091c 75696E74 		.ascii	"uint\000"
 9530      00
 9531              	.LASF16:
ARM GAS  C:\Users\pasan savindu\AppData\Local\Temp\ccY2T3Z5.s 			page 195


 9532 0921 646F7562 		.ascii	"double\000"
 9532      6C6500
 9533              	.LASF157:
 9534 0928 42617365 		.ascii	"Base_Selector_Read\000"
 9534      5F53656C 
 9534      6563746F 
 9534      725F5265 
 9534      616400
 9535              	.LASF86:
 9536 093b 53325F54 		.ascii	"S2_Timer_ReadStatusRegister\000"
 9536      696D6572 
 9536      5F526561 
 9536      64537461 
 9536      74757352 
 9537              	.LASF125:
 9538 0957 53315F54 		.ascii	"S1_Timer_Start\000"
 9538      696D6572 
 9538      5F537461 
 9538      727400
 9539              	.LASF89:
 9540 0966 53335F54 		.ascii	"S3_Timer_ReadCounter\000"
 9540      696D6572 
 9540      5F526561 
 9540      64436F75 
 9540      6E746572 
 9541              	.LASF83:
 9542 097b 706F7369 		.ascii	"position\000"
 9542      74696F6E 
 9542      00
 9543              		.ident	"GCC: (GNU Tools for ARM Embedded Processors) 5.4.1 20160609 (release) [ARM/embedded-5-bran
