ARM GAS  C:\Users\pasan savindu\AppData\Local\Temp\ccY2T3Z5.s 			page 1


   1              		.syntax unified
   2              		.cpu cortex-m3
   3              		.fpu softvfp
   4              		.eabi_attribute 20, 1
   5              		.eabi_attribute 21, 1
   6              		.eabi_attribute 23, 3
   7              		.eabi_attribute 24, 1
   8              		.eabi_attribute 25, 1
   9              		.eabi_attribute 26, 1
  10              		.eabi_attribute 30, 1
  11              		.eabi_attribute 34, 1
  12              		.eabi_attribute 18, 4
  13              		.thumb
  14              		.syntax unified
  15              		.file	"main.c"
  16              		.text
  17              	.Ltext0:
  18              		.cfi_sections	.debug_frame
  19              		.global	__aeabi_i2f
  20              		.global	__aeabi_fcmplt
  21              		.global	__aeabi_fcmpgt
  22              		.section	.text.S1_handler,"ax",%progbits
  23              		.align	2
  24              		.global	S1_handler
  25              		.thumb
  26              		.thumb_func
  27              		.type	S1_handler, %function
  28              	S1_handler:
  29              	.LFB64:
  30              		.file 1 "main.c"
   1:main.c        **** /* ========================================
   2:main.c        ****  *
   3:main.c        ****  * Copyright YOUR COMPANY, THE YEAR
   4:main.c        ****  * All Rights Reserved
   5:main.c        ****  * UNPUBLISHED, LICENSED SOFTWARE.
   6:main.c        ****  *
   7:main.c        ****  * CONFIDENTIAL AND PROPRIETARY INFORMATION
   8:main.c        ****  * WHICH IS THE PROPERTY OF your company.
   9:main.c        ****  *
  10:main.c        ****  * ========================================
  11:main.c        **** */
  12:main.c        **** #include "project.h"
  13:main.c        **** #include "stdio.h"
  14:main.c        **** #include "math.h"
  15:main.c        **** #define DeviceID 0x0D
  16:main.c        **** #define SPEED 80
  17:main.c        **** #define SYNC 10
  18:main.c        **** #define L_DEGREE 13250
  19:main.c        **** #define R_DEGREE 16250
  20:main.c        **** #define PUCK_END_ZONE 96000
  21:main.c        **** #define GAP 40000
  22:main.c        **** #define CAPTURE_ZONE 35
  23:main.c        **** #define WALL_ALLIGNMENT 25     //**CONFIGURE
  24:main.c        **** #define OPPONENT 15
  25:main.c        **** //Define Global Variables.
  26:main.c        **** int8 state=0;
  27:main.c        **** int Base;
ARM GAS  C:\Users\pasan savindu\AppData\Local\Temp\ccY2T3Z5.s 			page 2


  28:main.c        **** int countL;int countR;
  29:main.c        **** int8 speedL;int speedR;
  30:main.c        **** int8 obstacle1 = 0;int8 obstacle2 = 0;
  31:main.c        **** int8 obstacle3 = 0;int8 obstacle4 = 0;
  32:main.c        **** int S1_distance=OPPONENT;int S2_distance=OPPONENT;
  33:main.c        **** int S3_distance=OPPONENT;int S4_distance=OPPONENT;
  34:main.c        **** int8 puckdetected;
  35:main.c        **** uint16_t iFreq = 0;
  36:main.c        **** int dataReady = 0;
  37:main.c        **** char string1[20];
  38:main.c        **** int position =0;
  39:main.c        **** 
  40:main.c        **** 
  41:main.c        **** //Define Function Declarations.
  42:main.c        **** void encode_sync(char Move);
  43:main.c        **** void move_straight(char direction,int distance);
  44:main.c        **** void motorcontrl(char opt);
  45:main.c        **** void move_straight(char direction,int distance);
  46:main.c        **** void turn(char direction,int degree);
  47:main.c        **** void wall_allignment();
  48:main.c        **** void start_measure();
  49:main.c        **** int color_sense();
  50:main.c        **** int get_frequency(int color_sense);
  51:main.c        **** void select_color(int color_to_sense);
  52:main.c        **** void compass();
  53:main.c        **** void side_allignment(char side);
  54:main.c        **** 
  55:main.c        **** void baseRoute(int Base);
  56:main.c        **** void searchPuck();
  57:main.c        **** void grabPuck();
  58:main.c        **** void back2Base(int Base);
  59:main.c        **** void sortPuck();
  60:main.c        **** void back2Zone(int Base,int counter);
  61:main.c        **** 
  62:main.c        **** //Interrupts for Obstacle Aviodance
  63:main.c        **** CY_ISR(S1_handler) {//Front LEFT(S1) Ultrasonic Sensor 
  31              		.loc 1 63 0
  32              		.cfi_startproc
  33              		@ args = 0, pretend = 0, frame = 0
  34              		@ frame_needed = 0, uses_anonymous_args = 0
  35 0000 38B5     		push	{r3, r4, r5, lr}
  36              		.cfi_def_cfa_offset 16
  37              		.cfi_offset 3, -16
  38              		.cfi_offset 4, -12
  39              		.cfi_offset 5, -8
  40              		.cfi_offset 14, -4
  64:main.c        **** 	float range1;
  65:main.c        **** 	S1_Timer_ReadStatusRegister();
  41              		.loc 1 65 0
  42 0002 FFF7FEFF 		bl	S1_Timer_ReadStatusRegister
  43              	.LVL0:
  66:main.c        **** 	range1 = (65535 - S1_Timer_ReadCounter()) / 58;
  44              		.loc 1 66 0
  45 0006 FFF7FEFF 		bl	S1_Timer_ReadCounter
  46              	.LVL1:
  47 000a C0F57F43 		rsb	r3, r0, #65280
  48 000e FF33     		adds	r3, r3, #255
ARM GAS  C:\Users\pasan savindu\AppData\Local\Temp\ccY2T3Z5.s 			page 3


  49 0010 1048     		ldr	r0, .L10
  50 0012 80FB0320 		smull	r2, r0, r0, r3
  51 0016 1844     		add	r0, r0, r3
  52 0018 DB17     		asrs	r3, r3, #31
  53 001a C3EB6010 		rsb	r0, r3, r0, asr #5
  54 001e FFF7FEFF 		bl	__aeabi_i2f
  55              	.LVL2:
  56 0022 0446     		mov	r4, r0
  57              	.LVL3:
  67:main.c        **** 	if (range1 <S1_distance) {
  58              		.loc 1 67 0
  59 0024 0C4B     		ldr	r3, .L10+4
  60 0026 1868     		ldr	r0, [r3]
  61              	.LVL4:
  62 0028 FFF7FEFF 		bl	__aeabi_i2f
  63              	.LVL5:
  64 002c 0546     		mov	r5, r0
  65 002e 0146     		mov	r1, r0
  66 0030 2046     		mov	r0, r4
  67 0032 FFF7FEFF 		bl	__aeabi_fcmplt
  68              	.LVL6:
  69 0036 18B1     		cbz	r0, .L8
  68:main.c        **** 		obstacle1 = 1;
  70              		.loc 1 68 0
  71 0038 0122     		movs	r2, #1
  72 003a 084B     		ldr	r3, .L10+8
  73 003c 1A70     		strb	r2, [r3]
  74 003e 38BD     		pop	{r3, r4, r5, pc}
  75              	.LVL7:
  76              	.L8:
  69:main.c        **** 	}
  70:main.c        **** 	else if (range1 > S1_distance) {
  77              		.loc 1 70 0
  78 0040 2946     		mov	r1, r5
  79 0042 2046     		mov	r0, r4
  80 0044 FFF7FEFF 		bl	__aeabi_fcmpgt
  81              	.LVL8:
  82 0048 10B1     		cbz	r0, .L1
  71:main.c        **** 		obstacle1 = 0;
  83              		.loc 1 71 0
  84 004a 0022     		movs	r2, #0
  85 004c 034B     		ldr	r3, .L10+8
  86 004e 1A70     		strb	r2, [r3]
  87              	.L1:
  88 0050 38BD     		pop	{r3, r4, r5, pc}
  89              	.LVL9:
  90              	.L11:
  91 0052 00BF     		.align	2
  92              	.L10:
  93 0054 09CB3D8D 		.word	-1925330167
  94 0058 00000000 		.word	.LANCHOR0
  95 005c 00000000 		.word	.LANCHOR1
  96              		.cfi_endproc
  97              	.LFE64:
  98              		.size	S1_handler, .-S1_handler
  99              		.section	.text.S2_handler,"ax",%progbits
 100              		.align	2
ARM GAS  C:\Users\pasan savindu\AppData\Local\Temp\ccY2T3Z5.s 			page 4


 101              		.global	S2_handler
 102              		.thumb
 103              		.thumb_func
 104              		.type	S2_handler, %function
 105              	S2_handler:
 106              	.LFB65:
  72:main.c        **** 	}
  73:main.c        **** }
  74:main.c        **** CY_ISR(S2_handler) {//Front RIGHT (S2) Ultrasonic Sensor 
 107              		.loc 1 74 0
 108              		.cfi_startproc
 109              		@ args = 0, pretend = 0, frame = 0
 110              		@ frame_needed = 0, uses_anonymous_args = 0
 111 0000 38B5     		push	{r3, r4, r5, lr}
 112              		.cfi_def_cfa_offset 16
 113              		.cfi_offset 3, -16
 114              		.cfi_offset 4, -12
 115              		.cfi_offset 5, -8
 116              		.cfi_offset 14, -4
  75:main.c        **** 	float range2;
  76:main.c        **** 	S2_Timer_ReadStatusRegister();
 117              		.loc 1 76 0
 118 0002 FFF7FEFF 		bl	S2_Timer_ReadStatusRegister
 119              	.LVL10:
  77:main.c        **** 	range2 = (65535 - S2_Timer_ReadCounter()) / 58;
 120              		.loc 1 77 0
 121 0006 FFF7FEFF 		bl	S2_Timer_ReadCounter
 122              	.LVL11:
 123 000a C0F57F43 		rsb	r3, r0, #65280
 124 000e FF33     		adds	r3, r3, #255
 125 0010 1048     		ldr	r0, .L21
 126 0012 80FB0320 		smull	r2, r0, r0, r3
 127 0016 1844     		add	r0, r0, r3
 128 0018 DB17     		asrs	r3, r3, #31
 129 001a C3EB6010 		rsb	r0, r3, r0, asr #5
 130 001e FFF7FEFF 		bl	__aeabi_i2f
 131              	.LVL12:
 132 0022 0446     		mov	r4, r0
 133              	.LVL13:
  78:main.c        **** 	if (range2 < S2_distance) {
 134              		.loc 1 78 0
 135 0024 0C4B     		ldr	r3, .L21+4
 136 0026 5868     		ldr	r0, [r3, #4]
 137              	.LVL14:
 138 0028 FFF7FEFF 		bl	__aeabi_i2f
 139              	.LVL15:
 140 002c 0546     		mov	r5, r0
 141 002e 0146     		mov	r1, r0
 142 0030 2046     		mov	r0, r4
 143 0032 FFF7FEFF 		bl	__aeabi_fcmplt
 144              	.LVL16:
 145 0036 18B1     		cbz	r0, .L19
  79:main.c        **** 		obstacle2 = 1;
 146              		.loc 1 79 0
 147 0038 0122     		movs	r2, #1
 148 003a 084B     		ldr	r3, .L21+8
 149 003c 5A70     		strb	r2, [r3, #1]
ARM GAS  C:\Users\pasan savindu\AppData\Local\Temp\ccY2T3Z5.s 			page 5


 150 003e 38BD     		pop	{r3, r4, r5, pc}
 151              	.LVL17:
 152              	.L19:
  80:main.c        **** 	}
  81:main.c        **** 	else if (range2 > S2_distance) {
 153              		.loc 1 81 0
 154 0040 2946     		mov	r1, r5
 155 0042 2046     		mov	r0, r4
 156 0044 FFF7FEFF 		bl	__aeabi_fcmpgt
 157              	.LVL18:
 158 0048 10B1     		cbz	r0, .L12
  82:main.c        **** 		obstacle2 = 0;
 159              		.loc 1 82 0
 160 004a 0022     		movs	r2, #0
 161 004c 034B     		ldr	r3, .L21+8
 162 004e 5A70     		strb	r2, [r3, #1]
 163              	.L12:
 164 0050 38BD     		pop	{r3, r4, r5, pc}
 165              	.LVL19:
 166              	.L22:
 167 0052 00BF     		.align	2
 168              	.L21:
 169 0054 09CB3D8D 		.word	-1925330167
 170 0058 00000000 		.word	.LANCHOR0
 171 005c 00000000 		.word	.LANCHOR1
 172              		.cfi_endproc
 173              	.LFE65:
 174              		.size	S2_handler, .-S2_handler
 175              		.section	.text.S3_handler,"ax",%progbits
 176              		.align	2
 177              		.global	S3_handler
 178              		.thumb
 179              		.thumb_func
 180              		.type	S3_handler, %function
 181              	S3_handler:
 182              	.LFB66:
  83:main.c        **** 	}
  84:main.c        **** }
  85:main.c        **** CY_ISR(S3_handler) {//Side Right (S3) Ultrasonic Sensor
 183              		.loc 1 85 0
 184              		.cfi_startproc
 185              		@ args = 0, pretend = 0, frame = 0
 186              		@ frame_needed = 0, uses_anonymous_args = 0
 187 0000 38B5     		push	{r3, r4, r5, lr}
 188              		.cfi_def_cfa_offset 16
 189              		.cfi_offset 3, -16
 190              		.cfi_offset 4, -12
 191              		.cfi_offset 5, -8
 192              		.cfi_offset 14, -4
  86:main.c        **** 	float range3;
  87:main.c        **** 	S3_Timer_ReadStatusRegister();
 193              		.loc 1 87 0
 194 0002 FFF7FEFF 		bl	S3_Timer_ReadStatusRegister
 195              	.LVL20:
  88:main.c        **** 	range3 = (65535 - S3_Timer_ReadCounter()) / 58;
 196              		.loc 1 88 0
 197 0006 FFF7FEFF 		bl	S3_Timer_ReadCounter
ARM GAS  C:\Users\pasan savindu\AppData\Local\Temp\ccY2T3Z5.s 			page 6


 198              	.LVL21:
 199 000a C0F57F43 		rsb	r3, r0, #65280
 200 000e FF33     		adds	r3, r3, #255
 201 0010 1048     		ldr	r0, .L32
 202 0012 80FB0320 		smull	r2, r0, r0, r3
 203 0016 1844     		add	r0, r0, r3
 204 0018 DB17     		asrs	r3, r3, #31
 205 001a C3EB6010 		rsb	r0, r3, r0, asr #5
 206 001e FFF7FEFF 		bl	__aeabi_i2f
 207              	.LVL22:
 208 0022 0446     		mov	r4, r0
 209              	.LVL23:
  89:main.c        **** 	if (range3 < S3_distance) {
 210              		.loc 1 89 0
 211 0024 0C4B     		ldr	r3, .L32+4
 212 0026 9868     		ldr	r0, [r3, #8]
 213              	.LVL24:
 214 0028 FFF7FEFF 		bl	__aeabi_i2f
 215              	.LVL25:
 216 002c 0546     		mov	r5, r0
 217 002e 0146     		mov	r1, r0
 218 0030 2046     		mov	r0, r4
 219 0032 FFF7FEFF 		bl	__aeabi_fcmplt
 220              	.LVL26:
 221 0036 18B1     		cbz	r0, .L30
  90:main.c        **** 		obstacle3 = 1;
 222              		.loc 1 90 0
 223 0038 0122     		movs	r2, #1
 224 003a 084B     		ldr	r3, .L32+8
 225 003c 9A70     		strb	r2, [r3, #2]
 226 003e 38BD     		pop	{r3, r4, r5, pc}
 227              	.LVL27:
 228              	.L30:
  91:main.c        **** 		
  92:main.c        **** 	}
  93:main.c        **** 	else if (range3 > S3_distance) {
 229              		.loc 1 93 0
 230 0040 2946     		mov	r1, r5
 231 0042 2046     		mov	r0, r4
 232 0044 FFF7FEFF 		bl	__aeabi_fcmpgt
 233              	.LVL28:
 234 0048 10B1     		cbz	r0, .L23
  94:main.c        **** 		obstacle3 = 0;
 235              		.loc 1 94 0
 236 004a 0022     		movs	r2, #0
 237 004c 034B     		ldr	r3, .L32+8
 238 004e 9A70     		strb	r2, [r3, #2]
 239              	.L23:
 240 0050 38BD     		pop	{r3, r4, r5, pc}
 241              	.LVL29:
 242              	.L33:
 243 0052 00BF     		.align	2
 244              	.L32:
 245 0054 09CB3D8D 		.word	-1925330167
 246 0058 00000000 		.word	.LANCHOR0
 247 005c 00000000 		.word	.LANCHOR1
 248              		.cfi_endproc
ARM GAS  C:\Users\pasan savindu\AppData\Local\Temp\ccY2T3Z5.s 			page 7


 249              	.LFE66:
 250              		.size	S3_handler, .-S3_handler
 251              		.section	.text.S4_handler,"ax",%progbits
 252              		.align	2
 253              		.global	S4_handler
 254              		.thumb
 255              		.thumb_func
 256              		.type	S4_handler, %function
 257              	S4_handler:
 258              	.LFB67:
  95:main.c        **** 		
  96:main.c        **** 	}
  97:main.c        **** }
  98:main.c        **** CY_ISR(S4_handler) {//Side Left (S4) Ultrasonic Sensor 
 259              		.loc 1 98 0
 260              		.cfi_startproc
 261              		@ args = 0, pretend = 0, frame = 0
 262              		@ frame_needed = 0, uses_anonymous_args = 0
 263 0000 38B5     		push	{r3, r4, r5, lr}
 264              		.cfi_def_cfa_offset 16
 265              		.cfi_offset 3, -16
 266              		.cfi_offset 4, -12
 267              		.cfi_offset 5, -8
 268              		.cfi_offset 14, -4
  99:main.c        **** 	float range4;
 100:main.c        **** 	S4_Timer_ReadStatusRegister();
 269              		.loc 1 100 0
 270 0002 FFF7FEFF 		bl	S4_Timer_ReadStatusRegister
 271              	.LVL30:
 101:main.c        **** 	range4 = (65535 - S4_Timer_ReadCounter()) / 58;
 272              		.loc 1 101 0
 273 0006 FFF7FEFF 		bl	S4_Timer_ReadCounter
 274              	.LVL31:
 275 000a C0F57F43 		rsb	r3, r0, #65280
 276 000e FF33     		adds	r3, r3, #255
 277 0010 1048     		ldr	r0, .L43
 278 0012 80FB0320 		smull	r2, r0, r0, r3
 279 0016 1844     		add	r0, r0, r3
 280 0018 DB17     		asrs	r3, r3, #31
 281 001a C3EB6010 		rsb	r0, r3, r0, asr #5
 282 001e FFF7FEFF 		bl	__aeabi_i2f
 283              	.LVL32:
 284 0022 0446     		mov	r4, r0
 285              	.LVL33:
 102:main.c        **** 	//sprintf(string1,"%d\n",(int)range4);
 103:main.c        **** 	//UART_PutString(string1);
 104:main.c        **** 	if (range4 < S4_distance) 
 286              		.loc 1 104 0
 287 0024 0C4B     		ldr	r3, .L43+4
 288 0026 D868     		ldr	r0, [r3, #12]
 289              	.LVL34:
 290 0028 FFF7FEFF 		bl	__aeabi_i2f
 291              	.LVL35:
 292 002c 0546     		mov	r5, r0
 293 002e 0146     		mov	r1, r0
 294 0030 2046     		mov	r0, r4
 295 0032 FFF7FEFF 		bl	__aeabi_fcmplt
ARM GAS  C:\Users\pasan savindu\AppData\Local\Temp\ccY2T3Z5.s 			page 8


 296              	.LVL36:
 297 0036 18B1     		cbz	r0, .L41
 105:main.c        ****     {
 106:main.c        **** 		obstacle4 = 1;
 298              		.loc 1 106 0
 299 0038 0122     		movs	r2, #1
 300 003a 084B     		ldr	r3, .L43+8
 301 003c DA70     		strb	r2, [r3, #3]
 302 003e 38BD     		pop	{r3, r4, r5, pc}
 303              	.LVL37:
 304              	.L41:
 107:main.c        **** 		//move_straight('B',10000);
 108:main.c        **** 	}
 109:main.c        **** 	else if (range4 >S4_distance) 
 305              		.loc 1 109 0
 306 0040 2946     		mov	r1, r5
 307 0042 2046     		mov	r0, r4
 308 0044 FFF7FEFF 		bl	__aeabi_fcmpgt
 309              	.LVL38:
 310 0048 10B1     		cbz	r0, .L34
 110:main.c        ****     {
 111:main.c        **** 		obstacle4 = 0;
 311              		.loc 1 111 0
 312 004a 0022     		movs	r2, #0
 313 004c 034B     		ldr	r3, .L43+8
 314 004e DA70     		strb	r2, [r3, #3]
 315              	.L34:
 316 0050 38BD     		pop	{r3, r4, r5, pc}
 317              	.LVL39:
 318              	.L44:
 319 0052 00BF     		.align	2
 320              	.L43:
 321 0054 09CB3D8D 		.word	-1925330167
 322 0058 00000000 		.word	.LANCHOR0
 323 005c 00000000 		.word	.LANCHOR1
 324              		.cfi_endproc
 325              	.LFE67:
 326              		.size	S4_handler, .-S4_handler
 327              		.section	.text.interrupt6_handler,"ax",%progbits
 328              		.align	2
 329              		.global	interrupt6_handler
 330              		.thumb
 331              		.thumb_func
 332              		.type	interrupt6_handler, %function
 333              	interrupt6_handler:
 334              	.LFB69:
 112:main.c        **** 		
 113:main.c        **** 	}
 114:main.c        **** }
 115:main.c        **** 
 116:main.c        **** //Interrupts for IR senosr- Puck Detecting
 117:main.c        **** CY_ISR(interrupt5_handler)
 118:main.c        **** { 
 119:main.c        ****     if (IR_Out_Read() ==1){
 120:main.c        ****     puckdetected=0;
 121:main.c        ****     IR_Out_ClearInterrupt();
 122:main.c        ****     }
ARM GAS  C:\Users\pasan savindu\AppData\Local\Temp\ccY2T3Z5.s 			page 9


 123:main.c        ****     else if (IR_Out_Read()==0){
 124:main.c        ****         puckdetected=1;
 125:main.c        ****         IR_Out_ClearInterrupt();
 126:main.c        ****     }
 127:main.c        **** }
 128:main.c        **** //Interrupts for Color Detection
 129:main.c        **** CY_ISR(interrupt6_handler) {
 335              		.loc 1 129 0
 336              		.cfi_startproc
 337              		@ args = 0, pretend = 0, frame = 0
 338              		@ frame_needed = 0, uses_anonymous_args = 0
 339 0000 08B5     		push	{r3, lr}
 340              		.cfi_def_cfa_offset 8
 341              		.cfi_offset 3, -8
 342              		.cfi_offset 14, -4
 130:main.c        **** 	Color_Counter_Stop();
 343              		.loc 1 130 0
 344 0002 FFF7FEFF 		bl	Color_Counter_Stop
 345              	.LVL40:
 131:main.c        **** 	Color_Timer_Stop();
 346              		.loc 1 131 0
 347 0006 FFF7FEFF 		bl	Color_Timer_Stop
 348              	.LVL41:
 132:main.c        **** 	Color_LED_Write(0);
 349              		.loc 1 132 0
 350 000a 0020     		movs	r0, #0
 351 000c FFF7FEFF 		bl	Color_LED_Write
 352              	.LVL42:
 133:main.c        **** 	Color_Timer_ReadStatusRegister();
 353              		.loc 1 133 0
 354 0010 FFF7FEFF 		bl	Color_Timer_ReadStatusRegister
 355              	.LVL43:
 134:main.c        **** 	isr_6_ClearPending();
 356              		.loc 1 134 0
 357 0014 FFF7FEFF 		bl	isr_6_ClearPending
 358              	.LVL44:
 135:main.c        **** 	iFreq = Color_Counter_ReadCounter();
 359              		.loc 1 135 0
 360 0018 FFF7FEFF 		bl	Color_Counter_ReadCounter
 361              	.LVL45:
 362 001c 024B     		ldr	r3, .L47
 363 001e 9880     		strh	r0, [r3, #4]	@ movhi
 136:main.c        **** 	dataReady = 1;
 364              		.loc 1 136 0
 365 0020 0122     		movs	r2, #1
 366 0022 9A60     		str	r2, [r3, #8]
 367 0024 08BD     		pop	{r3, pc}
 368              	.L48:
 369 0026 00BF     		.align	2
 370              	.L47:
 371 0028 00000000 		.word	.LANCHOR1
 372              		.cfi_endproc
 373              	.LFE69:
 374              		.size	interrupt6_handler, .-interrupt6_handler
 375              		.section	.text.interrupt5_handler,"ax",%progbits
 376              		.align	2
 377              		.global	interrupt5_handler
ARM GAS  C:\Users\pasan savindu\AppData\Local\Temp\ccY2T3Z5.s 			page 10


 378              		.thumb
 379              		.thumb_func
 380              		.type	interrupt5_handler, %function
 381              	interrupt5_handler:
 382              	.LFB68:
 118:main.c        ****     if (IR_Out_Read() ==1){
 383              		.loc 1 118 0
 384              		.cfi_startproc
 385              		@ args = 0, pretend = 0, frame = 0
 386              		@ frame_needed = 0, uses_anonymous_args = 0
 387 0000 08B5     		push	{r3, lr}
 388              		.cfi_def_cfa_offset 8
 389              		.cfi_offset 3, -8
 390              		.cfi_offset 14, -4
 119:main.c        ****     puckdetected=0;
 391              		.loc 1 119 0
 392 0002 FFF7FEFF 		bl	IR_Out_Read
 393              	.LVL46:
 394 0006 0128     		cmp	r0, #1
 395 0008 05D1     		bne	.L50
 120:main.c        ****     IR_Out_ClearInterrupt();
 396              		.loc 1 120 0
 397 000a 0022     		movs	r2, #0
 398 000c 064B     		ldr	r3, .L53
 399 000e 1A70     		strb	r2, [r3]
 121:main.c        ****     }
 400              		.loc 1 121 0
 401 0010 FFF7FEFF 		bl	IR_Out_ClearInterrupt
 402              	.LVL47:
 403 0014 08BD     		pop	{r3, pc}
 404              	.L50:
 123:main.c        ****         puckdetected=1;
 405              		.loc 1 123 0
 406 0016 FFF7FEFF 		bl	IR_Out_Read
 407              	.LVL48:
 408 001a 20B9     		cbnz	r0, .L49
 124:main.c        ****         IR_Out_ClearInterrupt();
 409              		.loc 1 124 0
 410 001c 0122     		movs	r2, #1
 411 001e 024B     		ldr	r3, .L53
 412 0020 1A70     		strb	r2, [r3]
 125:main.c        ****     }
 413              		.loc 1 125 0
 414 0022 FFF7FEFF 		bl	IR_Out_ClearInterrupt
 415              	.LVL49:
 416              	.L49:
 417 0026 08BD     		pop	{r3, pc}
 418              	.L54:
 419              		.align	2
 420              	.L53:
 421 0028 00000000 		.word	puckdetected
 422              		.cfi_endproc
 423              	.LFE68:
 424              		.size	interrupt5_handler, .-interrupt5_handler
 425              		.section	.text.encode_sync,"ax",%progbits
 426              		.align	2
 427              		.global	encode_sync
ARM GAS  C:\Users\pasan savindu\AppData\Local\Temp\ccY2T3Z5.s 			page 11


 428              		.thumb
 429              		.thumb_func
 430              		.type	encode_sync, %function
 431              	encode_sync:
 432              	.LFB72:
 137:main.c        **** }
 138:main.c        **** 
 139:main.c        **** //Initializing Code Blocks
 140:main.c        **** void Initialize(void)
 141:main.c        **** {
 142:main.c        **** 	PWM_Motor_Start();
 143:main.c        **** 	QuadDec_L_Start();
 144:main.c        **** 	QuadDec_R_Start();
 145:main.c        **** 	S1_Timer_Start();
 146:main.c        **** 	S2_Timer_Start();
 147:main.c        **** 	S3_Timer_Start();
 148:main.c        **** 	S4_Timer_Start();
 149:main.c        **** 	Flicker_Servo_Start();
 150:main.c        **** 	RobotArm_Servo_Start();
 151:main.c        **** 	start_measure();
 152:main.c        **** 	isr_1_StartEx(S1_handler);
 153:main.c        **** 	isr_2_StartEx(S2_handler);
 154:main.c        **** 	isr_3_StartEx(S3_handler);
 155:main.c        **** 	isr_4_StartEx(S4_handler);
 156:main.c        ****     //isr_5_StartEx(interrupt5_handler);
 157:main.c        **** 	UART_Start();
 158:main.c        ****     I2C_Start();
 159:main.c        ****     RobotArm_Servo_WriteCompare2(500);//Gripper Closes Up
 160:main.c        ****     RobotArm_Servo_WriteCompare1(2200); //tower up
 161:main.c        ****     Flicker_Servo_WriteCompare(900);//flicker in position
 162:main.c        ****     
 163:main.c        **** }
 164:main.c        **** int main(void)
 165:main.c        **** {
 166:main.c        ****    CyGlobalIntEnable; /* Enable global interrupts. */
 167:main.c        ****    Initialize();
 168:main.c        **** 
 169:main.c        ****   
 170:main.c        ****    int counter=0;
 171:main.c        **** 
 172:main.c        ****    if (Base_Selector_Read()==1)//Button not Pressed
 173:main.c        ****         {
 174:main.c        ****          Base =1;   
 175:main.c        ****         }
 176:main.c        ****    else if (Base_Selector_Read() ==0) //Button pressed
 177:main.c        ****         {
 178:main.c        ****          Base =2;  
 179:main.c        ****         }
 180:main.c        ****         
 181:main.c        ****    for(;;)
 182:main.c        ****    {
 183:main.c        ****     switch(state){
 184:main.c        ****         case 0:
 185:main.c        ****         
 186:main.c        ****         baseRoute(Base);
 187:main.c        ****         //state++;
 188:main.c        ****         break;
ARM GAS  C:\Users\pasan savindu\AppData\Local\Temp\ccY2T3Z5.s 			page 12


 189:main.c        ****         case 1:
 190:main.c        ****         searchPuck();
 191:main.c        ****         //state++;
 192:main.c        ****         break;
 193:main.c        ****         case 2:
 194:main.c        ****         grabPuck();
 195:main.c        ****         //state++;
 196:main.c        ****         break;
 197:main.c        ****         case 3:
 198:main.c        ****         back2Base(Base);
 199:main.c        ****         break;
 200:main.c        ****         case 4:
 201:main.c        ****         sortPuck();
 202:main.c        ****         break;
 203:main.c        ****         case 5:
 204:main.c        ****         back2Zone(Base,counter);
 205:main.c        ****         counter++;
 206:main.c        ****         //state =1;
 207:main.c        ****         break;
 208:main.c        ****         default:
 209:main.c        ****         break;
 210:main.c        ****     }
 211:main.c        ****     
 212:main.c        ****    //Triggers for Obstacle Detection  
 213:main.c        **** //     while (S1_Echo_Read() == 0){
 214:main.c        **** //		S1_Trigger_Write(1);
 215:main.c        **** //		CyDelayUs(10);
 216:main.c        **** //		S1_Trigger_Write(0);
 217:main.c        **** //	    }
 218:main.c        **** //	    CyDelay(10);
 219:main.c        **** //	while (S2_Echo_Read() == 0) {
 220:main.c        **** //		S2_Trigger_Write(1);
 221:main.c        **** //		CyDelayUs(10);
 222:main.c        **** //		S2_Trigger_Write(0);
 223:main.c        **** //	     }
 224:main.c        **** //        CyDelay(10);
 225:main.c        **** 	
 226:main.c        **** //////////	CyDelay(10);
 227:main.c        **** //	while (S3_Echo_Read() == 0) {
 228:main.c        **** //		S3_Trigger_Write(1);
 229:main.c        **** //		CyDelayUs(10);
 230:main.c        **** //		S3_Trigger_Write(0);
 231:main.c        **** //	}
 232:main.c        **** //	CyDelay(10);
 233:main.c        **** //	while (S4_Echo_Read() == 0) {
 234:main.c        **** //		S4_Trigger_Write(1);
 235:main.c        **** //		CyDelayUs(10);
 236:main.c        **** //		S4_Trigger_Write(0);
 237:main.c        **** //	}
 238:main.c        **** 	CyDelay(10);
 239:main.c        **** }
 240:main.c        **** }
 241:main.c        **** 
 242:main.c        **** //Syncronize the Speeds
 243:main.c        **** void encode_sync(char Move) {
 433              		.loc 1 243 0
 434              		.cfi_startproc
ARM GAS  C:\Users\pasan savindu\AppData\Local\Temp\ccY2T3Z5.s 			page 13


 435              		@ args = 0, pretend = 0, frame = 0
 436              		@ frame_needed = 0, uses_anonymous_args = 0
 437              	.LVL50:
 438 0000 10B5     		push	{r4, lr}
 439              		.cfi_def_cfa_offset 8
 440              		.cfi_offset 4, -8
 441              		.cfi_offset 14, -4
 442 0002 0446     		mov	r4, r0
 244:main.c        ****     
 245:main.c        ****         countL = QuadDec_L_GetCounter();
 443              		.loc 1 245 0
 444 0004 FFF7FEFF 		bl	QuadDec_L_GetCounter
 445              	.LVL51:
 446 0008 1C4B     		ldr	r3, .L63
 447 000a 1860     		str	r0, [r3]
 246:main.c        ****         countR = QuadDec_R_GetCounter();
 448              		.loc 1 246 0
 449 000c FFF7FEFF 		bl	QuadDec_R_GetCounter
 450              	.LVL52:
 451 0010 1B4B     		ldr	r3, .L63+4
 452 0012 1860     		str	r0, [r3]
 247:main.c        ****    if(Move=='F')
 453              		.loc 1 247 0
 454 0014 462C     		cmp	r4, #70
 455 0016 16D1     		bne	.L56
 248:main.c        ****     {
 249:main.c        **** 	if ((countL - countR >= SYNC) || (countL - countR == 0)) {
 456              		.loc 1 249 0
 457 0018 184B     		ldr	r3, .L63
 458 001a 1B68     		ldr	r3, [r3]
 459 001c 1A1A     		subs	r2, r3, r0
 460 001e 092A     		cmp	r2, #9
 461 0020 01DC     		bgt	.L57
 462              		.loc 1 249 0 is_stmt 0 discriminator 1
 463 0022 9842     		cmp	r0, r3
 464 0024 06D1     		bne	.L58
 465              	.L57:
 250:main.c        **** 		speedL = SPEED-40;
 466              		.loc 1 250 0 is_stmt 1
 467 0026 2822     		movs	r2, #40
 468 0028 164B     		ldr	r3, .L63+8
 469 002a 1A70     		strb	r2, [r3]
 251:main.c        **** 		speedR = SPEED;  
 470              		.loc 1 251 0
 471 002c 5022     		movs	r2, #80
 472 002e 164B     		ldr	r3, .L63+12
 473 0030 1A60     		str	r2, [r3]
 474 0032 08E0     		b	.L56
 475              	.L58:
 252:main.c        **** 	}
 253:main.c        **** 	else if (countR - countL >= SYNC) {
 476              		.loc 1 253 0
 477 0034 C31A     		subs	r3, r0, r3
 478 0036 092B     		cmp	r3, #9
 479 0038 05DD     		ble	.L56
 254:main.c        **** 		speedL = SPEED+10;     //should increase
 480              		.loc 1 254 0
ARM GAS  C:\Users\pasan savindu\AppData\Local\Temp\ccY2T3Z5.s 			page 14


 481 003a 5A22     		movs	r2, #90
 482 003c 114B     		ldr	r3, .L63+8
 483 003e 1A70     		strb	r2, [r3]
 255:main.c        **** 		speedR = SPEED;
 484              		.loc 1 255 0
 485 0040 5022     		movs	r2, #80
 486 0042 114B     		ldr	r3, .L63+12
 487 0044 1A60     		str	r2, [r3]
 488              	.L56:
 256:main.c        **** 	}
 257:main.c        ****     }
 258:main.c        ****    if(Move=='B')
 489              		.loc 1 258 0
 490 0046 422C     		cmp	r4, #66
 491 0048 16D1     		bne	.L55
 259:main.c        ****     {
 260:main.c        ****       if ((countL - countR >= SYNC) || (countL - countR == 0)) {
 492              		.loc 1 260 0
 493 004a 0C4B     		ldr	r3, .L63
 494 004c 1B68     		ldr	r3, [r3]
 495 004e 1A1A     		subs	r2, r3, r0
 496 0050 092A     		cmp	r2, #9
 497 0052 01DC     		bgt	.L60
 498              		.loc 1 260 0 is_stmt 0 discriminator 1
 499 0054 9842     		cmp	r0, r3
 500 0056 06D1     		bne	.L61
 501              	.L60:
 261:main.c        **** 		speedL = SPEED+10;
 502              		.loc 1 261 0 is_stmt 1
 503 0058 5A22     		movs	r2, #90
 504 005a 0A4B     		ldr	r3, .L63+8
 505 005c 1A70     		strb	r2, [r3]
 262:main.c        **** 		speedR = SPEED;  
 506              		.loc 1 262 0
 507 005e 5022     		movs	r2, #80
 508 0060 094B     		ldr	r3, .L63+12
 509 0062 1A60     		str	r2, [r3]
 510 0064 10BD     		pop	{r4, pc}
 511              	.L61:
 263:main.c        **** 	}
 264:main.c        **** 	else if (countR - countL >= SYNC) {
 512              		.loc 1 264 0
 513 0066 C01A     		subs	r0, r0, r3
 514 0068 0928     		cmp	r0, #9
 515 006a 05DD     		ble	.L55
 265:main.c        **** 		speedL = SPEED-40;     //should increase
 516              		.loc 1 265 0
 517 006c 2822     		movs	r2, #40
 518 006e 054B     		ldr	r3, .L63+8
 519 0070 1A70     		strb	r2, [r3]
 266:main.c        **** 		speedR = SPEED;
 520              		.loc 1 266 0
 521 0072 5022     		movs	r2, #80
 522 0074 044B     		ldr	r3, .L63+12
 523 0076 1A60     		str	r2, [r3]
 524              	.L55:
 525 0078 10BD     		pop	{r4, pc}
ARM GAS  C:\Users\pasan savindu\AppData\Local\Temp\ccY2T3Z5.s 			page 15


 526              	.L64:
 527 007a 00BF     		.align	2
 528              	.L63:
 529 007c 00000000 		.word	countL
 530 0080 00000000 		.word	countR
 531 0084 00000000 		.word	speedL
 532 0088 00000000 		.word	speedR
 533              		.cfi_endproc
 534              	.LFE72:
 535              		.size	encode_sync, .-encode_sync
 536              		.section	.text.motorcontrl,"ax",%progbits
 537              		.align	2
 538              		.global	motorcontrl
 539              		.thumb
 540              		.thumb_func
 541              		.type	motorcontrl, %function
 542              	motorcontrl:
 543              	.LFB73:
 267:main.c        **** 	}
 268:main.c        ****     }
 269:main.c        **** }
 270:main.c        **** 
 271:main.c        **** // Control Inputs For Motors
 272:main.c        **** void motorcontrl(char opt) {
 544              		.loc 1 272 0
 545              		.cfi_startproc
 546              		@ args = 0, pretend = 0, frame = 0
 547              		@ frame_needed = 0, uses_anonymous_args = 0
 548              	.LVL53:
 549 0000 08B5     		push	{r3, lr}
 550              		.cfi_def_cfa_offset 8
 551              		.cfi_offset 3, -8
 552              		.cfi_offset 14, -4
 273:main.c        **** 	switch (opt) //opt==>option
 553              		.loc 1 273 0
 554 0002 4238     		subs	r0, r0, #66
 555              	.LVL54:
 556 0004 2428     		cmp	r0, #36
 557 0006 00F20581 		bhi	.L65
 558 000a DFE810F0 		tbh	[pc, r0, lsl #1]
 559              	.L68:
 560 000e 5500     		.2byte	(.L67-.L68)/2
 561 0010 CB00     		.2byte	(.L69-.L68)/2
 562 0012 0301     		.2byte	(.L65-.L68)/2
 563 0014 0301     		.2byte	(.L65-.L68)/2
 564 0016 2500     		.2byte	(.L70-.L68)/2
 565 0018 0301     		.2byte	(.L65-.L68)/2
 566 001a 0301     		.2byte	(.L65-.L68)/2
 567 001c 0301     		.2byte	(.L65-.L68)/2
 568 001e 0301     		.2byte	(.L65-.L68)/2
 569 0020 0301     		.2byte	(.L65-.L68)/2
 570 0022 A500     		.2byte	(.L71-.L68)/2
 571 0024 0301     		.2byte	(.L65-.L68)/2
 572 0026 0301     		.2byte	(.L65-.L68)/2
 573 0028 0301     		.2byte	(.L65-.L68)/2
 574 002a 0301     		.2byte	(.L65-.L68)/2
 575 002c 0301     		.2byte	(.L65-.L68)/2
ARM GAS  C:\Users\pasan savindu\AppData\Local\Temp\ccY2T3Z5.s 			page 16


 576 002e B800     		.2byte	(.L72-.L68)/2
 577 0030 8C00     		.2byte	(.L73-.L68)/2
 578 0032 0301     		.2byte	(.L65-.L68)/2
 579 0034 0301     		.2byte	(.L65-.L68)/2
 580 0036 0301     		.2byte	(.L65-.L68)/2
 581 0038 0301     		.2byte	(.L65-.L68)/2
 582 003a DE00     		.2byte	(.L74-.L68)/2
 583 003c F100     		.2byte	(.L75-.L68)/2
 584 003e 0301     		.2byte	(.L65-.L68)/2
 585 0040 0301     		.2byte	(.L65-.L68)/2
 586 0042 0301     		.2byte	(.L65-.L68)/2
 587 0044 0301     		.2byte	(.L65-.L68)/2
 588 0046 0301     		.2byte	(.L65-.L68)/2
 589 0048 0301     		.2byte	(.L65-.L68)/2
 590 004a 0301     		.2byte	(.L65-.L68)/2
 591 004c 0301     		.2byte	(.L65-.L68)/2
 592 004e 6F00     		.2byte	(.L76-.L68)/2
 593 0050 0301     		.2byte	(.L65-.L68)/2
 594 0052 0301     		.2byte	(.L65-.L68)/2
 595 0054 0301     		.2byte	(.L65-.L68)/2
 596 0056 3F00     		.2byte	(.L77-.L68)/2
 597              		.p2align 1
 598              	.L70:
 274:main.c        **** 	{
 275:main.c        **** 	case 'F': //Forward - high speed motion
 276:main.c        **** 		encode_sync('F');
 599              		.loc 1 276 0
 600 0058 4620     		movs	r0, #70
 601 005a FFF7FEFF 		bl	encode_sync
 602              	.LVL55:
 277:main.c        **** 		Forward_L_Write(1);
 603              		.loc 1 277 0
 604 005e 0120     		movs	r0, #1
 605 0060 FFF7FEFF 		bl	Forward_L_Write
 606              	.LVL56:
 278:main.c        **** 		Backward_L_Write(0);
 607              		.loc 1 278 0
 608 0064 0020     		movs	r0, #0
 609 0066 FFF7FEFF 		bl	Backward_L_Write
 610              	.LVL57:
 279:main.c        **** 		Forwad_R_Write(1);
 611              		.loc 1 279 0
 612 006a 0120     		movs	r0, #1
 613 006c FFF7FEFF 		bl	Forwad_R_Write
 614              	.LVL58:
 280:main.c        **** 		Backward_R_Write(0);
 615              		.loc 1 280 0
 616 0070 0020     		movs	r0, #0
 617 0072 FFF7FEFF 		bl	Backward_R_Write
 618              	.LVL59:
 281:main.c        **** 		PWM_Motor_WriteCompare1(speedL);
 619              		.loc 1 281 0
 620 0076 684B     		ldr	r3, .L79
 621 0078 93F90000 		ldrsb	r0, [r3]
 622 007c 80B2     		uxth	r0, r0
 623 007e FFF7FEFF 		bl	PWM_Motor_WriteCompare1
 624              	.LVL60:
ARM GAS  C:\Users\pasan savindu\AppData\Local\Temp\ccY2T3Z5.s 			page 17


 282:main.c        **** 		PWM_Motor_WriteCompare2(speedR);
 625              		.loc 1 282 0
 626 0082 664B     		ldr	r3, .L79+4
 627 0084 1888     		ldrh	r0, [r3]
 628 0086 FFF7FEFF 		bl	PWM_Motor_WriteCompare2
 629              	.LVL61:
 283:main.c        **** 		break;
 630              		.loc 1 283 0
 631 008a 08BD     		pop	{r3, pc}
 632              	.L77:
 284:main.c        ****     case 'f': //Forward - low speed motion
 285:main.c        **** 		encode_sync('F');
 633              		.loc 1 285 0
 634 008c 4620     		movs	r0, #70
 635 008e FFF7FEFF 		bl	encode_sync
 636              	.LVL62:
 286:main.c        **** 		Forward_L_Write(1);
 637              		.loc 1 286 0
 638 0092 0120     		movs	r0, #1
 639 0094 FFF7FEFF 		bl	Forward_L_Write
 640              	.LVL63:
 287:main.c        **** 		Backward_L_Write(0);
 641              		.loc 1 287 0
 642 0098 0020     		movs	r0, #0
 643 009a FFF7FEFF 		bl	Backward_L_Write
 644              	.LVL64:
 288:main.c        **** 		Forwad_R_Write(1);
 645              		.loc 1 288 0
 646 009e 0120     		movs	r0, #1
 647 00a0 FFF7FEFF 		bl	Forwad_R_Write
 648              	.LVL65:
 289:main.c        **** 		Backward_R_Write(0);
 649              		.loc 1 289 0
 650 00a4 0020     		movs	r0, #0
 651 00a6 FFF7FEFF 		bl	Backward_R_Write
 652              	.LVL66:
 290:main.c        **** 		PWM_Motor_WriteCompare1(SPEED);
 653              		.loc 1 290 0
 654 00aa 5020     		movs	r0, #80
 655 00ac FFF7FEFF 		bl	PWM_Motor_WriteCompare1
 656              	.LVL67:
 291:main.c        **** 		PWM_Motor_WriteCompare2(SPEED);
 657              		.loc 1 291 0
 658 00b0 5020     		movs	r0, #80
 659 00b2 FFF7FEFF 		bl	PWM_Motor_WriteCompare2
 660              	.LVL68:
 292:main.c        **** 		break;
 661              		.loc 1 292 0
 662 00b6 08BD     		pop	{r3, pc}
 663              	.L67:
 293:main.c        **** 	case 'B': //Backward - high speed motion
 294:main.c        **** 	    encode_sync('B');
 664              		.loc 1 294 0
 665 00b8 4220     		movs	r0, #66
 666 00ba FFF7FEFF 		bl	encode_sync
 667              	.LVL69:
 295:main.c        **** 		Forward_L_Write(0);
ARM GAS  C:\Users\pasan savindu\AppData\Local\Temp\ccY2T3Z5.s 			page 18


 668              		.loc 1 295 0
 669 00be 0020     		movs	r0, #0
 670 00c0 FFF7FEFF 		bl	Forward_L_Write
 671              	.LVL70:
 296:main.c        **** 		Backward_L_Write(1);
 672              		.loc 1 296 0
 673 00c4 0120     		movs	r0, #1
 674 00c6 FFF7FEFF 		bl	Backward_L_Write
 675              	.LVL71:
 297:main.c        **** 		Forwad_R_Write(0);
 676              		.loc 1 297 0
 677 00ca 0020     		movs	r0, #0
 678 00cc FFF7FEFF 		bl	Forwad_R_Write
 679              	.LVL72:
 298:main.c        **** 		Backward_R_Write(1);
 680              		.loc 1 298 0
 681 00d0 0120     		movs	r0, #1
 682 00d2 FFF7FEFF 		bl	Backward_R_Write
 683              	.LVL73:
 299:main.c        **** 		PWM_Motor_WriteCompare1(speedL);
 684              		.loc 1 299 0
 685 00d6 504B     		ldr	r3, .L79
 686 00d8 93F90000 		ldrsb	r0, [r3]
 687 00dc 80B2     		uxth	r0, r0
 688 00de FFF7FEFF 		bl	PWM_Motor_WriteCompare1
 689              	.LVL74:
 300:main.c        **** 		PWM_Motor_WriteCompare2(speedR);
 690              		.loc 1 300 0
 691 00e2 4E4B     		ldr	r3, .L79+4
 692 00e4 1888     		ldrh	r0, [r3]
 693 00e6 FFF7FEFF 		bl	PWM_Motor_WriteCompare2
 694              	.LVL75:
 301:main.c        **** 		break;
 695              		.loc 1 301 0
 696 00ea 08BD     		pop	{r3, pc}
 697              	.L76:
 302:main.c        ****     case 'b'://Back - low speed motion
 303:main.c        ****         encode_sync('B');
 698              		.loc 1 303 0
 699 00ec 4220     		movs	r0, #66
 700 00ee FFF7FEFF 		bl	encode_sync
 701              	.LVL76:
 304:main.c        ****         Forward_L_Write(0);
 702              		.loc 1 304 0
 703 00f2 0020     		movs	r0, #0
 704 00f4 FFF7FEFF 		bl	Forward_L_Write
 705              	.LVL77:
 305:main.c        **** 		Backward_L_Write(1);
 706              		.loc 1 305 0
 707 00f8 0120     		movs	r0, #1
 708 00fa FFF7FEFF 		bl	Backward_L_Write
 709              	.LVL78:
 306:main.c        **** 		Forwad_R_Write(0);
 710              		.loc 1 306 0
 711 00fe 0020     		movs	r0, #0
 712 0100 FFF7FEFF 		bl	Forwad_R_Write
 713              	.LVL79:
ARM GAS  C:\Users\pasan savindu\AppData\Local\Temp\ccY2T3Z5.s 			page 19


 307:main.c        **** 		Backward_R_Write(1);
 714              		.loc 1 307 0
 715 0104 0120     		movs	r0, #1
 716 0106 FFF7FEFF 		bl	Backward_R_Write
 717              	.LVL80:
 308:main.c        **** 		PWM_Motor_WriteCompare1(speedL-20);
 718              		.loc 1 308 0
 719 010a 434B     		ldr	r3, .L79
 720 010c 93F90000 		ldrsb	r0, [r3]
 721 0110 1438     		subs	r0, r0, #20
 722 0112 80B2     		uxth	r0, r0
 723 0114 FFF7FEFF 		bl	PWM_Motor_WriteCompare1
 724              	.LVL81:
 309:main.c        **** 		PWM_Motor_WriteCompare2(speedR-20);
 725              		.loc 1 309 0
 726 0118 404B     		ldr	r3, .L79+4
 727 011a 1868     		ldr	r0, [r3]
 728 011c 1438     		subs	r0, r0, #20
 729 011e 80B2     		uxth	r0, r0
 730 0120 FFF7FEFF 		bl	PWM_Motor_WriteCompare2
 731              	.LVL82:
 310:main.c        ****         break;
 732              		.loc 1 310 0
 733 0124 08BD     		pop	{r3, pc}
 734              	.L73:
 311:main.c        **** 	case 'S': //Stop
 312:main.c        **** 		Forward_L_Write(0);
 735              		.loc 1 312 0
 736 0126 0020     		movs	r0, #0
 737 0128 FFF7FEFF 		bl	Forward_L_Write
 738              	.LVL83:
 313:main.c        **** 		Backward_L_Write(0);
 739              		.loc 1 313 0
 740 012c 0020     		movs	r0, #0
 741 012e FFF7FEFF 		bl	Backward_L_Write
 742              	.LVL84:
 314:main.c        **** 		Forwad_R_Write(0);
 743              		.loc 1 314 0
 744 0132 0020     		movs	r0, #0
 745 0134 FFF7FEFF 		bl	Forwad_R_Write
 746              	.LVL85:
 315:main.c        **** 		Backward_R_Write(0);
 747              		.loc 1 315 0
 748 0138 0020     		movs	r0, #0
 749 013a FFF7FEFF 		bl	Backward_R_Write
 750              	.LVL86:
 316:main.c        **** 		PWM_Motor_WriteCompare1(0);
 751              		.loc 1 316 0
 752 013e 0020     		movs	r0, #0
 753 0140 FFF7FEFF 		bl	PWM_Motor_WriteCompare1
 754              	.LVL87:
 317:main.c        **** 		PWM_Motor_WriteCompare2(0);
 755              		.loc 1 317 0
 756 0144 0020     		movs	r0, #0
 757 0146 FFF7FEFF 		bl	PWM_Motor_WriteCompare2
 758              	.LVL88:
 318:main.c        **** 		QuadDec_L_SetCounter(0);
ARM GAS  C:\Users\pasan savindu\AppData\Local\Temp\ccY2T3Z5.s 			page 20


 759              		.loc 1 318 0
 760 014a 0020     		movs	r0, #0
 761 014c FFF7FEFF 		bl	QuadDec_L_SetCounter
 762              	.LVL89:
 319:main.c        **** 		QuadDec_R_SetCounter(0);
 763              		.loc 1 319 0
 764 0150 0020     		movs	r0, #0
 765 0152 FFF7FEFF 		bl	QuadDec_R_SetCounter
 766              	.LVL90:
 320:main.c        **** 		break;
 767              		.loc 1 320 0
 768 0156 08BD     		pop	{r3, pc}
 769              	.L71:
 321:main.c        **** 	case 'L': //Left
 322:main.c        **** 		Forward_L_Write(0);
 770              		.loc 1 322 0
 771 0158 0020     		movs	r0, #0
 772 015a FFF7FEFF 		bl	Forward_L_Write
 773              	.LVL91:
 323:main.c        **** 		Backward_L_Write(1);
 774              		.loc 1 323 0
 775 015e 0120     		movs	r0, #1
 776 0160 FFF7FEFF 		bl	Backward_L_Write
 777              	.LVL92:
 324:main.c        **** 		Forwad_R_Write(1);
 778              		.loc 1 324 0
 779 0164 0120     		movs	r0, #1
 780 0166 FFF7FEFF 		bl	Forwad_R_Write
 781              	.LVL93:
 325:main.c        **** 		Backward_R_Write(0);
 782              		.loc 1 325 0
 783 016a 0020     		movs	r0, #0
 784 016c FFF7FEFF 		bl	Backward_R_Write
 785              	.LVL94:
 326:main.c        **** 		PWM_Motor_WriteCompare1(SPEED);
 786              		.loc 1 326 0
 787 0170 5020     		movs	r0, #80
 788 0172 FFF7FEFF 		bl	PWM_Motor_WriteCompare1
 789              	.LVL95:
 327:main.c        **** 		PWM_Motor_WriteCompare2(SPEED);
 790              		.loc 1 327 0
 791 0176 5020     		movs	r0, #80
 792 0178 FFF7FEFF 		bl	PWM_Motor_WriteCompare2
 793              	.LVL96:
 328:main.c        **** 		break;
 794              		.loc 1 328 0
 795 017c 08BD     		pop	{r3, pc}
 796              	.L72:
 329:main.c        **** 	case 'R': //Right
 330:main.c        **** 		Forward_L_Write(1);
 797              		.loc 1 330 0
 798 017e 0120     		movs	r0, #1
 799 0180 FFF7FEFF 		bl	Forward_L_Write
 800              	.LVL97:
 331:main.c        **** 		Backward_L_Write(0);
 801              		.loc 1 331 0
 802 0184 0020     		movs	r0, #0
ARM GAS  C:\Users\pasan savindu\AppData\Local\Temp\ccY2T3Z5.s 			page 21


 803 0186 FFF7FEFF 		bl	Backward_L_Write
 804              	.LVL98:
 332:main.c        **** 		Forwad_R_Write(0);
 805              		.loc 1 332 0
 806 018a 0020     		movs	r0, #0
 807 018c FFF7FEFF 		bl	Forwad_R_Write
 808              	.LVL99:
 333:main.c        **** 		Backward_R_Write(1);
 809              		.loc 1 333 0
 810 0190 0120     		movs	r0, #1
 811 0192 FFF7FEFF 		bl	Backward_R_Write
 812              	.LVL100:
 334:main.c        **** 		PWM_Motor_WriteCompare1(SPEED);
 813              		.loc 1 334 0
 814 0196 5020     		movs	r0, #80
 815 0198 FFF7FEFF 		bl	PWM_Motor_WriteCompare1
 816              	.LVL101:
 335:main.c        **** 		PWM_Motor_WriteCompare2(SPEED);
 817              		.loc 1 335 0
 818 019c 5020     		movs	r0, #80
 819 019e FFF7FEFF 		bl	PWM_Motor_WriteCompare2
 820              	.LVL102:
 336:main.c        **** 		break;
 821              		.loc 1 336 0
 822 01a2 08BD     		pop	{r3, pc}
 823              	.L69:
 337:main.c        **** 	case 'C': //Callibrate
 338:main.c        **** 		Forward_L_Write(1);
 824              		.loc 1 338 0
 825 01a4 0120     		movs	r0, #1
 826 01a6 FFF7FEFF 		bl	Forward_L_Write
 827              	.LVL103:
 339:main.c        **** 		Backward_L_Write(0);
 828              		.loc 1 339 0
 829 01aa 0020     		movs	r0, #0
 830 01ac FFF7FEFF 		bl	Backward_L_Write
 831              	.LVL104:
 340:main.c        **** 		Forwad_R_Write(1);
 832              		.loc 1 340 0
 833 01b0 0120     		movs	r0, #1
 834 01b2 FFF7FEFF 		bl	Forwad_R_Write
 835              	.LVL105:
 341:main.c        **** 		Backward_R_Write(0);
 836              		.loc 1 341 0
 837 01b6 0020     		movs	r0, #0
 838 01b8 FFF7FEFF 		bl	Backward_R_Write
 839              	.LVL106:
 342:main.c        **** 		PWM_Motor_WriteCompare1(SPEED);
 840              		.loc 1 342 0
 841 01bc 5020     		movs	r0, #80
 842 01be FFF7FEFF 		bl	PWM_Motor_WriteCompare1
 843              	.LVL107:
 343:main.c        **** 		PWM_Motor_WriteCompare2(SPEED);
 844              		.loc 1 343 0
 845 01c2 5020     		movs	r0, #80
 846 01c4 FFF7FEFF 		bl	PWM_Motor_WriteCompare2
 847              	.LVL108:
ARM GAS  C:\Users\pasan savindu\AppData\Local\Temp\ccY2T3Z5.s 			page 22


 344:main.c        **** 		break;
 848              		.loc 1 344 0
 849 01c8 08BD     		pop	{r3, pc}
 850              	.L74:
 345:main.c        **** 	case 'X': // Reverse Left
 346:main.c        **** 		Forward_L_Write(0);
 851              		.loc 1 346 0
 852 01ca 0020     		movs	r0, #0
 853 01cc FFF7FEFF 		bl	Forward_L_Write
 854              	.LVL109:
 347:main.c        **** 		Backward_L_Write(1);
 855              		.loc 1 347 0
 856 01d0 0120     		movs	r0, #1
 857 01d2 FFF7FEFF 		bl	Backward_L_Write
 858              	.LVL110:
 348:main.c        **** 		Forwad_R_Write(0);
 859              		.loc 1 348 0
 860 01d6 0020     		movs	r0, #0
 861 01d8 FFF7FEFF 		bl	Forwad_R_Write
 862              	.LVL111:
 349:main.c        **** 		Backward_R_Write(0);
 863              		.loc 1 349 0
 864 01dc 0020     		movs	r0, #0
 865 01de FFF7FEFF 		bl	Backward_R_Write
 866              	.LVL112:
 350:main.c        **** 		PWM_Motor_WriteCompare1(SPEED);
 867              		.loc 1 350 0
 868 01e2 5020     		movs	r0, #80
 869 01e4 FFF7FEFF 		bl	PWM_Motor_WriteCompare1
 870              	.LVL113:
 351:main.c        **** 		PWM_Motor_WriteCompare2(0);
 871              		.loc 1 351 0
 872 01e8 0020     		movs	r0, #0
 873 01ea FFF7FEFF 		bl	PWM_Motor_WriteCompare2
 874              	.LVL114:
 352:main.c        **** 		break;
 875              		.loc 1 352 0
 876 01ee 08BD     		pop	{r3, pc}
 877              	.L75:
 353:main.c        **** 	case 'Y': //Reverse Right
 354:main.c        **** 		Forward_L_Write(0);
 878              		.loc 1 354 0
 879 01f0 0020     		movs	r0, #0
 880 01f2 FFF7FEFF 		bl	Forward_L_Write
 881              	.LVL115:
 355:main.c        **** 		Backward_L_Write(0);
 882              		.loc 1 355 0
 883 01f6 0020     		movs	r0, #0
 884 01f8 FFF7FEFF 		bl	Backward_L_Write
 885              	.LVL116:
 356:main.c        **** 		Forwad_R_Write(0);
 886              		.loc 1 356 0
 887 01fc 0020     		movs	r0, #0
 888 01fe FFF7FEFF 		bl	Forwad_R_Write
 889              	.LVL117:
 357:main.c        **** 		Backward_R_Write(1);
 890              		.loc 1 357 0
ARM GAS  C:\Users\pasan savindu\AppData\Local\Temp\ccY2T3Z5.s 			page 23


 891 0202 0120     		movs	r0, #1
 892 0204 FFF7FEFF 		bl	Backward_R_Write
 893              	.LVL118:
 358:main.c        **** 		PWM_Motor_WriteCompare1(0);
 894              		.loc 1 358 0
 895 0208 0020     		movs	r0, #0
 896 020a FFF7FEFF 		bl	PWM_Motor_WriteCompare1
 897              	.LVL119:
 359:main.c        **** 		PWM_Motor_WriteCompare2(SPEED);
 898              		.loc 1 359 0
 899 020e 5020     		movs	r0, #80
 900 0210 FFF7FEFF 		bl	PWM_Motor_WriteCompare2
 901              	.LVL120:
 902              	.L65:
 903 0214 08BD     		pop	{r3, pc}
 904              	.L80:
 905 0216 00BF     		.align	2
 906              	.L79:
 907 0218 00000000 		.word	speedL
 908 021c 00000000 		.word	speedR
 909              		.cfi_endproc
 910              	.LFE73:
 911              		.size	motorcontrl, .-motorcontrl
 912              		.section	.text.move_straight,"ax",%progbits
 913              		.align	2
 914              		.global	move_straight
 915              		.thumb
 916              		.thumb_func
 917              		.type	move_straight, %function
 918              	move_straight:
 919              	.LFB74:
 360:main.c        **** 		break;
 361:main.c        **** 	default:
 362:main.c        **** 		break;
 363:main.c        **** 	}
 364:main.c        **** }
 365:main.c        **** 
 366:main.c        **** //To move forward/Backward a certain distance
 367:main.c        **** void move_straight(char direction,int distance){
 920              		.loc 1 367 0
 921              		.cfi_startproc
 922              		@ args = 0, pretend = 0, frame = 0
 923              		@ frame_needed = 0, uses_anonymous_args = 0
 924              	.LVL121:
 925 0000 70B5     		push	{r4, r5, r6, lr}
 926              		.cfi_def_cfa_offset 16
 927              		.cfi_offset 4, -16
 928              		.cfi_offset 5, -12
 929              		.cfi_offset 6, -8
 930              		.cfi_offset 14, -4
 931 0002 0546     		mov	r5, r0
 932 0004 0E46     		mov	r6, r1
 933              	.LVL122:
 368:main.c        ****     int8 command=0;
 934              		.loc 1 368 0
 935 0006 0024     		movs	r4, #0
 369:main.c        **** 	while (command == 0) 
ARM GAS  C:\Users\pasan savindu\AppData\Local\Temp\ccY2T3Z5.s 			page 24


 936              		.loc 1 369 0
 937 0008 0BE0     		b	.L82
 938              	.LVL123:
 939              	.L83:
 370:main.c        ****     {
 371:main.c        **** 		QuadDec_L_SetCounter(0);
 940              		.loc 1 371 0
 941 000a 0020     		movs	r0, #0
 942 000c FFF7FEFF 		bl	QuadDec_L_SetCounter
 943              	.LVL124:
 372:main.c        **** 		QuadDec_R_SetCounter(0);
 944              		.loc 1 372 0
 945 0010 0020     		movs	r0, #0
 946 0012 FFF7FEFF 		bl	QuadDec_R_SetCounter
 947              	.LVL125:
 373:main.c        **** 		countL = 0;
 948              		.loc 1 373 0
 949 0016 0023     		movs	r3, #0
 950 0018 1E4A     		ldr	r2, .L93
 951 001a 1360     		str	r3, [r2]
 374:main.c        **** 		countR = 0;
 952              		.loc 1 374 0
 953 001c 1E4A     		ldr	r2, .L93+4
 954 001e 1360     		str	r3, [r2]
 955              	.LVL126:
 375:main.c        **** 		command = 1;
 956              		.loc 1 375 0
 957 0020 0124     		movs	r4, #1
 958              	.LVL127:
 959              	.L82:
 369:main.c        ****     {
 960              		.loc 1 369 0
 961 0022 002C     		cmp	r4, #0
 962 0024 F1D0     		beq	.L83
 963 0026 31E0     		b	.L84
 964              	.L91:
 376:main.c        **** 	}
 377:main.c        ****     while(command==1)
 378:main.c        ****     {
 379:main.c        ****         countL = QuadDec_L_GetCounter();
 965              		.loc 1 379 0
 966 0028 FFF7FEFF 		bl	QuadDec_L_GetCounter
 967              	.LVL128:
 968 002c 194B     		ldr	r3, .L93
 969 002e 1860     		str	r0, [r3]
 380:main.c        ****         countR = QuadDec_R_GetCounter();
 970              		.loc 1 380 0
 971 0030 FFF7FEFF 		bl	QuadDec_R_GetCounter
 972              	.LVL129:
 973 0034 184B     		ldr	r3, .L93+4
 974 0036 1860     		str	r0, [r3]
 381:main.c        **** //        sprintf(string1,"Left Counter Value = %d\n",countR);
 382:main.c        **** //        UART_PutString(string1);
 383:main.c        ****         if(direction == 'F')
 975              		.loc 1 383 0
 976 0038 462D     		cmp	r5, #70
 977 003a 12D1     		bne	.L85
ARM GAS  C:\Users\pasan savindu\AppData\Local\Temp\ccY2T3Z5.s 			page 25


 384:main.c        ****         {
 385:main.c        **** 	      if ((countR <= distance) || (countL <= distance))
 978              		.loc 1 385 0
 979 003c B042     		cmp	r0, r6
 980 003e 03DD     		ble	.L86
 981              		.loc 1 385 0 is_stmt 0 discriminator 1
 982 0040 144B     		ldr	r3, .L93
 983 0042 1B68     		ldr	r3, [r3]
 984 0044 9E42     		cmp	r6, r3
 985 0046 03DB     		blt	.L87
 986              	.L86:
 386:main.c        **** 	        {
 387:main.c        **** 		     motorcontrl('F');
 987              		.loc 1 387 0 is_stmt 1
 988 0048 4620     		movs	r0, #70
 989 004a FFF7FEFF 		bl	motorcontrl
 990              	.LVL130:
 991 004e 1DE0     		b	.L84
 992              	.L87:
 388:main.c        **** 	        }
 389:main.c        **** 	      else
 390:main.c        **** 	       {
 391:main.c        **** 		     motorcontrl('S');
 993              		.loc 1 391 0
 994 0050 5320     		movs	r0, #83
 995 0052 FFF7FEFF 		bl	motorcontrl
 996              	.LVL131:
 392:main.c        **** 		     countL = 0;
 997              		.loc 1 392 0
 998 0056 0024     		movs	r4, #0
 999              	.LVL132:
 1000 0058 0E4B     		ldr	r3, .L93
 1001 005a 1C60     		str	r4, [r3]
 393:main.c        **** 		     countR = 0;
 1002              		.loc 1 393 0
 1003 005c 0E4B     		ldr	r3, .L93+4
 1004 005e 1C60     		str	r4, [r3]
 1005              	.LVL133:
 1006 0060 14E0     		b	.L84
 1007              	.LVL134:
 1008              	.L85:
 394:main.c        **** 		     command = 0;
 395:main.c        **** 	       }
 396:main.c        ****         }
 397:main.c        ****         else if (direction == 'B')
 1009              		.loc 1 397 0
 1010 0062 422D     		cmp	r5, #66
 1011 0064 12D1     		bne	.L84
 398:main.c        ****         {
 399:main.c        ****             if ((countR >= -1 * distance) || (countL >= -1 * distance))
 1012              		.loc 1 399 0
 1013 0066 7342     		negs	r3, r6
 1014 0068 9842     		cmp	r0, r3
 1015 006a 03DA     		bge	.L89
 1016              		.loc 1 399 0 is_stmt 0 discriminator 1
 1017 006c 094A     		ldr	r2, .L93
 1018 006e 1268     		ldr	r2, [r2]
ARM GAS  C:\Users\pasan savindu\AppData\Local\Temp\ccY2T3Z5.s 			page 26


 1019 0070 9342     		cmp	r3, r2
 1020 0072 03DC     		bgt	.L90
 1021              	.L89:
 400:main.c        **** 	            {
 401:main.c        **** 		          motorcontrl('B');
 1022              		.loc 1 401 0 is_stmt 1
 1023 0074 4220     		movs	r0, #66
 1024 0076 FFF7FEFF 		bl	motorcontrl
 1025              	.LVL135:
 1026 007a 07E0     		b	.L84
 1027              	.L90:
 402:main.c        **** 	            }
 403:main.c        **** 	        else
 404:main.c        **** 	            {
 405:main.c        **** 		         motorcontrl('S');
 1028              		.loc 1 405 0
 1029 007c 5320     		movs	r0, #83
 1030 007e FFF7FEFF 		bl	motorcontrl
 1031              	.LVL136:
 406:main.c        **** 		         countL = 0;
 1032              		.loc 1 406 0
 1033 0082 0024     		movs	r4, #0
 1034              	.LVL137:
 1035 0084 034B     		ldr	r3, .L93
 1036 0086 1C60     		str	r4, [r3]
 407:main.c        **** 		         countR = 0;
 1037              		.loc 1 407 0
 1038 0088 034B     		ldr	r3, .L93+4
 1039 008a 1C60     		str	r4, [r3]
 1040              	.LVL138:
 1041              	.L84:
 377:main.c        ****     {
 1042              		.loc 1 377 0
 1043 008c 002C     		cmp	r4, #0
 1044 008e CBD1     		bne	.L91
 408:main.c        **** 		         command = 0;
 409:main.c        **** 	            }
 410:main.c        ****         }
 411:main.c        ****     }
 412:main.c        **** }
 1045              		.loc 1 412 0
 1046 0090 70BD     		pop	{r4, r5, r6, pc}
 1047              	.LVL139:
 1048              	.L94:
 1049 0092 00BF     		.align	2
 1050              	.L93:
 1051 0094 00000000 		.word	countL
 1052 0098 00000000 		.word	countR
 1053              		.cfi_endproc
 1054              	.LFE74:
 1055              		.size	move_straight, .-move_straight
 1056              		.section	.text.turn,"ax",%progbits
 1057              		.align	2
 1058              		.global	turn
 1059              		.thumb
 1060              		.thumb_func
 1061              		.type	turn, %function
ARM GAS  C:\Users\pasan savindu\AppData\Local\Temp\ccY2T3Z5.s 			page 27


 1062              	turn:
 1063              	.LFB75:
 413:main.c        **** 
 414:main.c        **** //To Turn 90 Degree Angles.
 415:main.c        **** void turn(char direction,int degree){
 1064              		.loc 1 415 0
 1065              		.cfi_startproc
 1066              		@ args = 0, pretend = 0, frame = 0
 1067              		@ frame_needed = 0, uses_anonymous_args = 0
 1068              	.LVL140:
 1069 0000 70B5     		push	{r4, r5, r6, lr}
 1070              		.cfi_def_cfa_offset 16
 1071              		.cfi_offset 4, -16
 1072              		.cfi_offset 5, -12
 1073              		.cfi_offset 6, -8
 1074              		.cfi_offset 14, -4
 1075 0002 0546     		mov	r5, r0
 1076 0004 0E46     		mov	r6, r1
 1077              	.LVL141:
 416:main.c        ****     int8 command=0;
 1078              		.loc 1 416 0
 1079 0006 0024     		movs	r4, #0
 417:main.c        **** 	while (command == 0) 
 1080              		.loc 1 417 0
 1081 0008 0BE0     		b	.L96
 1082              	.LVL142:
 1083              	.L97:
 418:main.c        ****     {
 419:main.c        **** 		QuadDec_L_SetCounter(0);
 1084              		.loc 1 419 0
 1085 000a 0020     		movs	r0, #0
 1086 000c FFF7FEFF 		bl	QuadDec_L_SetCounter
 1087              	.LVL143:
 420:main.c        **** 		QuadDec_R_SetCounter(0);
 1088              		.loc 1 420 0
 1089 0010 0020     		movs	r0, #0
 1090 0012 FFF7FEFF 		bl	QuadDec_R_SetCounter
 1091              	.LVL144:
 421:main.c        **** 		countL = 0;
 1092              		.loc 1 421 0
 1093 0016 0023     		movs	r3, #0
 1094 0018 1A4A     		ldr	r2, .L105
 1095 001a 1360     		str	r3, [r2]
 422:main.c        **** 		countR = 0;
 1096              		.loc 1 422 0
 1097 001c 1A4A     		ldr	r2, .L105+4
 1098 001e 1360     		str	r3, [r2]
 1099              	.LVL145:
 423:main.c        **** 		command = 1;
 1100              		.loc 1 423 0
 1101 0020 0124     		movs	r4, #1
 1102              	.LVL146:
 1103              	.L96:
 417:main.c        ****     {
 1104              		.loc 1 417 0
 1105 0022 002C     		cmp	r4, #0
 1106 0024 F1D0     		beq	.L97
ARM GAS  C:\Users\pasan savindu\AppData\Local\Temp\ccY2T3Z5.s 			page 28


 1107 0026 2AE0     		b	.L98
 1108              	.L103:
 424:main.c        **** 	}
 425:main.c        ****     while(command ==1)
 426:main.c        ****     {
 427:main.c        ****         countL = QuadDec_L_GetCounter();
 1109              		.loc 1 427 0
 1110 0028 FFF7FEFF 		bl	QuadDec_L_GetCounter
 1111              	.LVL147:
 1112 002c 154B     		ldr	r3, .L105
 1113 002e 1860     		str	r0, [r3]
 428:main.c        ****         countR = QuadDec_R_GetCounter();
 1114              		.loc 1 428 0
 1115 0030 FFF7FEFF 		bl	QuadDec_R_GetCounter
 1116              	.LVL148:
 1117 0034 144B     		ldr	r3, .L105+4
 1118 0036 1860     		str	r0, [r3]
 429:main.c        ****         
 430:main.c        ****          if (direction =='L')
 1119              		.loc 1 430 0
 1120 0038 4C2D     		cmp	r5, #76
 1121 003a 0ED1     		bne	.L99
 431:main.c        ****           {
 432:main.c        ****             if (countR <= degree)
 1122              		.loc 1 432 0
 1123 003c B042     		cmp	r0, r6
 1124 003e 03DC     		bgt	.L100
 433:main.c        **** 	          {
 434:main.c        **** 		       motorcontrl('L');
 1125              		.loc 1 434 0
 1126 0040 4C20     		movs	r0, #76
 1127 0042 FFF7FEFF 		bl	motorcontrl
 1128              	.LVL149:
 1129 0046 1AE0     		b	.L98
 1130              	.L100:
 435:main.c        **** 	          }
 436:main.c        **** 	        else
 437:main.c        ****             {
 438:main.c        **** 		      motorcontrl('S');
 1131              		.loc 1 438 0
 1132 0048 5320     		movs	r0, #83
 1133 004a FFF7FEFF 		bl	motorcontrl
 1134              	.LVL150:
 439:main.c        **** 		      countL = 0;
 1135              		.loc 1 439 0
 1136 004e 0024     		movs	r4, #0
 1137              	.LVL151:
 1138 0050 0C4B     		ldr	r3, .L105
 1139 0052 1C60     		str	r4, [r3]
 440:main.c        **** 		      countR = 0;
 1140              		.loc 1 440 0
 1141 0054 0C4B     		ldr	r3, .L105+4
 1142 0056 1C60     		str	r4, [r3]
 1143              	.LVL152:
 1144 0058 11E0     		b	.L98
 1145              	.LVL153:
 1146              	.L99:
ARM GAS  C:\Users\pasan savindu\AppData\Local\Temp\ccY2T3Z5.s 			page 29


 441:main.c        ****               command=0;
 442:main.c        **** 	         }
 443:main.c        ****           }
 444:main.c        ****          else if(direction=='R')
 1147              		.loc 1 444 0
 1148 005a 522D     		cmp	r5, #82
 1149 005c 0FD1     		bne	.L98
 445:main.c        ****           {
 446:main.c        ****             if (countL <= degree)
 1150              		.loc 1 446 0
 1151 005e 094B     		ldr	r3, .L105
 1152 0060 1B68     		ldr	r3, [r3]
 1153 0062 9E42     		cmp	r6, r3
 1154 0064 03DB     		blt	.L102
 447:main.c        **** 	          {
 448:main.c        **** 		      motorcontrl('R');
 1155              		.loc 1 448 0
 1156 0066 5220     		movs	r0, #82
 1157 0068 FFF7FEFF 		bl	motorcontrl
 1158              	.LVL154:
 1159 006c 07E0     		b	.L98
 1160              	.L102:
 449:main.c        **** 	          }
 450:main.c        **** 	        else {
 451:main.c        **** 		      motorcontrl('S');
 1161              		.loc 1 451 0
 1162 006e 5320     		movs	r0, #83
 1163 0070 FFF7FEFF 		bl	motorcontrl
 1164              	.LVL155:
 452:main.c        **** 		      countL = 0;
 1165              		.loc 1 452 0
 1166 0074 0024     		movs	r4, #0
 1167              	.LVL156:
 1168 0076 034B     		ldr	r3, .L105
 1169 0078 1C60     		str	r4, [r3]
 453:main.c        **** 		      countR = 0;
 1170              		.loc 1 453 0
 1171 007a 034B     		ldr	r3, .L105+4
 1172 007c 1C60     		str	r4, [r3]
 1173              	.LVL157:
 1174              	.L98:
 425:main.c        ****     {
 1175              		.loc 1 425 0
 1176 007e 002C     		cmp	r4, #0
 1177 0080 D2D1     		bne	.L103
 454:main.c        ****               command=0;
 455:main.c        **** 	             }
 456:main.c        ****           }
 457:main.c        ****     }
 458:main.c        ****     
 459:main.c        **** }
 1178              		.loc 1 459 0
 1179 0082 70BD     		pop	{r4, r5, r6, pc}
 1180              	.LVL158:
 1181              	.L106:
 1182              		.align	2
 1183              	.L105:
ARM GAS  C:\Users\pasan savindu\AppData\Local\Temp\ccY2T3Z5.s 			page 30


 1184 0084 00000000 		.word	countL
 1185 0088 00000000 		.word	countR
 1186              		.cfi_endproc
 1187              	.LFE75:
 1188              		.size	turn, .-turn
 1189              		.section	.text.wall_allignment,"ax",%progbits
 1190              		.align	2
 1191              		.global	wall_allignment
 1192              		.thumb
 1193              		.thumb_func
 1194              		.type	wall_allignment, %function
 1195              	wall_allignment:
 1196              	.LFB76:
 460:main.c        **** 
 461:main.c        **** //Wall Allignment
 462:main.c        **** void wall_allignment(){
 1197              		.loc 1 462 0
 1198              		.cfi_startproc
 1199              		@ args = 0, pretend = 0, frame = 0
 1200              		@ frame_needed = 0, uses_anonymous_args = 0
 1201 0000 10B5     		push	{r4, lr}
 1202              		.cfi_def_cfa_offset 8
 1203              		.cfi_offset 4, -8
 1204              		.cfi_offset 14, -4
 1205              	.LVL159:
 463:main.c        ****     int wall_detected=0;
 1206              		.loc 1 463 0
 1207 0002 0024     		movs	r4, #0
 464:main.c        ****     
 465:main.c        ****     while (wall_detected == 0)
 1208              		.loc 1 465 0
 1209 0004 32E0     		b	.L108
 1210              	.LVL160:
 1211              	.L113:
 466:main.c        ****     {
 467:main.c        ****         if(limitSW_1_Read()==1 && limitSW_2_Read()==1)
 1212              		.loc 1 467 0
 1213 0006 FFF7FEFF 		bl	limitSW_1_Read
 1214              	.LVL161:
 1215 000a 0128     		cmp	r0, #1
 1216 000c 0AD1     		bne	.L109
 1217              		.loc 1 467 0 is_stmt 0 discriminator 1
 1218 000e FFF7FEFF 		bl	limitSW_2_Read
 1219              	.LVL162:
 1220 0012 0128     		cmp	r0, #1
 1221 0014 06D1     		bne	.L109
 468:main.c        ****             {
 469:main.c        ****               CyDelay(200);
 1222              		.loc 1 469 0 is_stmt 1
 1223 0016 C820     		movs	r0, #200
 1224 0018 FFF7FEFF 		bl	CyDelay
 1225              	.LVL163:
 470:main.c        ****               motorcontrl('B');
 1226              		.loc 1 470 0
 1227 001c 4220     		movs	r0, #66
 1228 001e FFF7FEFF 		bl	motorcontrl
 1229              	.LVL164:
ARM GAS  C:\Users\pasan savindu\AppData\Local\Temp\ccY2T3Z5.s 			page 31


 1230 0022 23E0     		b	.L108
 1231              	.L109:
 471:main.c        ****              }
 472:main.c        ****         else  if (limitSW_1_Read()==1 && limitSW_2_Read() ==0 )
 1232              		.loc 1 472 0
 1233 0024 FFF7FEFF 		bl	limitSW_1_Read
 1234              	.LVL165:
 1235 0028 0128     		cmp	r0, #1
 1236 002a 09D1     		bne	.L111
 1237              		.loc 1 472 0 is_stmt 0 discriminator 1
 1238 002c FFF7FEFF 		bl	limitSW_2_Read
 1239              	.LVL166:
 1240 0030 30B9     		cbnz	r0, .L111
 473:main.c        ****             {
 474:main.c        ****                 CyDelay(200);
 1241              		.loc 1 474 0 is_stmt 1
 1242 0032 C820     		movs	r0, #200
 1243 0034 FFF7FEFF 		bl	CyDelay
 1244              	.LVL167:
 475:main.c        ****                 motorcontrl('Y');
 1245              		.loc 1 475 0
 1246 0038 5920     		movs	r0, #89
 1247 003a FFF7FEFF 		bl	motorcontrl
 1248              	.LVL168:
 1249 003e 15E0     		b	.L108
 1250              	.L111:
 476:main.c        ****             }
 477:main.c        ****         else if (limitSW_1_Read()==0 && limitSW_2_Read()==1)
 1251              		.loc 1 477 0
 1252 0040 FFF7FEFF 		bl	limitSW_1_Read
 1253              	.LVL169:
 1254 0044 50B9     		cbnz	r0, .L112
 1255              		.loc 1 477 0 is_stmt 0 discriminator 1
 1256 0046 FFF7FEFF 		bl	limitSW_2_Read
 1257              	.LVL170:
 1258 004a 0128     		cmp	r0, #1
 1259 004c 06D1     		bne	.L112
 478:main.c        ****             {
 479:main.c        ****                 CyDelay(200);
 1260              		.loc 1 479 0 is_stmt 1
 1261 004e C820     		movs	r0, #200
 1262 0050 FFF7FEFF 		bl	CyDelay
 1263              	.LVL171:
 480:main.c        ****                 motorcontrl('X');                
 1264              		.loc 1 480 0
 1265 0054 5820     		movs	r0, #88
 1266 0056 FFF7FEFF 		bl	motorcontrl
 1267              	.LVL172:
 1268 005a 07E0     		b	.L108
 1269              	.L112:
 481:main.c        ****             }
 482:main.c        ****         else //robot has reached the wall.
 483:main.c        ****             {
 484:main.c        ****                 motorcontrl('S');
 1270              		.loc 1 484 0
 1271 005c 5320     		movs	r0, #83
 1272 005e FFF7FEFF 		bl	motorcontrl
ARM GAS  C:\Users\pasan savindu\AppData\Local\Temp\ccY2T3Z5.s 			page 32


 1273              	.LVL173:
 485:main.c        ****                 CyDelay(500);
 1274              		.loc 1 485 0
 1275 0062 4FF4FA70 		mov	r0, #500
 1276 0066 FFF7FEFF 		bl	CyDelay
 1277              	.LVL174:
 486:main.c        ****                 wall_detected = 1;
 1278              		.loc 1 486 0
 1279 006a 0124     		movs	r4, #1
 1280              	.LVL175:
 1281              	.L108:
 465:main.c        ****     {
 1282              		.loc 1 465 0
 1283 006c 002C     		cmp	r4, #0
 1284 006e CAD0     		beq	.L113
 487:main.c        ****             }
 488:main.c        ****     }   
 489:main.c        **** }
 1285              		.loc 1 489 0
 1286 0070 10BD     		pop	{r4, pc}
 1287              		.cfi_endproc
 1288              	.LFE76:
 1289              		.size	wall_allignment, .-wall_allignment
 1290 0072 00BF     		.section	.text.side_allignment,"ax",%progbits
 1291              		.align	2
 1292              		.global	side_allignment
 1293              		.thumb
 1294              		.thumb_func
 1295              		.type	side_allignment, %function
 1296              	side_allignment:
 1297              	.LFB77:
 490:main.c        **** 
 491:main.c        **** //allignment using side Ultrasonic Sensors
 492:main.c        **** void side_allignment(char side)
 493:main.c        **** {
 1298              		.loc 1 493 0
 1299              		.cfi_startproc
 1300              		@ args = 0, pretend = 0, frame = 0
 1301              		@ frame_needed = 0, uses_anonymous_args = 0
 1302              	.LVL176:
 1303 0000 38B5     		push	{r3, r4, r5, lr}
 1304              		.cfi_def_cfa_offset 16
 1305              		.cfi_offset 3, -16
 1306              		.cfi_offset 4, -12
 1307              		.cfi_offset 5, -8
 1308              		.cfi_offset 14, -4
 1309 0002 0446     		mov	r4, r0
 494:main.c        ****     S3_distance=S4_distance=WALL_ALLIGNMENT;
 1310              		.loc 1 494 0
 1311 0004 294B     		ldr	r3, .L128
 1312 0006 1922     		movs	r2, #25
 1313 0008 DA60     		str	r2, [r3, #12]
 1314 000a 9A60     		str	r2, [r3, #8]
 1315              	.LVL177:
 495:main.c        ****     int temp=0;
 1316              		.loc 1 495 0
 1317 000c 0025     		movs	r5, #0
ARM GAS  C:\Users\pasan savindu\AppData\Local\Temp\ccY2T3Z5.s 			page 33


 496:main.c        ****     while(temp==0)
 1318              		.loc 1 496 0
 1319 000e 45E0     		b	.L122
 1320              	.LVL178:
 1321              	.L126:
 497:main.c        ****     {
 498:main.c        ****         
 499:main.c        ****     if (side == 'L')
 1322              		.loc 1 499 0
 1323 0010 4C2C     		cmp	r4, #76
 1324 0012 20D1     		bne	.L118
 1325 0014 08E0     		b	.L117
 1326              	.L119:
 500:main.c        ****     {
 501:main.c        ****     while (S3_Echo_Read() == 0) {
 502:main.c        **** 		S3_Trigger_Write(1);
 1327              		.loc 1 502 0
 1328 0016 0120     		movs	r0, #1
 1329 0018 FFF7FEFF 		bl	S3_Trigger_Write
 1330              	.LVL179:
 503:main.c        **** 		CyDelayUs(10);
 1331              		.loc 1 503 0
 1332 001c 0A20     		movs	r0, #10
 1333 001e FFF7FEFF 		bl	CyDelayUs
 1334              	.LVL180:
 504:main.c        **** 		S3_Trigger_Write(0);
 1335              		.loc 1 504 0
 1336 0022 0020     		movs	r0, #0
 1337 0024 FFF7FEFF 		bl	S3_Trigger_Write
 1338              	.LVL181:
 1339              	.L117:
 501:main.c        **** 		S3_Trigger_Write(1);
 1340              		.loc 1 501 0
 1341 0028 FFF7FEFF 		bl	S3_Echo_Read
 1342              	.LVL182:
 1343 002c 0028     		cmp	r0, #0
 1344 002e F2D0     		beq	.L119
 505:main.c        **** 	}
 506:main.c        ****     CyDelay(10);
 1345              		.loc 1 506 0
 1346 0030 0A20     		movs	r0, #10
 1347 0032 FFF7FEFF 		bl	CyDelay
 1348              	.LVL183:
 507:main.c        ****     if (obstacle3==1)
 1349              		.loc 1 507 0
 1350 0036 1E4B     		ldr	r3, .L128+4
 1351 0038 93F90230 		ldrsb	r3, [r3, #2]
 1352 003c 012B     		cmp	r3, #1
 1353 003e 03D1     		bne	.L120
 508:main.c        ****     {
 509:main.c        ****         motorcontrl('S');
 1354              		.loc 1 509 0
 1355 0040 5320     		movs	r0, #83
 1356 0042 FFF7FEFF 		bl	motorcontrl
 1357              	.LVL184:
 510:main.c        ****         temp=1;
 1358              		.loc 1 510 0
ARM GAS  C:\Users\pasan savindu\AppData\Local\Temp\ccY2T3Z5.s 			page 34


 1359 0046 0125     		movs	r5, #1
 1360              	.LVL185:
 1361              	.L120:
 511:main.c        ****     }
 512:main.c        ****     if (obstacle3==0)
 1362              		.loc 1 512 0
 1363 0048 194B     		ldr	r3, .L128+4
 1364 004a 93F90230 		ldrsb	r3, [r3, #2]
 1365 004e 13B9     		cbnz	r3, .L118
 513:main.c        ****     {
 514:main.c        ****         motorcontrl('R');
 1366              		.loc 1 514 0
 1367 0050 5220     		movs	r0, #82
 1368 0052 FFF7FEFF 		bl	motorcontrl
 1369              	.LVL186:
 1370              	.L118:
 515:main.c        ****     }
 516:main.c        ****     }
 517:main.c        ****     if(side=='R')
 1371              		.loc 1 517 0
 1372 0056 522C     		cmp	r4, #82
 1373 0058 20D1     		bne	.L122
 1374 005a 08E0     		b	.L121
 1375              	.L123:
 518:main.c        ****     {
 519:main.c        ****         while (S4_Echo_Read() == 0) {
 520:main.c        **** 		S4_Trigger_Write(1);
 1376              		.loc 1 520 0
 1377 005c 0120     		movs	r0, #1
 1378 005e FFF7FEFF 		bl	S4_Trigger_Write
 1379              	.LVL187:
 521:main.c        **** 		CyDelayUs(10);
 1380              		.loc 1 521 0
 1381 0062 0A20     		movs	r0, #10
 1382 0064 FFF7FEFF 		bl	CyDelayUs
 1383              	.LVL188:
 522:main.c        **** 		S4_Trigger_Write(0);
 1384              		.loc 1 522 0
 1385 0068 0020     		movs	r0, #0
 1386 006a FFF7FEFF 		bl	S4_Trigger_Write
 1387              	.LVL189:
 1388              	.L121:
 519:main.c        **** 		S4_Trigger_Write(1);
 1389              		.loc 1 519 0
 1390 006e FFF7FEFF 		bl	S4_Echo_Read
 1391              	.LVL190:
 1392 0072 0028     		cmp	r0, #0
 1393 0074 F2D0     		beq	.L123
 523:main.c        ****         }
 524:main.c        ****         CyDelay(10);
 1394              		.loc 1 524 0
 1395 0076 0A20     		movs	r0, #10
 1396 0078 FFF7FEFF 		bl	CyDelay
 1397              	.LVL191:
 525:main.c        ****         
 526:main.c        ****     if (obstacle4==1)
 1398              		.loc 1 526 0
ARM GAS  C:\Users\pasan savindu\AppData\Local\Temp\ccY2T3Z5.s 			page 35


 1399 007c 0C4B     		ldr	r3, .L128+4
 1400 007e 93F90330 		ldrsb	r3, [r3, #3]
 1401 0082 012B     		cmp	r3, #1
 1402 0084 03D1     		bne	.L124
 527:main.c        ****     {
 528:main.c        ****         motorcontrl('S');
 1403              		.loc 1 528 0
 1404 0086 5320     		movs	r0, #83
 1405 0088 FFF7FEFF 		bl	motorcontrl
 1406              	.LVL192:
 529:main.c        ****         temp=1;
 1407              		.loc 1 529 0
 1408 008c 0125     		movs	r5, #1
 1409              	.LVL193:
 1410              	.L124:
 530:main.c        ****     }
 531:main.c        ****     if (obstacle4==0)
 1411              		.loc 1 531 0
 1412 008e 084B     		ldr	r3, .L128+4
 1413 0090 93F90330 		ldrsb	r3, [r3, #3]
 1414 0094 13B9     		cbnz	r3, .L122
 532:main.c        ****     {
 533:main.c        ****         motorcontrl('L');
 1415              		.loc 1 533 0
 1416 0096 4C20     		movs	r0, #76
 1417 0098 FFF7FEFF 		bl	motorcontrl
 1418              	.LVL194:
 1419              	.L122:
 496:main.c        ****     {
 1420              		.loc 1 496 0
 1421 009c 002D     		cmp	r5, #0
 1422 009e B7D0     		beq	.L126
 534:main.c        ****     }
 535:main.c        ****    }
 536:main.c        ****  }
 537:main.c        ****    S3_distance=S4_distance=OPPONENT; 
 1423              		.loc 1 537 0
 1424 00a0 024B     		ldr	r3, .L128
 1425 00a2 0F22     		movs	r2, #15
 1426 00a4 DA60     		str	r2, [r3, #12]
 1427 00a6 9A60     		str	r2, [r3, #8]
 1428 00a8 38BD     		pop	{r3, r4, r5, pc}
 1429              	.LVL195:
 1430              	.L129:
 1431 00aa 00BF     		.align	2
 1432              	.L128:
 1433 00ac 00000000 		.word	.LANCHOR0
 1434 00b0 00000000 		.word	.LANCHOR1
 1435              		.cfi_endproc
 1436              	.LFE77:
 1437              		.size	side_allignment, .-side_allignment
 1438              		.section	.text.start_measure,"ax",%progbits
 1439              		.align	2
 1440              		.global	start_measure
 1441              		.thumb
 1442              		.thumb_func
 1443              		.type	start_measure, %function
ARM GAS  C:\Users\pasan savindu\AppData\Local\Temp\ccY2T3Z5.s 			page 36


 1444              	start_measure:
 1445              	.LFB78:
 538:main.c        **** }
 539:main.c        **** //Initiate the Interrupt for color sensor
 540:main.c        **** void start_measure() {
 1446              		.loc 1 540 0
 1447              		.cfi_startproc
 1448              		@ args = 0, pretend = 0, frame = 0
 1449              		@ frame_needed = 0, uses_anonymous_args = 0
 1450 0000 08B5     		push	{r3, lr}
 1451              		.cfi_def_cfa_offset 8
 1452              		.cfi_offset 3, -8
 1453              		.cfi_offset 14, -4
 541:main.c        **** 	Color_LED_Write(1);
 1454              		.loc 1 541 0
 1455 0002 0120     		movs	r0, #1
 1456 0004 FFF7FEFF 		bl	Color_LED_Write
 1457              	.LVL196:
 542:main.c        **** 	Control_Reg_Color_Write(1);
 1458              		.loc 1 542 0
 1459 0008 0120     		movs	r0, #1
 1460 000a FFF7FEFF 		bl	Control_Reg_Color_Write
 1461              	.LVL197:
 543:main.c        **** 	CyDelay(1);
 1462              		.loc 1 543 0
 1463 000e 0120     		movs	r0, #1
 1464 0010 FFF7FEFF 		bl	CyDelay
 1465              	.LVL198:
 544:main.c        **** 	Control_Reg_Color_Write(0);
 1466              		.loc 1 544 0
 1467 0014 0020     		movs	r0, #0
 1468 0016 FFF7FEFF 		bl	Control_Reg_Color_Write
 1469              	.LVL199:
 545:main.c        **** 	dataReady = 0;
 1470              		.loc 1 545 0
 1471 001a 0022     		movs	r2, #0
 1472 001c 044B     		ldr	r3, .L132
 1473 001e 9A60     		str	r2, [r3, #8]
 546:main.c        **** 	Color_Counter_Start();
 1474              		.loc 1 546 0
 1475 0020 FFF7FEFF 		bl	Color_Counter_Start
 1476              	.LVL200:
 547:main.c        **** 	isr_6_StartEx(interrupt6_handler);
 1477              		.loc 1 547 0
 1478 0024 0348     		ldr	r0, .L132+4
 1479 0026 FFF7FEFF 		bl	isr_6_StartEx
 1480              	.LVL201:
 548:main.c        **** 	Color_Timer_Start();
 1481              		.loc 1 548 0
 1482 002a FFF7FEFF 		bl	Color_Timer_Start
 1483              	.LVL202:
 1484 002e 08BD     		pop	{r3, pc}
 1485              	.L133:
 1486              		.align	2
 1487              	.L132:
 1488 0030 00000000 		.word	.LANCHOR1
 1489 0034 00000000 		.word	interrupt6_handler
ARM GAS  C:\Users\pasan savindu\AppData\Local\Temp\ccY2T3Z5.s 			page 37


 1490              		.cfi_endproc
 1491              	.LFE78:
 1492              		.size	start_measure, .-start_measure
 1493              		.section	.text.Initialize,"ax",%progbits
 1494              		.align	2
 1495              		.global	Initialize
 1496              		.thumb
 1497              		.thumb_func
 1498              		.type	Initialize, %function
 1499              	Initialize:
 1500              	.LFB70:
 141:main.c        **** 	PWM_Motor_Start();
 1501              		.loc 1 141 0
 1502              		.cfi_startproc
 1503              		@ args = 0, pretend = 0, frame = 0
 1504              		@ frame_needed = 0, uses_anonymous_args = 0
 1505 0000 08B5     		push	{r3, lr}
 1506              		.cfi_def_cfa_offset 8
 1507              		.cfi_offset 3, -8
 1508              		.cfi_offset 14, -4
 142:main.c        **** 	QuadDec_L_Start();
 1509              		.loc 1 142 0
 1510 0002 FFF7FEFF 		bl	PWM_Motor_Start
 1511              	.LVL203:
 143:main.c        **** 	QuadDec_R_Start();
 1512              		.loc 1 143 0
 1513 0006 FFF7FEFF 		bl	QuadDec_L_Start
 1514              	.LVL204:
 144:main.c        **** 	S1_Timer_Start();
 1515              		.loc 1 144 0
 1516 000a FFF7FEFF 		bl	QuadDec_R_Start
 1517              	.LVL205:
 145:main.c        **** 	S2_Timer_Start();
 1518              		.loc 1 145 0
 1519 000e FFF7FEFF 		bl	S1_Timer_Start
 1520              	.LVL206:
 146:main.c        **** 	S3_Timer_Start();
 1521              		.loc 1 146 0
 1522 0012 FFF7FEFF 		bl	S2_Timer_Start
 1523              	.LVL207:
 147:main.c        **** 	S4_Timer_Start();
 1524              		.loc 1 147 0
 1525 0016 FFF7FEFF 		bl	S3_Timer_Start
 1526              	.LVL208:
 148:main.c        **** 	Flicker_Servo_Start();
 1527              		.loc 1 148 0
 1528 001a FFF7FEFF 		bl	S4_Timer_Start
 1529              	.LVL209:
 149:main.c        **** 	RobotArm_Servo_Start();
 1530              		.loc 1 149 0
 1531 001e FFF7FEFF 		bl	Flicker_Servo_Start
 1532              	.LVL210:
 150:main.c        **** 	start_measure();
 1533              		.loc 1 150 0
 1534 0022 FFF7FEFF 		bl	RobotArm_Servo_Start
 1535              	.LVL211:
 151:main.c        **** 	isr_1_StartEx(S1_handler);
ARM GAS  C:\Users\pasan savindu\AppData\Local\Temp\ccY2T3Z5.s 			page 38


 1536              		.loc 1 151 0
 1537 0026 FFF7FEFF 		bl	start_measure
 1538              	.LVL212:
 152:main.c        **** 	isr_2_StartEx(S2_handler);
 1539              		.loc 1 152 0
 1540 002a 0E48     		ldr	r0, .L136
 1541 002c FFF7FEFF 		bl	isr_1_StartEx
 1542              	.LVL213:
 153:main.c        **** 	isr_3_StartEx(S3_handler);
 1543              		.loc 1 153 0
 1544 0030 0D48     		ldr	r0, .L136+4
 1545 0032 FFF7FEFF 		bl	isr_2_StartEx
 1546              	.LVL214:
 154:main.c        **** 	isr_4_StartEx(S4_handler);
 1547              		.loc 1 154 0
 1548 0036 0D48     		ldr	r0, .L136+8
 1549 0038 FFF7FEFF 		bl	isr_3_StartEx
 1550              	.LVL215:
 155:main.c        ****     //isr_5_StartEx(interrupt5_handler);
 1551              		.loc 1 155 0
 1552 003c 0C48     		ldr	r0, .L136+12
 1553 003e FFF7FEFF 		bl	isr_4_StartEx
 1554              	.LVL216:
 157:main.c        ****     I2C_Start();
 1555              		.loc 1 157 0
 1556 0042 FFF7FEFF 		bl	UART_Start
 1557              	.LVL217:
 158:main.c        ****     RobotArm_Servo_WriteCompare2(500);//Gripper Closes Up
 1558              		.loc 1 158 0
 1559 0046 FFF7FEFF 		bl	I2C_Start
 1560              	.LVL218:
 159:main.c        ****     RobotArm_Servo_WriteCompare1(2200); //tower up
 1561              		.loc 1 159 0
 1562 004a 4FF4FA70 		mov	r0, #500
 1563 004e FFF7FEFF 		bl	RobotArm_Servo_WriteCompare2
 1564              	.LVL219:
 160:main.c        ****     Flicker_Servo_WriteCompare(900);//flicker in position
 1565              		.loc 1 160 0
 1566 0052 40F69800 		movw	r0, #2200
 1567 0056 FFF7FEFF 		bl	RobotArm_Servo_WriteCompare1
 1568              	.LVL220:
 161:main.c        ****     
 1569              		.loc 1 161 0
 1570 005a 4FF46170 		mov	r0, #900
 1571 005e FFF7FEFF 		bl	Flicker_Servo_WriteCompare
 1572              	.LVL221:
 1573 0062 08BD     		pop	{r3, pc}
 1574              	.L137:
 1575              		.align	2
 1576              	.L136:
 1577 0064 00000000 		.word	S1_handler
 1578 0068 00000000 		.word	S2_handler
 1579 006c 00000000 		.word	S3_handler
 1580 0070 00000000 		.word	S4_handler
 1581              		.cfi_endproc
 1582              	.LFE70:
 1583              		.size	Initialize, .-Initialize
ARM GAS  C:\Users\pasan savindu\AppData\Local\Temp\ccY2T3Z5.s 			page 39


 1584              		.section	.text.select_color,"ax",%progbits
 1585              		.align	2
 1586              		.global	select_color
 1587              		.thumb
 1588              		.thumb_func
 1589              		.type	select_color, %function
 1590              	select_color:
 1591              	.LFB81:
 549:main.c        **** }
 550:main.c        **** 
 551:main.c        **** //Color Sensing
 552:main.c        **** int color_sense() {
 553:main.c        **** 	uint freq = 0;
 554:main.c        **** 	int RGB_freq[4];
 555:main.c        **** 
 556:main.c        **** 	for (int color_sense = 0; color_sense < 4; color_sense++)
 557:main.c        **** 	{
 558:main.c        **** 		freq = get_frequency(color_sense);
 559:main.c        **** 		RGB_freq[color_sense] = freq;
 560:main.c        **** 	}
 561:main.c        **** 	// Color Choice
 562:main.c        **** 	if (RGB_freq[0] > RGB_freq[1])
 563:main.c        **** 	{
 564:main.c        **** 		if (RGB_freq[0] > RGB_freq[3]) {
 565:main.c        **** 			return 1;
 566:main.c        **** 		}
 567:main.c        **** 		else {
 568:main.c        **** 			return 2;
 569:main.c        **** 		}
 570:main.c        **** 	}
 571:main.c        **** 	else if (RGB_freq[1] > RGB_freq[3])
 572:main.c        **** 	{
 573:main.c        **** 		return 3;
 574:main.c        **** 	}
 575:main.c        **** 	else {
 576:main.c        **** 		return 2;
 577:main.c        **** 	}
 578:main.c        **** }
 579:main.c        **** 
 580:main.c        **** //Calling from Color_sense
 581:main.c        **** int get_frequency(int color_sense) {
 582:main.c        **** 	select_color(color_sense);
 583:main.c        **** 	Color_S0_Write(1);
 584:main.c        **** 	Color_S1_Write(0);
 585:main.c        **** 	start_measure();
 586:main.c        **** 	while (!dataReady) 
 587:main.c        ****     {
 588:main.c        **** 		;
 589:main.c        **** 	}
 590:main.c        **** 	return iFreq;
 591:main.c        **** }
 592:main.c        **** 
 593:main.c        **** //Calling from get_frequency
 594:main.c        **** void select_color(int color_to_sense) {
 1592              		.loc 1 594 0
 1593              		.cfi_startproc
 1594              		@ args = 0, pretend = 0, frame = 0
ARM GAS  C:\Users\pasan savindu\AppData\Local\Temp\ccY2T3Z5.s 			page 40


 1595              		@ frame_needed = 0, uses_anonymous_args = 0
 1596              	.LVL222:
 1597 0000 08B5     		push	{r3, lr}
 1598              		.cfi_def_cfa_offset 8
 1599              		.cfi_offset 3, -8
 1600              		.cfi_offset 14, -4
 595:main.c        **** 	switch (color_to_sense) {
 1601              		.loc 1 595 0
 1602 0002 0328     		cmp	r0, #3
 1603 0004 1ED8     		bhi	.L138
 1604 0006 DFE800F0 		tbb	[pc, r0]
 1605              	.L141:
 1606 000a 02       		.byte	(.L140-.L141)/2
 1607 000b 09       		.byte	(.L142-.L141)/2
 1608 000c 10       		.byte	(.L143-.L141)/2
 1609 000d 17       		.byte	(.L144-.L141)/2
 1610              		.p2align 1
 1611              	.L140:
 596:main.c        **** 	case 0://RED
 597:main.c        **** 		Color_S2_Write(0);
 1612              		.loc 1 597 0
 1613 000e 0020     		movs	r0, #0
 1614              	.LVL223:
 1615 0010 FFF7FEFF 		bl	Color_S2_Write
 1616              	.LVL224:
 598:main.c        **** 		Color_S3_Write(0);
 1617              		.loc 1 598 0
 1618 0014 0020     		movs	r0, #0
 1619 0016 FFF7FEFF 		bl	Color_S3_Write
 1620              	.LVL225:
 599:main.c        **** 		break;
 1621              		.loc 1 599 0
 1622 001a 08BD     		pop	{r3, pc}
 1623              	.LVL226:
 1624              	.L142:
 600:main.c        **** 	case 1: //BLUE
 601:main.c        **** 		Color_S2_Write(0);
 1625              		.loc 1 601 0
 1626 001c 0020     		movs	r0, #0
 1627              	.LVL227:
 1628 001e FFF7FEFF 		bl	Color_S2_Write
 1629              	.LVL228:
 602:main.c        **** 		Color_S3_Write(1);
 1630              		.loc 1 602 0
 1631 0022 0120     		movs	r0, #1
 1632 0024 FFF7FEFF 		bl	Color_S3_Write
 1633              	.LVL229:
 603:main.c        **** 		break;
 1634              		.loc 1 603 0
 1635 0028 08BD     		pop	{r3, pc}
 1636              	.LVL230:
 1637              	.L143:
 604:main.c        **** 	case 2: //NO FILTER
 605:main.c        **** 		Color_S2_Write(1);
 1638              		.loc 1 605 0
 1639 002a 0120     		movs	r0, #1
 1640              	.LVL231:
ARM GAS  C:\Users\pasan savindu\AppData\Local\Temp\ccY2T3Z5.s 			page 41


 1641 002c FFF7FEFF 		bl	Color_S2_Write
 1642              	.LVL232:
 606:main.c        **** 		Color_S2_Write(0);
 1643              		.loc 1 606 0
 1644 0030 0020     		movs	r0, #0
 1645 0032 FFF7FEFF 		bl	Color_S2_Write
 1646              	.LVL233:
 607:main.c        **** 		break;
 1647              		.loc 1 607 0
 1648 0036 08BD     		pop	{r3, pc}
 1649              	.LVL234:
 1650              	.L144:
 608:main.c        **** 	case 3: //GREEN
 609:main.c        **** 		Color_S2_Write(1);
 1651              		.loc 1 609 0
 1652 0038 0120     		movs	r0, #1
 1653              	.LVL235:
 1654 003a FFF7FEFF 		bl	Color_S2_Write
 1655              	.LVL236:
 610:main.c        **** 		Color_S3_Write(1);
 1656              		.loc 1 610 0
 1657 003e 0120     		movs	r0, #1
 1658 0040 FFF7FEFF 		bl	Color_S3_Write
 1659              	.LVL237:
 1660              	.L138:
 1661 0044 08BD     		pop	{r3, pc}
 1662              		.cfi_endproc
 1663              	.LFE81:
 1664              		.size	select_color, .-select_color
 1665 0046 00BF     		.section	.text.get_frequency,"ax",%progbits
 1666              		.align	2
 1667              		.global	get_frequency
 1668              		.thumb
 1669              		.thumb_func
 1670              		.type	get_frequency, %function
 1671              	get_frequency:
 1672              	.LFB80:
 581:main.c        **** 	select_color(color_sense);
 1673              		.loc 1 581 0
 1674              		.cfi_startproc
 1675              		@ args = 0, pretend = 0, frame = 0
 1676              		@ frame_needed = 0, uses_anonymous_args = 0
 1677              	.LVL238:
 1678 0000 08B5     		push	{r3, lr}
 1679              		.cfi_def_cfa_offset 8
 1680              		.cfi_offset 3, -8
 1681              		.cfi_offset 14, -4
 582:main.c        **** 	Color_S0_Write(1);
 1682              		.loc 1 582 0
 1683 0002 FFF7FEFF 		bl	select_color
 1684              	.LVL239:
 583:main.c        **** 	Color_S1_Write(0);
 1685              		.loc 1 583 0
 1686 0006 0120     		movs	r0, #1
 1687 0008 FFF7FEFF 		bl	Color_S0_Write
 1688              	.LVL240:
 584:main.c        **** 	start_measure();
ARM GAS  C:\Users\pasan savindu\AppData\Local\Temp\ccY2T3Z5.s 			page 42


 1689              		.loc 1 584 0
 1690 000c 0020     		movs	r0, #0
 1691 000e FFF7FEFF 		bl	Color_S1_Write
 1692              	.LVL241:
 585:main.c        **** 	while (!dataReady) 
 1693              		.loc 1 585 0
 1694 0012 FFF7FEFF 		bl	start_measure
 1695              	.LVL242:
 1696              	.L147:
 586:main.c        ****     {
 1697              		.loc 1 586 0 discriminator 1
 1698 0016 034B     		ldr	r3, .L149
 1699 0018 9B68     		ldr	r3, [r3, #8]
 1700 001a 002B     		cmp	r3, #0
 1701 001c FBD0     		beq	.L147
 591:main.c        **** 
 1702              		.loc 1 591 0
 1703 001e 014B     		ldr	r3, .L149
 1704 0020 9888     		ldrh	r0, [r3, #4]
 1705 0022 08BD     		pop	{r3, pc}
 1706              	.L150:
 1707              		.align	2
 1708              	.L149:
 1709 0024 00000000 		.word	.LANCHOR1
 1710              		.cfi_endproc
 1711              	.LFE80:
 1712              		.size	get_frequency, .-get_frequency
 1713              		.section	.text.color_sense,"ax",%progbits
 1714              		.align	2
 1715              		.global	color_sense
 1716              		.thumb
 1717              		.thumb_func
 1718              		.type	color_sense, %function
 1719              	color_sense:
 1720              	.LFB79:
 552:main.c        **** 	uint freq = 0;
 1721              		.loc 1 552 0
 1722              		.cfi_startproc
 1723              		@ args = 0, pretend = 0, frame = 16
 1724              		@ frame_needed = 0, uses_anonymous_args = 0
 1725 0000 10B5     		push	{r4, lr}
 1726              		.cfi_def_cfa_offset 8
 1727              		.cfi_offset 4, -8
 1728              		.cfi_offset 14, -4
 1729 0002 84B0     		sub	sp, sp, #16
 1730              		.cfi_def_cfa_offset 24
 1731              	.LVL243:
 1732              	.LBB2:
 556:main.c        **** 	{
 1733              		.loc 1 556 0
 1734 0004 0024     		movs	r4, #0
 1735 0006 08E0     		b	.L152
 1736              	.LVL244:
 1737              	.L153:
 558:main.c        **** 		RGB_freq[color_sense] = freq;
 1738              		.loc 1 558 0 discriminator 3
 1739 0008 2046     		mov	r0, r4
ARM GAS  C:\Users\pasan savindu\AppData\Local\Temp\ccY2T3Z5.s 			page 43


 1740 000a FFF7FEFF 		bl	get_frequency
 1741              	.LVL245:
 559:main.c        **** 	}
 1742              		.loc 1 559 0 discriminator 3
 1743 000e 04AB     		add	r3, sp, #16
 1744 0010 03EB8403 		add	r3, r3, r4, lsl #2
 1745 0014 43F8100C 		str	r0, [r3, #-16]
 556:main.c        **** 	{
 1746              		.loc 1 556 0 discriminator 3
 1747 0018 0134     		adds	r4, r4, #1
 1748              	.LVL246:
 1749              	.L152:
 556:main.c        **** 	{
 1750              		.loc 1 556 0 is_stmt 0 discriminator 1
 1751 001a 032C     		cmp	r4, #3
 1752 001c F4DD     		ble	.L153
 1753              	.LBE2:
 562:main.c        **** 	{
 1754              		.loc 1 562 0 is_stmt 1
 1755 001e 009A     		ldr	r2, [sp]
 1756 0020 019B     		ldr	r3, [sp, #4]
 1757 0022 9A42     		cmp	r2, r3
 1758 0024 04DD     		ble	.L154
 564:main.c        **** 			return 1;
 1759              		.loc 1 564 0
 1760 0026 039B     		ldr	r3, [sp, #12]
 1761 0028 9A42     		cmp	r2, r3
 1762 002a 06DD     		ble	.L156
 565:main.c        **** 		}
 1763              		.loc 1 565 0
 1764 002c 0120     		movs	r0, #1
 1765 002e 07E0     		b	.L155
 1766              	.L154:
 571:main.c        **** 	{
 1767              		.loc 1 571 0
 1768 0030 039A     		ldr	r2, [sp, #12]
 1769 0032 9342     		cmp	r3, r2
 1770 0034 03DD     		ble	.L157
 573:main.c        **** 	}
 1771              		.loc 1 573 0
 1772 0036 0320     		movs	r0, #3
 1773 0038 02E0     		b	.L155
 1774              	.L156:
 568:main.c        **** 		}
 1775              		.loc 1 568 0
 1776 003a 0220     		movs	r0, #2
 1777 003c 00E0     		b	.L155
 1778              	.L157:
 576:main.c        **** 	}
 1779              		.loc 1 576 0
 1780 003e 0220     		movs	r0, #2
 1781              	.L155:
 578:main.c        **** 
 1782              		.loc 1 578 0
 1783 0040 04B0     		add	sp, sp, #16
 1784              		.cfi_def_cfa_offset 8
 1785              		@ sp needed
ARM GAS  C:\Users\pasan savindu\AppData\Local\Temp\ccY2T3Z5.s 			page 44


 1786 0042 10BD     		pop	{r4, pc}
 1787              		.cfi_endproc
 1788              	.LFE79:
 1789              		.size	color_sense, .-color_sense
 1790              		.global	__aeabi_i2d
 1791              		.global	__aeabi_dcmpgt
 1792              		.global	__aeabi_dsub
 1793              		.global	__aeabi_dcmplt
 1794              		.global	__aeabi_dadd
 1795              		.global	__aeabi_dmul
 1796              		.global	__aeabi_d2iz
 1797              		.section	.text.compass,"ax",%progbits
 1798              		.align	2
 1799              		.global	compass
 1800              		.thumb
 1801              		.thumb_func
 1802              		.type	compass, %function
 1803              	compass:
 1804              	.LFB82:
 611:main.c        **** 		break;
 612:main.c        **** 	default:
 613:main.c        **** 		break;
 614:main.c        **** 	}
 615:main.c        **** }
 616:main.c        **** 
 617:main.c        **** //For compass 
 618:main.c        **** void compass(){
 1805              		.loc 1 618 0
 1806              		.cfi_startproc
 1807              		@ args = 0, pretend = 0, frame = 0
 1808              		@ frame_needed = 0, uses_anonymous_args = 0
 1809 0000 2DE9F843 		push	{r3, r4, r5, r6, r7, r8, r9, lr}
 1810              		.cfi_def_cfa_offset 32
 1811              		.cfi_offset 3, -32
 1812              		.cfi_offset 4, -28
 1813              		.cfi_offset 5, -24
 1814              		.cfi_offset 6, -20
 1815              		.cfi_offset 7, -16
 1816              		.cfi_offset 8, -12
 1817              		.cfi_offset 9, -8
 1818              		.cfi_offset 14, -4
 1819              	.LVL247:
 619:main.c        ****             //UART_PutString("hi\n");
 620:main.c        ****     
 621:main.c        ****     
 622:main.c        ****     int16 array[6]; //create an array to get x,y,z coordinates
 623:main.c        ****     //int16 x;
 624:main.c        ****     int16 y;
 625:main.c        ****     int16 z;
 626:main.c        ****     double orientation;
 627:main.c        ****     int temp =0;
 628:main.c        ****     
 629:main.c        ****     I2C_MasterSendStart(DeviceID,I2C_WRITE_XFER_MODE);
 1820              		.loc 1 629 0
 1821 0004 0021     		movs	r1, #0
 1822 0006 0D20     		movs	r0, #13
 1823 0008 FFF7FEFF 		bl	I2C_MasterSendStart
ARM GAS  C:\Users\pasan savindu\AppData\Local\Temp\ccY2T3Z5.s 			page 45


 1824              	.LVL248:
 630:main.c        ****     I2C_MasterWriteByte(0x0B);
 1825              		.loc 1 630 0
 1826 000c 0B20     		movs	r0, #11
 1827 000e FFF7FEFF 		bl	I2C_MasterWriteByte
 1828              	.LVL249:
 631:main.c        ****     I2C_MasterWriteByte(0X01);
 1829              		.loc 1 631 0
 1830 0012 0120     		movs	r0, #1
 1831 0014 FFF7FEFF 		bl	I2C_MasterWriteByte
 1832              	.LVL250:
 632:main.c        ****     I2C_MasterSendStop();
 1833              		.loc 1 632 0
 1834 0018 FFF7FEFF 		bl	I2C_MasterSendStop
 1835              	.LVL251:
 633:main.c        ****     CyDelay(100);
 1836              		.loc 1 633 0
 1837 001c 6420     		movs	r0, #100
 1838 001e FFF7FEFF 		bl	CyDelay
 1839              	.LVL252:
 634:main.c        ****     
 635:main.c        ****     I2C_MasterSendStart(DeviceID,I2C_WRITE_XFER_MODE);
 1840              		.loc 1 635 0
 1841 0022 0021     		movs	r1, #0
 1842 0024 0D20     		movs	r0, #13
 1843 0026 FFF7FEFF 		bl	I2C_MasterSendStart
 1844              	.LVL253:
 636:main.c        ****     I2C_MasterWriteByte(0x09);
 1845              		.loc 1 636 0
 1846 002a 0920     		movs	r0, #9
 1847 002c FFF7FEFF 		bl	I2C_MasterWriteByte
 1848              	.LVL254:
 637:main.c        ****     I2C_MasterWriteByte(0X1D);
 1849              		.loc 1 637 0
 1850 0030 1D20     		movs	r0, #29
 1851 0032 FFF7FEFF 		bl	I2C_MasterWriteByte
 1852              	.LVL255:
 638:main.c        ****     I2C_MasterSendStop();
 1853              		.loc 1 638 0
 1854 0036 FFF7FEFF 		bl	I2C_MasterSendStop
 1855              	.LVL256:
 639:main.c        ****     CyDelay(100);
 1856              		.loc 1 639 0
 1857 003a 6420     		movs	r0, #100
 1858 003c FFF7FEFF 		bl	CyDelay
 1859              	.LVL257:
 627:main.c        ****     
 1860              		.loc 1 627 0
 1861 0040 0026     		movs	r6, #0
 640:main.c        ****     
 641:main.c        ****     //for (;;)
 642:main.c        ****     while (temp==0)
 1862              		.loc 1 642 0
 1863 0042 B6E0     		b	.L160
 1864              	.LVL258:
 1865              	.L177:
 643:main.c        ****     {
ARM GAS  C:\Users\pasan savindu\AppData\Local\Temp\ccY2T3Z5.s 			page 46


 644:main.c        ****         //motorcontrl('F');
 645:main.c        ****         //UART_PutString("hi\n");
 646:main.c        ****         I2C_MasterSendStart(DeviceID,I2C_WRITE_XFER_MODE);
 1866              		.loc 1 646 0
 1867 0044 0021     		movs	r1, #0
 1868 0046 0D20     		movs	r0, #13
 1869 0048 FFF7FEFF 		bl	I2C_MasterSendStart
 1870              	.LVL259:
 647:main.c        ****         I2C_MasterWriteByte(0x00);
 1871              		.loc 1 647 0
 1872 004c 0020     		movs	r0, #0
 1873 004e FFF7FEFF 		bl	I2C_MasterWriteByte
 1874              	.LVL260:
 648:main.c        ****         I2C_MasterSendStop();
 1875              		.loc 1 648 0
 1876 0052 FFF7FEFF 		bl	I2C_MasterSendStop
 1877              	.LVL261:
 649:main.c        ****         
 650:main.c        ****         //Send read Data.
 651:main.c        ****         I2C_MasterSendStart(DeviceID,I2C_READ_XFER_MODE);
 1878              		.loc 1 651 0
 1879 0056 0121     		movs	r1, #1
 1880 0058 0D20     		movs	r0, #13
 1881 005a FFF7FEFF 		bl	I2C_MasterSendStart
 1882              	.LVL262:
 652:main.c        ****         array[0] = I2C_MasterReadByte(I2C_ACK_DATA);
 1883              		.loc 1 652 0
 1884 005e 0120     		movs	r0, #1
 1885 0060 FFF7FEFF 		bl	I2C_MasterReadByte
 1886              	.LVL263:
 653:main.c        ****         array[1] = I2C_MasterReadByte(I2C_ACK_DATA);
 1887              		.loc 1 653 0
 1888 0064 0120     		movs	r0, #1
 1889 0066 FFF7FEFF 		bl	I2C_MasterReadByte
 1890              	.LVL264:
 654:main.c        ****         array[2] = I2C_MasterReadByte(I2C_ACK_DATA);
 1891              		.loc 1 654 0
 1892 006a 0120     		movs	r0, #1
 1893 006c FFF7FEFF 		bl	I2C_MasterReadByte
 1894              	.LVL265:
 1895 0070 04B2     		sxth	r4, r0
 655:main.c        ****         array[3] = I2C_MasterReadByte(I2C_ACK_DATA);
 1896              		.loc 1 655 0
 1897 0072 0120     		movs	r0, #1
 1898 0074 FFF7FEFF 		bl	I2C_MasterReadByte
 1899              	.LVL266:
 1900 0078 0FFA80F8 		sxth	r8, r0
 656:main.c        ****         array[4] = I2C_MasterReadByte(I2C_ACK_DATA);
 1901              		.loc 1 656 0
 1902 007c 0120     		movs	r0, #1
 1903 007e FFF7FEFF 		bl	I2C_MasterReadByte
 1904              	.LVL267:
 1905 0082 05B2     		sxth	r5, r0
 657:main.c        ****         array[5] = I2C_MasterReadByte(I2C_NAK_DATA);
 1906              		.loc 1 657 0
 1907 0084 0020     		movs	r0, #0
 1908 0086 FFF7FEFF 		bl	I2C_MasterReadByte
ARM GAS  C:\Users\pasan savindu\AppData\Local\Temp\ccY2T3Z5.s 			page 47


 1909              	.LVL268:
 1910 008a 07B2     		sxth	r7, r0
 658:main.c        ****         I2C_MasterSendStop();
 1911              		.loc 1 658 0
 1912 008c FFF7FEFF 		bl	I2C_MasterSendStop
 1913              	.LVL269:
 659:main.c        ****         
 660:main.c        ****         //x = array[1]<<8|array[0]; //x-value //shift to left by 8 bits 
 661:main.c        **** 	    y = array[3]<<8|array[2]; //z-value //shift to left by 8 bits 
 1914              		.loc 1 661 0
 1915 0090 44EA0824 		orr	r4, r4, r8, lsl #8
 1916 0094 24B2     		sxth	r4, r4
 1917              	.LVL270:
 662:main.c        **** 	    z = array[5]<<8|array[4]; //y-value //shift to left by 8 bits
 1918              		.loc 1 662 0
 1919 0096 45EA0720 		orr	r0, r5, r7, lsl #8
 1920              	.LVL271:
 663:main.c        ****         orientation = atan2(z,y);
 1921              		.loc 1 663 0
 1922 009a 00B2     		sxth	r0, r0
 1923 009c FFF7FEFF 		bl	__aeabi_i2d
 1924              	.LVL272:
 1925 00a0 8046     		mov	r8, r0
 1926 00a2 8946     		mov	r9, r1
 1927 00a4 2046     		mov	r0, r4
 1928 00a6 FFF7FEFF 		bl	__aeabi_i2d
 1929              	.LVL273:
 1930 00aa 0246     		mov	r2, r0
 1931 00ac 0B46     		mov	r3, r1
 1932 00ae 4046     		mov	r0, r8
 1933 00b0 4946     		mov	r1, r9
 1934 00b2 FFF7FEFF 		bl	atan2
 1935              	.LVL274:
 1936 00b6 0446     		mov	r4, r0
 1937              	.LVL275:
 1938 00b8 0D46     		mov	r5, r1
 1939              	.LVL276:
 664:main.c        ****         if (orientation>2*3.14)
 1940              		.loc 1 664 0
 1941 00ba 41A3     		adr	r3, .L190
 1942 00bc D3E90023 		ldrd	r2, [r3]
 1943 00c0 FFF7FEFF 		bl	__aeabi_dcmpgt
 1944              	.LVL277:
 1945 00c4 48B1     		cbz	r0, .L188
 665:main.c        ****         {
 666:main.c        ****         orientation -= 2*3.14;
 1946              		.loc 1 666 0
 1947 00c6 3EA3     		adr	r3, .L190
 1948 00c8 D3E90023 		ldrd	r2, [r3]
 1949 00cc 2046     		mov	r0, r4
 1950 00ce 2946     		mov	r1, r5
 1951 00d0 FFF7FEFF 		bl	__aeabi_dsub
 1952              	.LVL278:
 1953 00d4 0446     		mov	r4, r0
 1954              	.LVL279:
 1955 00d6 0D46     		mov	r5, r1
 1956              	.LVL280:
ARM GAS  C:\Users\pasan savindu\AppData\Local\Temp\ccY2T3Z5.s 			page 48


 1957 00d8 0FE0     		b	.L163
 1958              	.L188:
 667:main.c        ****         }
 668:main.c        ****         else if (orientation<0)
 1959              		.loc 1 668 0
 1960 00da 0022     		movs	r2, #0
 1961 00dc 0023     		movs	r3, #0
 1962 00de 2046     		mov	r0, r4
 1963 00e0 2946     		mov	r1, r5
 1964 00e2 FFF7FEFF 		bl	__aeabi_dcmplt
 1965              	.LVL281:
 1966 00e6 40B1     		cbz	r0, .L163
 669:main.c        ****         {
 670:main.c        ****         orientation += 2*3.14;
 1967              		.loc 1 670 0
 1968 00e8 35A3     		adr	r3, .L190
 1969 00ea D3E90023 		ldrd	r2, [r3]
 1970 00ee 2046     		mov	r0, r4
 1971 00f0 2946     		mov	r1, r5
 1972 00f2 FFF7FEFF 		bl	__aeabi_dadd
 1973              	.LVL282:
 1974 00f6 0446     		mov	r4, r0
 1975              	.LVL283:
 1976 00f8 0D46     		mov	r5, r1
 1977              	.LVL284:
 1978              	.L163:
 671:main.c        ****         }
 672:main.c        ****         orientation = orientation*(180/3.14) ;//To get the angle
 1979              		.loc 1 672 0
 1980 00fa 33A3     		adr	r3, .L190+8
 1981 00fc D3E90023 		ldrd	r2, [r3]
 1982 0100 2046     		mov	r0, r4
 1983 0102 2946     		mov	r1, r5
 1984 0104 FFF7FEFF 		bl	__aeabi_dmul
 1985              	.LVL285:
 1986 0108 0446     		mov	r4, r0
 1987              	.LVL286:
 1988 010a 0D46     		mov	r5, r1
 1989              	.LVL287:
 673:main.c        ****         sprintf(string1,"%d \n",(int)orientation);
 1990              		.loc 1 673 0
 1991 010c FFF7FEFF 		bl	__aeabi_d2iz
 1992              	.LVL288:
 1993 0110 2F4F     		ldr	r7, .L190+16
 1994 0112 0246     		mov	r2, r0
 1995 0114 2F49     		ldr	r1, .L190+20
 1996 0116 3846     		mov	r0, r7
 1997 0118 FFF7FEFF 		bl	sprintf
 1998              	.LVL289:
 674:main.c        ****         UART_PutString(string1);
 1999              		.loc 1 674 0
 2000 011c 3846     		mov	r0, r7
 2001 011e FFF7FEFF 		bl	UART_PutString
 2002              	.LVL290:
 675:main.c        ****         CyDelay(200);
 2003              		.loc 1 675 0
 2004 0122 C820     		movs	r0, #200
ARM GAS  C:\Users\pasan savindu\AppData\Local\Temp\ccY2T3Z5.s 			page 49


 2005 0124 FFF7FEFF 		bl	CyDelay
 2006              	.LVL291:
 676:main.c        ****         if (orientation>180 && orientation<360)
 2007              		.loc 1 676 0
 2008 0128 0022     		movs	r2, #0
 2009 012a 2B4B     		ldr	r3, .L190+24
 2010 012c 2046     		mov	r0, r4
 2011 012e 2946     		mov	r1, r5
 2012 0130 FFF7FEFF 		bl	__aeabi_dcmpgt
 2013              	.LVL292:
 2014 0134 48B1     		cbz	r0, .L165
 2015              		.loc 1 676 0 is_stmt 0 discriminator 1
 2016 0136 0022     		movs	r2, #0
 2017 0138 284B     		ldr	r3, .L190+28
 2018 013a 2046     		mov	r0, r4
 2019 013c 2946     		mov	r1, r5
 2020 013e FFF7FEFF 		bl	__aeabi_dcmplt
 2021              	.LVL293:
 2022 0142 10B1     		cbz	r0, .L165
 677:main.c        ****         {
 678:main.c        ****            motorcontrl('R');
 2023              		.loc 1 678 0 is_stmt 1
 2024 0144 5220     		movs	r0, #82
 2025 0146 FFF7FEFF 		bl	motorcontrl
 2026              	.LVL294:
 2027              	.L165:
 679:main.c        ****         }
 680:main.c        ****         if (orientation<180 && orientation>28)
 2028              		.loc 1 680 0
 2029 014a 0022     		movs	r2, #0
 2030 014c 224B     		ldr	r3, .L190+24
 2031 014e 2046     		mov	r0, r4
 2032 0150 2946     		mov	r1, r5
 2033 0152 FFF7FEFF 		bl	__aeabi_dcmplt
 2034              	.LVL295:
 2035 0156 48B1     		cbz	r0, .L168
 2036              		.loc 1 680 0 is_stmt 0 discriminator 1
 2037 0158 0022     		movs	r2, #0
 2038 015a 214B     		ldr	r3, .L190+32
 2039 015c 2046     		mov	r0, r4
 2040 015e 2946     		mov	r1, r5
 2041 0160 FFF7FEFF 		bl	__aeabi_dcmpgt
 2042              	.LVL296:
 2043 0164 10B1     		cbz	r0, .L168
 681:main.c        ****         {
 682:main.c        ****             motorcontrl('L');
 2044              		.loc 1 682 0 is_stmt 1
 2045 0166 4C20     		movs	r0, #76
 2046 0168 FFF7FEFF 		bl	motorcontrl
 2047              	.LVL297:
 2048              	.L168:
 683:main.c        ****         }
 684:main.c        ****           if (orientation>0 && orientation<22)
 2049              		.loc 1 684 0
 2050 016c 0022     		movs	r2, #0
 2051 016e 0023     		movs	r3, #0
 2052 0170 2046     		mov	r0, r4
ARM GAS  C:\Users\pasan savindu\AppData\Local\Temp\ccY2T3Z5.s 			page 50


 2053 0172 2946     		mov	r1, r5
 2054 0174 FFF7FEFF 		bl	__aeabi_dcmpgt
 2055              	.LVL298:
 2056 0178 48B1     		cbz	r0, .L171
 2057              		.loc 1 684 0 is_stmt 0 discriminator 1
 2058 017a 0022     		movs	r2, #0
 2059 017c 194B     		ldr	r3, .L190+36
 2060 017e 2046     		mov	r0, r4
 2061 0180 2946     		mov	r1, r5
 2062 0182 FFF7FEFF 		bl	__aeabi_dcmplt
 2063              	.LVL299:
 2064 0186 10B1     		cbz	r0, .L171
 685:main.c        ****         {
 686:main.c        ****            motorcontrl('R');
 2065              		.loc 1 686 0 is_stmt 1
 2066 0188 5220     		movs	r0, #82
 2067 018a FFF7FEFF 		bl	motorcontrl
 2068              	.LVL300:
 2069              	.L171:
 687:main.c        ****         }
 688:main.c        ****         if (orientation<28 && orientation>22) 
 2070              		.loc 1 688 0
 2071 018e 0022     		movs	r2, #0
 2072 0190 134B     		ldr	r3, .L190+32
 2073 0192 2046     		mov	r0, r4
 2074 0194 2946     		mov	r1, r5
 2075 0196 FFF7FEFF 		bl	__aeabi_dcmplt
 2076              	.LVL301:
 2077 019a 50B1     		cbz	r0, .L160
 2078              		.loc 1 688 0 is_stmt 0 discriminator 1
 2079 019c 0022     		movs	r2, #0
 2080 019e 114B     		ldr	r3, .L190+36
 2081 01a0 2046     		mov	r0, r4
 2082 01a2 2946     		mov	r1, r5
 2083 01a4 FFF7FEFF 		bl	__aeabi_dcmpgt
 2084              	.LVL302:
 2085 01a8 18B1     		cbz	r0, .L160
 689:main.c        ****         {
 690:main.c        ****             motorcontrl('S');
 2086              		.loc 1 690 0 is_stmt 1
 2087 01aa 5320     		movs	r0, #83
 2088 01ac FFF7FEFF 		bl	motorcontrl
 2089              	.LVL303:
 691:main.c        ****             temp =1;
 2090              		.loc 1 691 0
 2091 01b0 0126     		movs	r6, #1
 2092              	.LVL304:
 2093              	.L160:
 642:main.c        ****     {
 2094              		.loc 1 642 0
 2095 01b2 002E     		cmp	r6, #0
 2096 01b4 3FF446AF 		beq	.L177
 692:main.c        ****         }
 693:main.c        ****     }
 694:main.c        **** }
 2097              		.loc 1 694 0
 2098 01b8 BDE8F883 		pop	{r3, r4, r5, r6, r7, r8, r9, pc}
ARM GAS  C:\Users\pasan savindu\AppData\Local\Temp\ccY2T3Z5.s 			page 51


 2099              	.LVL305:
 2100              	.L191:
 2101 01bc AFF30080 		.align	3
 2102              	.L190:
 2103 01c0 1F85EB51 		.word	1374389535
 2104 01c4 B81E1940 		.word	1075388088
 2105 01c8 E79AD561 		.word	1641388775
 2106 01cc 94A94C40 		.word	1078765972
 2107 01d0 00000000 		.word	string1
 2108 01d4 00000000 		.word	.LC0
 2109 01d8 00806640 		.word	1080459264
 2110 01dc 00807640 		.word	1081507840
 2111 01e0 00003C40 		.word	1077673984
 2112 01e4 00003640 		.word	1077280768
 2113              		.cfi_endproc
 2114              	.LFE82:
 2115              		.size	compass, .-compass
 2116              		.section	.text.baseRoute,"ax",%progbits
 2117              		.align	2
 2118              		.global	baseRoute
 2119              		.thumb
 2120              		.thumb_func
 2121              		.type	baseRoute, %function
 2122              	baseRoute:
 2123              	.LFB83:
 695:main.c        **** //Route for Base to Puck Collection Zone
 696:main.c        **** void baseRoute(int Base){
 2124              		.loc 1 696 0
 2125              		.cfi_startproc
 2126              		@ args = 0, pretend = 0, frame = 0
 2127              		@ frame_needed = 0, uses_anonymous_args = 0
 2128              	.LVL306:
 2129 0000 08B5     		push	{r3, lr}
 2130              		.cfi_def_cfa_offset 8
 2131              		.cfi_offset 3, -8
 2132              		.cfi_offset 14, -4
 697:main.c        ****     if(Base==1) // Base 01 - Upper Left Corner & Lower Right Corner
 2133              		.loc 1 697 0
 2134 0002 0128     		cmp	r0, #1
 2135 0004 14D1     		bne	.L193
 698:main.c        ****     {
 699:main.c        ****         move_straight('F',45000);//Come out of the base
 2136              		.loc 1 699 0
 2137 0006 4AF6C871 		movw	r1, #45000
 2138 000a 4620     		movs	r0, #70
 2139              	.LVL307:
 2140 000c FFF7FEFF 		bl	move_straight
 2141              	.LVL308:
 700:main.c        ****         turn('R',R_DEGREE);
 2142              		.loc 1 700 0
 2143 0010 43F67A71 		movw	r1, #16250
 2144 0014 5220     		movs	r0, #82
 2145 0016 FFF7FEFF 		bl	turn
 2146              	.LVL309:
 701:main.c        ****         move_straight('F',12000);
 2147              		.loc 1 701 0
 2148 001a 42F6E061 		movw	r1, #12000
ARM GAS  C:\Users\pasan savindu\AppData\Local\Temp\ccY2T3Z5.s 			page 52


 2149 001e 4620     		movs	r0, #70
 2150 0020 FFF7FEFF 		bl	move_straight
 2151              	.LVL310:
 702:main.c        ****         turn('L',L_DEGREE);
 2152              		.loc 1 702 0
 2153 0024 43F2C231 		movw	r1, #13250
 2154 0028 4C20     		movs	r0, #76
 2155 002a FFF7FEFF 		bl	turn
 2156              	.LVL311:
 2157 002e 15E0     		b	.L194
 2158              	.LVL312:
 2159              	.L193:
 703:main.c        ****     }
 704:main.c        ****     else if (Base ==2) // Base 02 - Upper Right Corner & Lower Left Corner
 2160              		.loc 1 704 0
 2161 0030 0228     		cmp	r0, #2
 2162 0032 13D1     		bne	.L194
 705:main.c        ****     {
 706:main.c        ****         move_straight('F',45000);
 2163              		.loc 1 706 0
 2164 0034 4AF6C871 		movw	r1, #45000
 2165 0038 4620     		movs	r0, #70
 2166              	.LVL313:
 2167 003a FFF7FEFF 		bl	move_straight
 2168              	.LVL314:
 707:main.c        ****         turn('L',L_DEGREE);
 2169              		.loc 1 707 0
 2170 003e 43F2C231 		movw	r1, #13250
 2171 0042 4C20     		movs	r0, #76
 2172 0044 FFF7FEFF 		bl	turn
 2173              	.LVL315:
 708:main.c        ****         move_straight('F',12000);
 2174              		.loc 1 708 0
 2175 0048 42F6E061 		movw	r1, #12000
 2176 004c 4620     		movs	r0, #70
 2177 004e FFF7FEFF 		bl	move_straight
 2178              	.LVL316:
 709:main.c        ****         turn('R',L_DEGREE);
 2179              		.loc 1 709 0
 2180 0052 43F2C231 		movw	r1, #13250
 2181 0056 5220     		movs	r0, #82
 2182 0058 FFF7FEFF 		bl	turn
 2183              	.LVL317:
 2184              	.L194:
 710:main.c        ****     }
 711:main.c        ****   state++;  
 2185              		.loc 1 711 0
 2186 005c 024A     		ldr	r2, .L196
 2187 005e 137B     		ldrb	r3, [r2, #12]	@ zero_extendqisi2
 2188 0060 0133     		adds	r3, r3, #1
 2189 0062 1373     		strb	r3, [r2, #12]
 2190 0064 08BD     		pop	{r3, pc}
 2191              	.L197:
 2192 0066 00BF     		.align	2
 2193              	.L196:
 2194 0068 00000000 		.word	.LANCHOR1
 2195              		.cfi_endproc
ARM GAS  C:\Users\pasan savindu\AppData\Local\Temp\ccY2T3Z5.s 			page 53


 2196              	.LFE83:
 2197              		.size	baseRoute, .-baseRoute
 2198              		.section	.text.searchPuck,"ax",%progbits
 2199              		.align	2
 2200              		.global	searchPuck
 2201              		.thumb
 2202              		.thumb_func
 2203              		.type	searchPuck, %function
 2204              	searchPuck:
 2205              	.LFB84:
 712:main.c        **** }
 713:main.c        **** 
 714:main.c        **** //Searching the within the Zone.
 715:main.c        **** void searchPuck(){ //This function needs reconstruction.
 2206              		.loc 1 715 0
 2207              		.cfi_startproc
 2208              		@ args = 0, pretend = 0, frame = 0
 2209              		@ frame_needed = 0, uses_anonymous_args = 0
 2210 0000 38B5     		push	{r3, r4, r5, lr}
 2211              		.cfi_def_cfa_offset 16
 2212              		.cfi_offset 3, -16
 2213              		.cfi_offset 4, -12
 2214              		.cfi_offset 5, -8
 2215              		.cfi_offset 14, -4
 716:main.c        ****    
 717:main.c        ****     QuadDec_L_SetCounter(0);
 2216              		.loc 1 717 0
 2217 0002 0020     		movs	r0, #0
 2218 0004 FFF7FEFF 		bl	QuadDec_L_SetCounter
 2219              	.LVL318:
 718:main.c        ****     QuadDec_R_SetCounter(0);
 2220              		.loc 1 718 0
 2221 0008 0020     		movs	r0, #0
 2222 000a FFF7FEFF 		bl	QuadDec_R_SetCounter
 2223              	.LVL319:
 719:main.c        ****     countL=0;
 2224              		.loc 1 719 0
 2225 000e C54D     		ldr	r5, .L229
 2226 0010 0024     		movs	r4, #0
 2227 0012 2C60     		str	r4, [r5]
 720:main.c        ****     countR=0;
 2228              		.loc 1 720 0
 2229 0014 C44B     		ldr	r3, .L229+4
 2230 0016 1C60     		str	r4, [r3]
 721:main.c        ****     countL = QuadDec_L_GetCounter();
 2231              		.loc 1 721 0
 2232 0018 FFF7FEFF 		bl	QuadDec_L_GetCounter
 2233              	.LVL320:
 2234 001c 2860     		str	r0, [r5]
 722:main.c        ****     S1_distance=S2_distance=OPPONENT;
 2235              		.loc 1 722 0
 2236 001e C34B     		ldr	r3, .L229+8
 2237 0020 0F22     		movs	r2, #15
 2238 0022 5A60     		str	r2, [r3, #4]
 2239 0024 1A60     		str	r2, [r3]
 723:main.c        ****     
 724:main.c        ****     RobotArm_Servo_WriteCompare2(500);//Gripper Closes Up
ARM GAS  C:\Users\pasan savindu\AppData\Local\Temp\ccY2T3Z5.s 			page 54


 2240              		.loc 1 724 0
 2241 0026 4FF4FA70 		mov	r0, #500
 2242 002a FFF7FEFF 		bl	RobotArm_Servo_WriteCompare2
 2243              	.LVL321:
 725:main.c        ****     //CyDelay(1000);
 726:main.c        ****     RobotArm_Servo_WriteCompare1(700);//Tower Goes Down
 2244              		.loc 1 726 0
 2245 002e 4FF42F70 		mov	r0, #700
 2246 0032 FFF7FEFF 		bl	RobotArm_Servo_WriteCompare1
 2247              	.LVL322:
 727:main.c        ****     CyDelay(500);
 2248              		.loc 1 727 0
 2249 0036 4FF4FA70 		mov	r0, #500
 2250 003a FFF7FEFF 		bl	CyDelay
 2251              	.LVL323:
 728:main.c        ****     RobotArm_Servo_WriteCompare2(950);//Gripper Opens Up
 2252              		.loc 1 728 0
 2253 003e 40F2B630 		movw	r0, #950
 2254 0042 FFF7FEFF 		bl	RobotArm_Servo_WriteCompare2
 2255              	.LVL324:
 729:main.c        ****     CyDelay(500);
 2256              		.loc 1 729 0
 2257 0046 4FF4FA70 		mov	r0, #500
 2258 004a FFF7FEFF 		bl	CyDelay
 2259              	.LVL325:
 730:main.c        ****    
 731:main.c        ****    int reverse=0;
 732:main.c        ****    int temp=0;
 733:main.c        ****    while(temp==0)
 2260              		.loc 1 733 0
 2261 004e 64E1     		b	.L199
 2262              	.LVL326:
 2263              	.L225:
 734:main.c        ****    {
 735:main.c        ****    if(IR_Out_Read()==1)
 2264              		.loc 1 735 0
 2265 0050 FFF7FEFF 		bl	IR_Out_Read
 2266              	.LVL327:
 2267 0054 0128     		cmp	r0, #1
 2268 0056 40F00C81 		bne	.L200
 736:main.c        ****     {   
 737:main.c        ****       if((obstacle1==0)||(obstacle2==0))
 2269              		.loc 1 737 0
 2270 005a B54B     		ldr	r3, .L229+12
 2271 005c 93F90030 		ldrsb	r3, [r3]
 2272 0060 1BB1     		cbz	r3, .L201
 2273              		.loc 1 737 0 is_stmt 0 discriminator 1
 2274 0062 B34B     		ldr	r3, .L229+12
 2275 0064 93F90130 		ldrsb	r3, [r3, #1]
 2276 0068 13B9     		cbnz	r3, .L202
 2277              	.L201:
 738:main.c        ****         {
 739:main.c        ****           motorcontrl('F');
 2278              		.loc 1 739 0 is_stmt 1
 2279 006a 4620     		movs	r0, #70
 2280 006c FFF7FEFF 		bl	motorcontrl
 2281              	.LVL328:
ARM GAS  C:\Users\pasan savindu\AppData\Local\Temp\ccY2T3Z5.s 			page 55


 2282              	.L202:
 740:main.c        ****         }
 741:main.c        ****      if ((obstacle2==1)||(obstacle1==1)) //What to do if confront another robot or the wall.
 2283              		.loc 1 741 0
 2284 0070 AF4B     		ldr	r3, .L229+12
 2285 0072 93F90130 		ldrsb	r3, [r3, #1]
 2286 0076 012B     		cmp	r3, #1
 2287 0078 04D0     		beq	.L203
 2288              		.loc 1 741 0 is_stmt 0 discriminator 1
 2289 007a AD4B     		ldr	r3, .L229+12
 2290 007c 93F90030 		ldrsb	r3, [r3]
 2291 0080 012B     		cmp	r3, #1
 2292 0082 78D1     		bne	.L204
 2293              	.L203:
 742:main.c        ****         {
 743:main.c        ****             motorcontrl('S');
 2294              		.loc 1 743 0 is_stmt 1
 2295 0084 5320     		movs	r0, #83
 2296 0086 FFF7FEFF 		bl	motorcontrl
 2297              	.LVL329:
 744:main.c        ****             reverse=countL;
 745:main.c        ****             move_straight('B',countL);
 2298              		.loc 1 745 0
 2299 008a A64B     		ldr	r3, .L229
 2300 008c 1968     		ldr	r1, [r3]
 2301 008e 4220     		movs	r0, #66
 2302 0090 FFF7FEFF 		bl	move_straight
 2303              	.LVL330:
 746:main.c        ****        if(Base ==1&&(position%2)==1) //Horizantal
 2304              		.loc 1 746 0
 2305 0094 A74B     		ldr	r3, .L229+16
 2306 0096 1B68     		ldr	r3, [r3]
 2307 0098 012B     		cmp	r3, #1
 2308 009a 19D1     		bne	.L205
 2309              		.loc 1 746 0 is_stmt 0 discriminator 1
 2310 009c A44B     		ldr	r3, .L229+12
 2311 009e 1B69     		ldr	r3, [r3, #16]
 2312 00a0 A54A     		ldr	r2, .L229+20
 2313 00a2 1340     		ands	r3, r3, r2
 2314 00a4 03D5     		bpl	.L206
 2315 00a6 013B     		subs	r3, r3, #1
 2316 00a8 63F00103 		orn	r3, r3, #1
 2317 00ac 0133     		adds	r3, r3, #1
 2318              	.L206:
 2319 00ae 012B     		cmp	r3, #1
 2320 00b0 0ED1     		bne	.L205
 747:main.c        ****          {
 748:main.c        ****         turn('L',L_DEGREE);
 2321              		.loc 1 748 0 is_stmt 1
 2322 00b2 43F2C231 		movw	r1, #13250
 2323 00b6 4C20     		movs	r0, #76
 2324 00b8 FFF7FEFF 		bl	turn
 2325              	.LVL331:
 749:main.c        ****         move_straight('F',20000);
 2326              		.loc 1 749 0
 2327 00bc 44F62061 		movw	r1, #20000
 2328 00c0 4620     		movs	r0, #70
ARM GAS  C:\Users\pasan savindu\AppData\Local\Temp\ccY2T3Z5.s 			page 56


 2329 00c2 FFF7FEFF 		bl	move_straight
 2330              	.LVL332:
 750:main.c        ****         turn('R',R_DEGREE);
 2331              		.loc 1 750 0
 2332 00c6 43F67A71 		movw	r1, #16250
 2333 00ca 5220     		movs	r0, #82
 2334 00cc FFF7FEFF 		bl	turn
 2335              	.LVL333:
 2336              	.L205:
 751:main.c        ****          }
 752:main.c        ****         if(Base ==1&&(position%2)==0)//Vertical
 2337              		.loc 1 752 0
 2338 00d0 984B     		ldr	r3, .L229+16
 2339 00d2 1B68     		ldr	r3, [r3]
 2340 00d4 012B     		cmp	r3, #1
 2341 00d6 13D1     		bne	.L207
 2342              		.loc 1 752 0 is_stmt 0 discriminator 1
 2343 00d8 954B     		ldr	r3, .L229+12
 2344 00da 1B69     		ldr	r3, [r3, #16]
 2345 00dc 13F0010F 		tst	r3, #1
 2346 00e0 0ED1     		bne	.L207
 753:main.c        ****          {
 754:main.c        ****         turn('R',R_DEGREE);
 2347              		.loc 1 754 0 is_stmt 1
 2348 00e2 43F67A71 		movw	r1, #16250
 2349 00e6 5220     		movs	r0, #82
 2350 00e8 FFF7FEFF 		bl	turn
 2351              	.LVL334:
 755:main.c        ****         move_straight('F',20000);
 2352              		.loc 1 755 0
 2353 00ec 44F62061 		movw	r1, #20000
 2354 00f0 4620     		movs	r0, #70
 2355 00f2 FFF7FEFF 		bl	move_straight
 2356              	.LVL335:
 756:main.c        ****         turn('L',L_DEGREE);
 2357              		.loc 1 756 0
 2358 00f6 43F2C231 		movw	r1, #13250
 2359 00fa 4C20     		movs	r0, #76
 2360 00fc FFF7FEFF 		bl	turn
 2361              	.LVL336:
 2362              	.L207:
 757:main.c        ****          }
 758:main.c        ****         if(Base ==2 &&(position%2)==1 )//Horizantal
 2363              		.loc 1 758 0
 2364 0100 8C4B     		ldr	r3, .L229+16
 2365 0102 1B68     		ldr	r3, [r3]
 2366 0104 022B     		cmp	r3, #2
 2367 0106 19D1     		bne	.L208
 2368              		.loc 1 758 0 is_stmt 0 discriminator 1
 2369 0108 894B     		ldr	r3, .L229+12
 2370 010a 1B69     		ldr	r3, [r3, #16]
 2371 010c 8A4A     		ldr	r2, .L229+20
 2372 010e 1340     		ands	r3, r3, r2
 2373 0110 03D5     		bpl	.L209
 2374 0112 013B     		subs	r3, r3, #1
 2375 0114 63F00103 		orn	r3, r3, #1
 2376 0118 0133     		adds	r3, r3, #1
ARM GAS  C:\Users\pasan savindu\AppData\Local\Temp\ccY2T3Z5.s 			page 57


 2377              	.L209:
 2378 011a 012B     		cmp	r3, #1
 2379 011c 0ED1     		bne	.L208
 759:main.c        ****         {
 760:main.c        ****         turn('R',R_DEGREE);
 2380              		.loc 1 760 0 is_stmt 1
 2381 011e 43F67A71 		movw	r1, #16250
 2382 0122 5220     		movs	r0, #82
 2383 0124 FFF7FEFF 		bl	turn
 2384              	.LVL337:
 761:main.c        ****         move_straight('F',20000);
 2385              		.loc 1 761 0
 2386 0128 44F62061 		movw	r1, #20000
 2387 012c 4620     		movs	r0, #70
 2388 012e FFF7FEFF 		bl	move_straight
 2389              	.LVL338:
 762:main.c        ****         turn('L',L_DEGREE);
 2390              		.loc 1 762 0
 2391 0132 43F2C231 		movw	r1, #13250
 2392 0136 4C20     		movs	r0, #76
 2393 0138 FFF7FEFF 		bl	turn
 2394              	.LVL339:
 2395              	.L208:
 763:main.c        ****         } 
 764:main.c        ****         if(Base ==2 &&(position%2)==0 )//Vertical
 2396              		.loc 1 764 0
 2397 013c 7D4B     		ldr	r3, .L229+16
 2398 013e 1B68     		ldr	r3, [r3]
 2399 0140 022B     		cmp	r3, #2
 2400 0142 15D1     		bne	.L226
 2401              		.loc 1 764 0 is_stmt 0 discriminator 1
 2402 0144 7A4B     		ldr	r3, .L229+12
 2403 0146 1B69     		ldr	r3, [r3, #16]
 2404 0148 13F0010F 		tst	r3, #1
 2405 014c 12D1     		bne	.L227
 765:main.c        ****         {
 766:main.c        ****         turn('L',L_DEGREE);
 2406              		.loc 1 766 0 is_stmt 1
 2407 014e 43F2C231 		movw	r1, #13250
 2408 0152 4C20     		movs	r0, #76
 2409 0154 FFF7FEFF 		bl	turn
 2410              	.LVL340:
 767:main.c        ****         move_straight('F',20000);
 2411              		.loc 1 767 0
 2412 0158 44F62061 		movw	r1, #20000
 2413 015c 4620     		movs	r0, #70
 2414 015e FFF7FEFF 		bl	move_straight
 2415              	.LVL341:
 768:main.c        ****         turn('R',R_DEGREE);
 2416              		.loc 1 768 0
 2417 0162 43F67A71 		movw	r1, #16250
 2418 0166 5220     		movs	r0, #82
 2419 0168 FFF7FEFF 		bl	turn
 2420              	.LVL342:
 769:main.c        ****         } 
 770:main.c        ****             temp=1;
 2421              		.loc 1 770 0
ARM GAS  C:\Users\pasan savindu\AppData\Local\Temp\ccY2T3Z5.s 			page 58


 2422 016c 0124     		movs	r4, #1
 2423              	.LVL343:
 2424 016e 02E0     		b	.L204
 2425              	.LVL344:
 2426              	.L226:
 2427 0170 0124     		movs	r4, #1
 2428              	.LVL345:
 2429 0172 00E0     		b	.L204
 2430              	.LVL346:
 2431              	.L227:
 2432 0174 0124     		movs	r4, #1
 2433              	.LVL347:
 2434              	.L204:
 771:main.c        ****         }
 772:main.c        **** //        if ((obstacle3==1)||(obstacle4==1))
 773:main.c        **** //        {
 774:main.c        **** //            move_straight('B',10000);
 775:main.c        **** //        }
 776:main.c        ****         if((countL > PUCK_END_ZONE)  || (countR> PUCK_END_ZONE))
 2435              		.loc 1 776 0
 2436 0176 6B4B     		ldr	r3, .L229
 2437 0178 1A68     		ldr	r2, [r3]
 2438 017a 704B     		ldr	r3, .L229+24
 2439 017c 9A42     		cmp	r2, r3
 2440 017e 04DC     		bgt	.L210
 2441              		.loc 1 776 0 is_stmt 0 discriminator 1
 2442 0180 694B     		ldr	r3, .L229+4
 2443 0182 1A68     		ldr	r2, [r3]
 2444 0184 6D4B     		ldr	r3, .L229+24
 2445 0186 9A42     		cmp	r2, r3
 2446 0188 73DD     		ble	.L200
 2447              	.L210:
 777:main.c        ****         {
 778:main.c        ****            motorcontrl('S');
 2448              		.loc 1 778 0 is_stmt 1
 2449 018a 5320     		movs	r0, #83
 2450 018c FFF7FEFF 		bl	motorcontrl
 2451              	.LVL348:
 779:main.c        ****            reverse=countL;
 780:main.c        ****            move_straight('B',countL);
 2452              		.loc 1 780 0
 2453 0190 644B     		ldr	r3, .L229
 2454 0192 1968     		ldr	r1, [r3]
 2455 0194 4220     		movs	r0, #66
 2456 0196 FFF7FEFF 		bl	move_straight
 2457              	.LVL349:
 781:main.c        ****         
 782:main.c        ****         if(Base ==1&&(position%2)==1) //Horizantal
 2458              		.loc 1 782 0
 2459 019a 664B     		ldr	r3, .L229+16
 2460 019c 1B68     		ldr	r3, [r3]
 2461 019e 012B     		cmp	r3, #1
 2462 01a0 19D1     		bne	.L211
 2463              		.loc 1 782 0 is_stmt 0 discriminator 1
 2464 01a2 634B     		ldr	r3, .L229+12
 2465 01a4 1B69     		ldr	r3, [r3, #16]
 2466 01a6 644A     		ldr	r2, .L229+20
ARM GAS  C:\Users\pasan savindu\AppData\Local\Temp\ccY2T3Z5.s 			page 59


 2467 01a8 1340     		ands	r3, r3, r2
 2468 01aa 03D5     		bpl	.L212
 2469 01ac 013B     		subs	r3, r3, #1
 2470 01ae 63F00103 		orn	r3, r3, #1
 2471 01b2 0133     		adds	r3, r3, #1
 2472              	.L212:
 2473 01b4 012B     		cmp	r3, #1
 2474 01b6 0ED1     		bne	.L211
 783:main.c        ****          {
 784:main.c        ****         turn('L',L_DEGREE);
 2475              		.loc 1 784 0 is_stmt 1
 2476 01b8 43F2C231 		movw	r1, #13250
 2477 01bc 4C20     		movs	r0, #76
 2478 01be FFF7FEFF 		bl	turn
 2479              	.LVL350:
 785:main.c        ****         move_straight('F',10000);
 2480              		.loc 1 785 0
 2481 01c2 42F21071 		movw	r1, #10000
 2482 01c6 4620     		movs	r0, #70
 2483 01c8 FFF7FEFF 		bl	move_straight
 2484              	.LVL351:
 786:main.c        ****         turn('R',R_DEGREE);
 2485              		.loc 1 786 0
 2486 01cc 43F67A71 		movw	r1, #16250
 2487 01d0 5220     		movs	r0, #82
 2488 01d2 FFF7FEFF 		bl	turn
 2489              	.LVL352:
 2490              	.L211:
 787:main.c        ****          }
 788:main.c        ****         if(Base ==1&&(position%2)==0)//Vertical
 2491              		.loc 1 788 0
 2492 01d6 574B     		ldr	r3, .L229+16
 2493 01d8 1B68     		ldr	r3, [r3]
 2494 01da 012B     		cmp	r3, #1
 2495 01dc 13D1     		bne	.L213
 2496              		.loc 1 788 0 is_stmt 0 discriminator 1
 2497 01de 544B     		ldr	r3, .L229+12
 2498 01e0 1B69     		ldr	r3, [r3, #16]
 2499 01e2 13F0010F 		tst	r3, #1
 2500 01e6 0ED1     		bne	.L213
 789:main.c        ****          {
 790:main.c        ****         turn('R',R_DEGREE);
 2501              		.loc 1 790 0 is_stmt 1
 2502 01e8 43F67A71 		movw	r1, #16250
 2503 01ec 5220     		movs	r0, #82
 2504 01ee FFF7FEFF 		bl	turn
 2505              	.LVL353:
 791:main.c        ****         move_straight('F',10000);
 2506              		.loc 1 791 0
 2507 01f2 42F21071 		movw	r1, #10000
 2508 01f6 4620     		movs	r0, #70
 2509 01f8 FFF7FEFF 		bl	move_straight
 2510              	.LVL354:
 792:main.c        ****         turn('L',L_DEGREE);
 2511              		.loc 1 792 0
 2512 01fc 43F2C231 		movw	r1, #13250
 2513 0200 4C20     		movs	r0, #76
ARM GAS  C:\Users\pasan savindu\AppData\Local\Temp\ccY2T3Z5.s 			page 60


 2514 0202 FFF7FEFF 		bl	turn
 2515              	.LVL355:
 2516              	.L213:
 793:main.c        ****          }
 794:main.c        ****         if(Base ==2 &&(position%2)==1 )//Horizantal
 2517              		.loc 1 794 0
 2518 0206 4B4B     		ldr	r3, .L229+16
 2519 0208 1B68     		ldr	r3, [r3]
 2520 020a 022B     		cmp	r3, #2
 2521 020c 19D1     		bne	.L214
 2522              		.loc 1 794 0 is_stmt 0 discriminator 1
 2523 020e 484B     		ldr	r3, .L229+12
 2524 0210 1B69     		ldr	r3, [r3, #16]
 2525 0212 494A     		ldr	r2, .L229+20
 2526 0214 1340     		ands	r3, r3, r2
 2527 0216 03D5     		bpl	.L215
 2528 0218 013B     		subs	r3, r3, #1
 2529 021a 63F00103 		orn	r3, r3, #1
 2530 021e 0133     		adds	r3, r3, #1
 2531              	.L215:
 2532 0220 012B     		cmp	r3, #1
 2533 0222 0ED1     		bne	.L214
 795:main.c        ****         {
 796:main.c        ****         turn('R',R_DEGREE);
 2534              		.loc 1 796 0 is_stmt 1
 2535 0224 43F67A71 		movw	r1, #16250
 2536 0228 5220     		movs	r0, #82
 2537 022a FFF7FEFF 		bl	turn
 2538              	.LVL356:
 797:main.c        ****         move_straight('F',10000);
 2539              		.loc 1 797 0
 2540 022e 42F21071 		movw	r1, #10000
 2541 0232 4620     		movs	r0, #70
 2542 0234 FFF7FEFF 		bl	move_straight
 2543              	.LVL357:
 798:main.c        ****         turn('L',L_DEGREE);
 2544              		.loc 1 798 0
 2545 0238 43F2C231 		movw	r1, #13250
 2546 023c 4C20     		movs	r0, #76
 2547 023e FFF7FEFF 		bl	turn
 2548              	.LVL358:
 2549              	.L214:
 799:main.c        ****         } 
 800:main.c        ****         if(Base ==2 &&(position%2)==0 )//Vertical
 2550              		.loc 1 800 0
 2551 0242 3C4B     		ldr	r3, .L229+16
 2552 0244 1B68     		ldr	r3, [r3]
 2553 0246 022B     		cmp	r3, #2
 2554 0248 13D1     		bne	.L200
 2555              		.loc 1 800 0 is_stmt 0 discriminator 1
 2556 024a 394B     		ldr	r3, .L229+12
 2557 024c 1B69     		ldr	r3, [r3, #16]
 2558 024e 13F0010F 		tst	r3, #1
 2559 0252 0ED1     		bne	.L200
 801:main.c        ****         {
 802:main.c        ****         turn('L',L_DEGREE);
 2560              		.loc 1 802 0 is_stmt 1
ARM GAS  C:\Users\pasan savindu\AppData\Local\Temp\ccY2T3Z5.s 			page 61


 2561 0254 43F2C231 		movw	r1, #13250
 2562 0258 4C20     		movs	r0, #76
 2563 025a FFF7FEFF 		bl	turn
 2564              	.LVL359:
 803:main.c        ****         move_straight('F',10000);
 2565              		.loc 1 803 0
 2566 025e 42F21071 		movw	r1, #10000
 2567 0262 4620     		movs	r0, #70
 2568 0264 FFF7FEFF 		bl	move_straight
 2569              	.LVL360:
 804:main.c        ****         turn('R',R_DEGREE);
 2570              		.loc 1 804 0
 2571 0268 43F67A71 		movw	r1, #16250
 2572 026c 5220     		movs	r0, #82
 2573 026e FFF7FEFF 		bl	turn
 2574              	.LVL361:
 2575              	.L200:
 805:main.c        ****         } 
 806:main.c        ****         }
 807:main.c        ****    }
 808:main.c        ****     if (IR_Out_Read() ==0)//Depends on the position you place the IR sensor, move the robot.
 2576              		.loc 1 808 0
 2577 0272 FFF7FEFF 		bl	IR_Out_Read
 2578              	.LVL362:
 2579 0276 B0B9     		cbnz	r0, .L217
 809:main.c        ****      {
 810:main.c        ****        motorcontrl('S');
 2580              		.loc 1 810 0
 2581 0278 5320     		movs	r0, #83
 2582 027a FFF7FEFF 		bl	motorcontrl
 2583              	.LVL363:
 811:main.c        ****        temp=1;
 812:main.c        ****        move_straight('F',4000);
 2584              		.loc 1 812 0
 2585 027e 4FF47A61 		mov	r1, #4000
 2586 0282 4620     		movs	r0, #70
 2587 0284 FFF7FEFF 		bl	move_straight
 2588              	.LVL364:
 813:main.c        ****        state++;
 2589              		.loc 1 813 0
 2590 0288 294A     		ldr	r2, .L229+12
 2591 028a 137B     		ldrb	r3, [r2, #12]	@ zero_extendqisi2
 2592 028c 0133     		adds	r3, r3, #1
 2593 028e 1373     		strb	r3, [r2, #12]
 811:main.c        ****        temp=1;
 2594              		.loc 1 811 0
 2595 0290 0124     		movs	r4, #1
 2596 0292 08E0     		b	.L217
 2597              	.LVL365:
 2598              	.L218:
 814:main.c        ****      }
 815:main.c        ****      while (S1_Echo_Read() == 0){
 816:main.c        **** 		S1_Trigger_Write(1);
 2599              		.loc 1 816 0
 2600 0294 0120     		movs	r0, #1
 2601 0296 FFF7FEFF 		bl	S1_Trigger_Write
 2602              	.LVL366:
ARM GAS  C:\Users\pasan savindu\AppData\Local\Temp\ccY2T3Z5.s 			page 62


 817:main.c        **** 		CyDelayUs(10);
 2603              		.loc 1 817 0
 2604 029a 0A20     		movs	r0, #10
 2605 029c FFF7FEFF 		bl	CyDelayUs
 2606              	.LVL367:
 818:main.c        **** 		S1_Trigger_Write(0);
 2607              		.loc 1 818 0
 2608 02a0 0020     		movs	r0, #0
 2609 02a2 FFF7FEFF 		bl	S1_Trigger_Write
 2610              	.LVL368:
 2611              	.L217:
 815:main.c        **** 		S1_Trigger_Write(1);
 2612              		.loc 1 815 0
 2613 02a6 FFF7FEFF 		bl	S1_Echo_Read
 2614              	.LVL369:
 2615 02aa 0028     		cmp	r0, #0
 2616 02ac F2D0     		beq	.L218
 819:main.c        **** 	    }
 820:main.c        **** 	    CyDelay(10);
 2617              		.loc 1 820 0
 2618 02ae 0A20     		movs	r0, #10
 2619 02b0 FFF7FEFF 		bl	CyDelay
 2620              	.LVL370:
 821:main.c        ****     while (S2_Echo_Read() == 0) {
 2621              		.loc 1 821 0
 2622 02b4 08E0     		b	.L219
 2623              	.L220:
 822:main.c        **** 		S2_Trigger_Write(1);
 2624              		.loc 1 822 0
 2625 02b6 0120     		movs	r0, #1
 2626 02b8 FFF7FEFF 		bl	S2_Trigger_Write
 2627              	.LVL371:
 823:main.c        **** 		CyDelayUs(10);
 2628              		.loc 1 823 0
 2629 02bc 0A20     		movs	r0, #10
 2630 02be FFF7FEFF 		bl	CyDelayUs
 2631              	.LVL372:
 824:main.c        **** 		S2_Trigger_Write(0);
 2632              		.loc 1 824 0
 2633 02c2 0020     		movs	r0, #0
 2634 02c4 FFF7FEFF 		bl	S2_Trigger_Write
 2635              	.LVL373:
 2636              	.L219:
 821:main.c        **** 		S2_Trigger_Write(1);
 2637              		.loc 1 821 0
 2638 02c8 FFF7FEFF 		bl	S2_Echo_Read
 2639              	.LVL374:
 2640 02cc 0028     		cmp	r0, #0
 2641 02ce F2D0     		beq	.L220
 825:main.c        **** 	     }
 826:main.c        ****         CyDelay(10);
 2642              		.loc 1 826 0
 2643 02d0 0A20     		movs	r0, #10
 2644 02d2 FFF7FEFF 		bl	CyDelay
 2645              	.LVL375:
 827:main.c        ****    while (S3_Echo_Read() == 0) {
 2646              		.loc 1 827 0
ARM GAS  C:\Users\pasan savindu\AppData\Local\Temp\ccY2T3Z5.s 			page 63


 2647 02d6 08E0     		b	.L221
 2648              	.L222:
 828:main.c        **** 		S3_Trigger_Write(1);
 2649              		.loc 1 828 0
 2650 02d8 0120     		movs	r0, #1
 2651 02da FFF7FEFF 		bl	S3_Trigger_Write
 2652              	.LVL376:
 829:main.c        **** 		CyDelayUs(10);
 2653              		.loc 1 829 0
 2654 02de 0A20     		movs	r0, #10
 2655 02e0 FFF7FEFF 		bl	CyDelayUs
 2656              	.LVL377:
 830:main.c        **** 		S3_Trigger_Write(0);
 2657              		.loc 1 830 0
 2658 02e4 0020     		movs	r0, #0
 2659 02e6 FFF7FEFF 		bl	S3_Trigger_Write
 2660              	.LVL378:
 2661              	.L221:
 827:main.c        **** 		S3_Trigger_Write(1);
 2662              		.loc 1 827 0
 2663 02ea FFF7FEFF 		bl	S3_Echo_Read
 2664              	.LVL379:
 2665 02ee 0028     		cmp	r0, #0
 2666 02f0 F2D0     		beq	.L222
 831:main.c        **** 	}
 832:main.c        **** 	CyDelay(10);
 2667              		.loc 1 832 0
 2668 02f2 0A20     		movs	r0, #10
 2669 02f4 FFF7FEFF 		bl	CyDelay
 2670              	.LVL380:
 833:main.c        **** 	while (S4_Echo_Read() == 0) {
 2671              		.loc 1 833 0
 2672 02f8 08E0     		b	.L223
 2673              	.L224:
 834:main.c        **** 		S4_Trigger_Write(1);
 2674              		.loc 1 834 0
 2675 02fa 0120     		movs	r0, #1
 2676 02fc FFF7FEFF 		bl	S4_Trigger_Write
 2677              	.LVL381:
 835:main.c        **** 		CyDelayUs(10);
 2678              		.loc 1 835 0
 2679 0300 0A20     		movs	r0, #10
 2680 0302 FFF7FEFF 		bl	CyDelayUs
 2681              	.LVL382:
 836:main.c        **** 		S4_Trigger_Write(0);
 2682              		.loc 1 836 0
 2683 0306 0020     		movs	r0, #0
 2684 0308 FFF7FEFF 		bl	S4_Trigger_Write
 2685              	.LVL383:
 2686              	.L223:
 833:main.c        **** 		S4_Trigger_Write(1);
 2687              		.loc 1 833 0
 2688 030c FFF7FEFF 		bl	S4_Echo_Read
 2689              	.LVL384:
 2690 0310 0028     		cmp	r0, #0
 2691 0312 F2D0     		beq	.L224
 837:main.c        **** 	}
ARM GAS  C:\Users\pasan savindu\AppData\Local\Temp\ccY2T3Z5.s 			page 64


 838:main.c        **** 	CyDelay(10);
 2692              		.loc 1 838 0
 2693 0314 0A20     		movs	r0, #10
 2694 0316 FFF7FEFF 		bl	CyDelay
 2695              	.LVL385:
 2696              	.L199:
 733:main.c        ****    {
 2697              		.loc 1 733 0
 2698 031a 002C     		cmp	r4, #0
 2699 031c 3FF498AE 		beq	.L225
 839:main.c        ****    }
 840:main.c        **** }
 2700              		.loc 1 840 0
 2701 0320 38BD     		pop	{r3, r4, r5, pc}
 2702              	.LVL386:
 2703              	.L230:
 2704 0322 00BF     		.align	2
 2705              	.L229:
 2706 0324 00000000 		.word	countL
 2707 0328 00000000 		.word	countR
 2708 032c 00000000 		.word	.LANCHOR0
 2709 0330 00000000 		.word	.LANCHOR1
 2710 0334 00000000 		.word	Base
 2711 0338 01000080 		.word	-2147483647
 2712 033c 00770100 		.word	96000
 2713              		.cfi_endproc
 2714              	.LFE84:
 2715              		.size	searchPuck, .-searchPuck
 2716              		.section	.text.grabPuck,"ax",%progbits
 2717              		.align	2
 2718              		.global	grabPuck
 2719              		.thumb
 2720              		.thumb_func
 2721              		.type	grabPuck, %function
 2722              	grabPuck:
 2723              	.LFB85:
 841:main.c        **** 
 842:main.c        **** //Collecting Puck using Gripper and Tower.
 843:main.c        **** void grabPuck(){
 2724              		.loc 1 843 0
 2725              		.cfi_startproc
 2726              		@ args = 0, pretend = 0, frame = 0
 2727              		@ frame_needed = 0, uses_anonymous_args = 0
 2728 0000 08B5     		push	{r3, lr}
 2729              		.cfi_def_cfa_offset 8
 2730              		.cfi_offset 3, -8
 2731              		.cfi_offset 14, -4
 844:main.c        ****     
 845:main.c        ****     RobotArm_Servo_WriteCompare2(500);//Gripper Closes Up
 2732              		.loc 1 845 0
 2733 0002 4FF4FA70 		mov	r0, #500
 2734 0006 FFF7FEFF 		bl	RobotArm_Servo_WriteCompare2
 2735              	.LVL387:
 846:main.c        ****     CyDelay(500);
 2736              		.loc 1 846 0
 2737 000a 4FF4FA70 		mov	r0, #500
 2738 000e FFF7FEFF 		bl	CyDelay
ARM GAS  C:\Users\pasan savindu\AppData\Local\Temp\ccY2T3Z5.s 			page 65


 2739              	.LVL388:
 847:main.c        **** //    RobotArm_Servo_WriteCompare1(700);//Tower Goes Down
 848:main.c        **** //    CyDelay(1000);
 849:main.c        ****     RobotArm_Servo_WriteCompare1(2400);//Tower Goes Up
 2740              		.loc 1 849 0
 2741 0012 4FF41660 		mov	r0, #2400
 2742 0016 FFF7FEFF 		bl	RobotArm_Servo_WriteCompare1
 2743              	.LVL389:
 850:main.c        ****     CyDelay(500);
 2744              		.loc 1 850 0
 2745 001a 4FF4FA70 		mov	r0, #500
 2746 001e FFF7FEFF 		bl	CyDelay
 2747              	.LVL390:
 851:main.c        **** //    GripperRobotArm_Servo_WriteCompare1(2300); //Gripper Opens Up
 852:main.c        ****     
 853:main.c        ****     
 854:main.c        ****    state++;
 2748              		.loc 1 854 0
 2749 0022 024A     		ldr	r2, .L233
 2750 0024 137B     		ldrb	r3, [r2, #12]	@ zero_extendqisi2
 2751 0026 0133     		adds	r3, r3, #1
 2752 0028 1373     		strb	r3, [r2, #12]
 2753 002a 08BD     		pop	{r3, pc}
 2754              	.L234:
 2755              		.align	2
 2756              	.L233:
 2757 002c 00000000 		.word	.LANCHOR1
 2758              		.cfi_endproc
 2759              	.LFE85:
 2760              		.size	grabPuck, .-grabPuck
 2761              		.section	.text.back2Base,"ax",%progbits
 2762              		.align	2
 2763              		.global	back2Base
 2764              		.thumb
 2765              		.thumb_func
 2766              		.type	back2Base, %function
 2767              	back2Base:
 2768              	.LFB86:
 855:main.c        **** }
 856:main.c        **** 
 857:main.c        **** //Goes to Puck Sorting Zone.
 858:main.c        **** void back2Base(int Base){
 2769              		.loc 1 858 0
 2770              		.cfi_startproc
 2771              		@ args = 0, pretend = 0, frame = 0
 2772              		@ frame_needed = 0, uses_anonymous_args = 0
 2773              	.LVL391:
 2774 0000 10B5     		push	{r4, lr}
 2775              		.cfi_def_cfa_offset 8
 2776              		.cfi_offset 4, -8
 2777              		.cfi_offset 14, -4
 2778 0002 0446     		mov	r4, r0
 2779              	.LVL392:
 859:main.c        ****     
 860:main.c        ****     int temp=0;
 861:main.c        ****     S1_distance=S2_distance=CAPTURE_ZONE;
 2780              		.loc 1 861 0
ARM GAS  C:\Users\pasan savindu\AppData\Local\Temp\ccY2T3Z5.s 			page 66


 2781 0004 374B     		ldr	r3, .L251
 2782 0006 2322     		movs	r2, #35
 2783 0008 5A60     		str	r2, [r3, #4]
 2784 000a 1A60     		str	r2, [r3]
 862:main.c        ****     if ((position%2)==0)//Vertical
 2785              		.loc 1 862 0
 2786 000c 364B     		ldr	r3, .L251+4
 2787 000e 1B69     		ldr	r3, [r3, #16]
 2788 0010 13F0010F 		tst	r3, #1
 2789 0014 0ED1     		bne	.L236
 863:main.c        ****     {
 864:main.c        ****     if(Base ==1)
 2790              		.loc 1 864 0
 2791 0016 0128     		cmp	r0, #1
 2792 0018 05D1     		bne	.L237
 865:main.c        ****      {
 866:main.c        ****         turn('R',R_DEGREE);
 2793              		.loc 1 866 0
 2794 001a 43F67A71 		movw	r1, #16250
 2795 001e 5220     		movs	r0, #82
 2796              	.LVL393:
 2797 0020 FFF7FEFF 		bl	turn
 2798              	.LVL394:
 2799 0024 06E0     		b	.L236
 2800              	.LVL395:
 2801              	.L237:
 867:main.c        ****      }
 868:main.c        ****     else if (Base == 2)
 2802              		.loc 1 868 0
 2803 0026 0228     		cmp	r0, #2
 2804 0028 04D1     		bne	.L236
 869:main.c        ****      {
 870:main.c        ****         turn('L',L_DEGREE);
 2805              		.loc 1 870 0
 2806 002a 43F2C231 		movw	r1, #13250
 2807 002e 4C20     		movs	r0, #76
 2808              	.LVL396:
 2809 0030 FFF7FEFF 		bl	turn
 2810              	.LVL397:
 2811              	.L236:
 871:main.c        ****      }
 872:main.c        ****     }
 873:main.c        ****     position++;
 2812              		.loc 1 873 0
 2813 0034 2C4A     		ldr	r2, .L251+4
 2814 0036 1369     		ldr	r3, [r2, #16]
 2815 0038 0133     		adds	r3, r3, #1
 2816 003a 1361     		str	r3, [r2, #16]
 874:main.c        ****     wall_allignment();
 2817              		.loc 1 874 0
 2818 003c FFF7FEFF 		bl	wall_allignment
 2819              	.LVL398:
 875:main.c        ****     move_straight('F',20000); //30cm forward            **CONFIGURE 
 2820              		.loc 1 875 0
 2821 0040 44F62061 		movw	r1, #20000
 2822 0044 4620     		movs	r0, #70
 2823 0046 FFF7FEFF 		bl	move_straight
ARM GAS  C:\Users\pasan savindu\AppData\Local\Temp\ccY2T3Z5.s 			page 67


 2824              	.LVL399:
 876:main.c        ****     
 877:main.c        ****     if(Base ==1)
 2825              		.loc 1 877 0
 2826 004a 012C     		cmp	r4, #1
 2827 004c 04D1     		bne	.L238
 878:main.c        ****     {
 879:main.c        ****         turn('R',R_DEGREE);
 2828              		.loc 1 879 0
 2829 004e 43F67A71 		movw	r1, #16250
 2830 0052 5220     		movs	r0, #82
 2831 0054 FFF7FEFF 		bl	turn
 2832              	.LVL400:
 2833              	.L238:
 880:main.c        ****     }
 881:main.c        ****     if (Base == 2)
 2834              		.loc 1 881 0
 2835 0058 022C     		cmp	r4, #2
 2836 005a 04D1     		bne	.L239
 882:main.c        ****     {
 883:main.c        ****         turn('L',L_DEGREE);
 2837              		.loc 1 883 0
 2838 005c 43F2C231 		movw	r1, #13250
 2839 0060 4C20     		movs	r0, #76
 2840 0062 FFF7FEFF 		bl	turn
 2841              	.LVL401:
 2842              	.L239:
 884:main.c        ****     }
 885:main.c        ****     
 886:main.c        ****     while(temp == 0)
 887:main.c        ****       {
 888:main.c        ****         if (obstacle1==0||obstacle2==0)
 889:main.c        ****         {
 890:main.c        ****         motorcontrl('F');
 891:main.c        ****         }
 892:main.c        ****         else if (obstacle1==1||obstacle2==0)
 893:main.c        ****         {
 894:main.c        ****          motorcontrl('S');
 895:main.c        ****          temp =1;
 2843              		.loc 1 895 0
 2844 0066 0024     		movs	r4, #0
 2845              	.LVL402:
 2846 0068 34E0     		b	.L240
 2847              	.LVL403:
 2848              	.L249:
 888:main.c        ****         {
 2849              		.loc 1 888 0
 2850 006a 1F4B     		ldr	r3, .L251+4
 2851 006c 93F90030 		ldrsb	r3, [r3]
 2852 0070 1BB1     		cbz	r3, .L241
 888:main.c        ****         {
 2853              		.loc 1 888 0 is_stmt 0 discriminator 1
 2854 0072 1D4A     		ldr	r2, .L251+4
 2855 0074 92F90120 		ldrsb	r2, [r2, #1]
 2856 0078 1AB9     		cbnz	r2, .L242
 2857              	.L241:
 890:main.c        ****         }
ARM GAS  C:\Users\pasan savindu\AppData\Local\Temp\ccY2T3Z5.s 			page 68


 2858              		.loc 1 890 0 is_stmt 1
 2859 007a 4620     		movs	r0, #70
 2860 007c FFF7FEFF 		bl	motorcontrl
 2861              	.LVL404:
 2862 0080 10E0     		b	.L245
 2863              	.L242:
 892:main.c        ****         {
 2864              		.loc 1 892 0
 2865 0082 012B     		cmp	r3, #1
 2866 0084 00D0     		beq	.L244
 892:main.c        ****         {
 2867              		.loc 1 892 0 is_stmt 0 discriminator 1
 2868 0086 6AB9     		cbnz	r2, .L245
 2869              	.L244:
 894:main.c        ****          temp =1;
 2870              		.loc 1 894 0 is_stmt 1
 2871 0088 5320     		movs	r0, #83
 2872 008a FFF7FEFF 		bl	motorcontrl
 2873              	.LVL405:
 2874              		.loc 1 895 0
 2875 008e 0124     		movs	r4, #1
 2876 0090 08E0     		b	.L245
 2877              	.LVL406:
 2878              	.L246:
 896:main.c        ****         }
 897:main.c        ****         
 898:main.c        ****         while (S1_Echo_Read() == 0){
 899:main.c        **** 		S1_Trigger_Write(1);
 2879              		.loc 1 899 0
 2880 0092 0120     		movs	r0, #1
 2881 0094 FFF7FEFF 		bl	S1_Trigger_Write
 2882              	.LVL407:
 900:main.c        **** 		CyDelayUs(10);
 2883              		.loc 1 900 0
 2884 0098 0A20     		movs	r0, #10
 2885 009a FFF7FEFF 		bl	CyDelayUs
 2886              	.LVL408:
 901:main.c        **** 		S1_Trigger_Write(0);
 2887              		.loc 1 901 0
 2888 009e 0020     		movs	r0, #0
 2889 00a0 FFF7FEFF 		bl	S1_Trigger_Write
 2890              	.LVL409:
 2891              	.L245:
 898:main.c        **** 		S1_Trigger_Write(1);
 2892              		.loc 1 898 0
 2893 00a4 FFF7FEFF 		bl	S1_Echo_Read
 2894              	.LVL410:
 2895 00a8 0028     		cmp	r0, #0
 2896 00aa F2D0     		beq	.L246
 902:main.c        **** 	    }
 903:main.c        **** 	    CyDelay(10);
 2897              		.loc 1 903 0
 2898 00ac 0A20     		movs	r0, #10
 2899 00ae FFF7FEFF 		bl	CyDelay
 2900              	.LVL411:
 904:main.c        ****         while (S2_Echo_Read() == 0){
 2901              		.loc 1 904 0
ARM GAS  C:\Users\pasan savindu\AppData\Local\Temp\ccY2T3Z5.s 			page 69


 2902 00b2 08E0     		b	.L247
 2903              	.L248:
 905:main.c        **** 		S2_Trigger_Write(1);
 2904              		.loc 1 905 0
 2905 00b4 0120     		movs	r0, #1
 2906 00b6 FFF7FEFF 		bl	S2_Trigger_Write
 2907              	.LVL412:
 906:main.c        **** 		CyDelayUs(10);
 2908              		.loc 1 906 0
 2909 00ba 0A20     		movs	r0, #10
 2910 00bc FFF7FEFF 		bl	CyDelayUs
 2911              	.LVL413:
 907:main.c        **** 		S2_Trigger_Write(0);
 2912              		.loc 1 907 0
 2913 00c0 0020     		movs	r0, #0
 2914 00c2 FFF7FEFF 		bl	S2_Trigger_Write
 2915              	.LVL414:
 2916              	.L247:
 904:main.c        **** 		S2_Trigger_Write(1);
 2917              		.loc 1 904 0
 2918 00c6 FFF7FEFF 		bl	S2_Echo_Read
 2919              	.LVL415:
 2920 00ca 0028     		cmp	r0, #0
 2921 00cc F2D0     		beq	.L248
 908:main.c        **** 	    }
 909:main.c        **** 	    CyDelay(10);
 2922              		.loc 1 909 0
 2923 00ce 0A20     		movs	r0, #10
 2924 00d0 FFF7FEFF 		bl	CyDelay
 2925              	.LVL416:
 2926              	.L240:
 886:main.c        ****       {
 2927              		.loc 1 886 0
 2928 00d4 002C     		cmp	r4, #0
 2929 00d6 C8D0     		beq	.L249
 910:main.c        ****     }
 911:main.c        ****     
 912:main.c        ****     //move_straight('B',4000);
 913:main.c        ****     state++;
 2930              		.loc 1 913 0
 2931 00d8 034A     		ldr	r2, .L251+4
 2932 00da 137B     		ldrb	r3, [r2, #12]	@ zero_extendqisi2
 2933 00dc 0133     		adds	r3, r3, #1
 2934 00de 1373     		strb	r3, [r2, #12]
 2935 00e0 10BD     		pop	{r4, pc}
 2936              	.LVL417:
 2937              	.L252:
 2938 00e2 00BF     		.align	2
 2939              	.L251:
 2940 00e4 00000000 		.word	.LANCHOR0
 2941 00e8 00000000 		.word	.LANCHOR1
 2942              		.cfi_endproc
 2943              	.LFE86:
 2944              		.size	back2Base, .-back2Base
 2945              		.section	.text.sortPuck,"ax",%progbits
 2946              		.align	2
 2947              		.global	sortPuck
ARM GAS  C:\Users\pasan savindu\AppData\Local\Temp\ccY2T3Z5.s 			page 70


 2948              		.thumb
 2949              		.thumb_func
 2950              		.type	sortPuck, %function
 2951              	sortPuck:
 2952              	.LFB87:
 914:main.c        **** }
 915:main.c        **** 
 916:main.c        **** //Sorting the Puck Based On the color
 917:main.c        **** void sortPuck(){
 2953              		.loc 1 917 0
 2954              		.cfi_startproc
 2955              		@ args = 0, pretend = 0, frame = 0
 2956              		@ frame_needed = 0, uses_anonymous_args = 0
 2957 0000 10B5     		push	{r4, lr}
 2958              		.cfi_def_cfa_offset 8
 2959              		.cfi_offset 4, -8
 2960              		.cfi_offset 14, -4
 918:main.c        ****     int color; //1-RED,2-GREEN,3-BLUE
 919:main.c        ****     color =color_sense();
 2961              		.loc 1 919 0
 2962 0002 FFF7FEFF 		bl	color_sense
 2963              	.LVL418:
 2964 0006 0446     		mov	r4, r0
 2965              	.LVL419:
 920:main.c        ****     RobotArm_Servo_WriteCompare2(700);//Release the Gripper
 2966              		.loc 1 920 0
 2967 0008 4FF42F70 		mov	r0, #700
 2968              	.LVL420:
 2969 000c FFF7FEFF 		bl	RobotArm_Servo_WriteCompare2
 2970              	.LVL421:
 921:main.c        ****     CyDelay(1000);
 2971              		.loc 1 921 0
 2972 0010 4FF47A70 		mov	r0, #1000
 2973 0014 FFF7FEFF 		bl	CyDelay
 2974              	.LVL422:
 922:main.c        ****     RobotArm_Servo_WriteCompare2(500);//Close the Gripper
 2975              		.loc 1 922 0
 2976 0018 4FF4FA70 		mov	r0, #500
 2977 001c FFF7FEFF 		bl	RobotArm_Servo_WriteCompare2
 2978              	.LVL423:
 923:main.c        ****     move_straight('B',4000);
 2979              		.loc 1 923 0
 2980 0020 4FF47A61 		mov	r1, #4000
 2981 0024 4220     		movs	r0, #66
 2982 0026 FFF7FEFF 		bl	move_straight
 2983              	.LVL424:
 924:main.c        ****     switch(color){
 2984              		.loc 1 924 0
 2985 002a 022C     		cmp	r4, #2
 2986 002c 1AD0     		beq	.L255
 2987 002e 032C     		cmp	r4, #3
 2988 0030 25D0     		beq	.L256
 2989 0032 012C     		cmp	r4, #1
 2990 0034 39D1     		bne	.L254
 925:main.c        ****         case 1://RED
 926:main.c        ****           RED_LED_Write(1);
 2991              		.loc 1 926 0
ARM GAS  C:\Users\pasan savindu\AppData\Local\Temp\ccY2T3Z5.s 			page 71


 2992 0036 0120     		movs	r0, #1
 2993 0038 FFF7FEFF 		bl	RED_LED_Write
 2994              	.LVL425:
 927:main.c        ****           CyDelay(1000);
 2995              		.loc 1 927 0
 2996 003c 4FF47A70 		mov	r0, #1000
 2997 0040 FFF7FEFF 		bl	CyDelay
 2998              	.LVL426:
 928:main.c        ****           RED_LED_Write(0);
 2999              		.loc 1 928 0
 3000 0044 0020     		movs	r0, #0
 3001 0046 FFF7FEFF 		bl	RED_LED_Write
 3002              	.LVL427:
 929:main.c        ****           Flicker_Servo_WriteCompare(2500); 
 3003              		.loc 1 929 0
 3004 004a 40F6C410 		movw	r0, #2500
 3005 004e FFF7FEFF 		bl	Flicker_Servo_WriteCompare
 3006              	.LVL428:
 930:main.c        ****           CyDelay(500);
 3007              		.loc 1 930 0
 3008 0052 4FF4FA70 		mov	r0, #500
 3009 0056 FFF7FEFF 		bl	CyDelay
 3010              	.LVL429:
 931:main.c        ****           Flicker_Servo_WriteCompare(900);
 3011              		.loc 1 931 0
 3012 005a 4FF46170 		mov	r0, #900
 3013 005e FFF7FEFF 		bl	Flicker_Servo_WriteCompare
 3014              	.LVL430:
 932:main.c        ****         break;
 3015              		.loc 1 932 0
 3016 0062 22E0     		b	.L254
 3017              	.L255:
 933:main.c        ****         case 2://Green
 934:main.c        ****         
 935:main.c        ****           Flicker_Servo_WriteCompare(1600);
 3018              		.loc 1 935 0
 3019 0064 4FF4C860 		mov	r0, #1600
 3020 0068 FFF7FEFF 		bl	Flicker_Servo_WriteCompare
 3021              	.LVL431:
 936:main.c        ****           CyDelay(500);
 3022              		.loc 1 936 0
 3023 006c 4FF4FA70 		mov	r0, #500
 3024 0070 FFF7FEFF 		bl	CyDelay
 3025              	.LVL432:
 937:main.c        ****           Flicker_Servo_WriteCompare(900);
 3026              		.loc 1 937 0
 3027 0074 4FF46170 		mov	r0, #900
 3028 0078 FFF7FEFF 		bl	Flicker_Servo_WriteCompare
 3029              	.LVL433:
 938:main.c        ****         break;
 3030              		.loc 1 938 0
 3031 007c 15E0     		b	.L254
 3032              	.L256:
 939:main.c        ****         case 3://Blue
 940:main.c        ****           BLUE_LED_Write(1);
 3033              		.loc 1 940 0
 3034 007e 0120     		movs	r0, #1
ARM GAS  C:\Users\pasan savindu\AppData\Local\Temp\ccY2T3Z5.s 			page 72


 3035 0080 FFF7FEFF 		bl	BLUE_LED_Write
 3036              	.LVL434:
 941:main.c        ****           CyDelay(1000);
 3037              		.loc 1 941 0
 3038 0084 4FF47A70 		mov	r0, #1000
 3039 0088 FFF7FEFF 		bl	CyDelay
 3040              	.LVL435:
 942:main.c        ****           BLUE_LED_Write(0);
 3041              		.loc 1 942 0
 3042 008c 0020     		movs	r0, #0
 3043 008e FFF7FEFF 		bl	BLUE_LED_Write
 3044              	.LVL436:
 943:main.c        ****           Flicker_Servo_WriteCompare(1800);
 3045              		.loc 1 943 0
 3046 0092 4FF4E160 		mov	r0, #1800
 3047 0096 FFF7FEFF 		bl	Flicker_Servo_WriteCompare
 3048              	.LVL437:
 944:main.c        ****           CyDelay(500);
 3049              		.loc 1 944 0
 3050 009a 4FF4FA70 		mov	r0, #500
 3051 009e FFF7FEFF 		bl	CyDelay
 3052              	.LVL438:
 945:main.c        ****           Flicker_Servo_WriteCompare(900);
 3053              		.loc 1 945 0
 3054 00a2 4FF46170 		mov	r0, #900
 3055 00a6 FFF7FEFF 		bl	Flicker_Servo_WriteCompare
 3056              	.LVL439:
 3057              	.L254:
 946:main.c        ****         break;
 947:main.c        ****         default:
 948:main.c        ****         break;
 949:main.c        ****     }
 950:main.c        ****     state++;
 3058              		.loc 1 950 0
 3059 00aa 024A     		ldr	r2, .L259
 3060 00ac 137B     		ldrb	r3, [r2, #12]	@ zero_extendqisi2
 3061 00ae 0133     		adds	r3, r3, #1
 3062 00b0 1373     		strb	r3, [r2, #12]
 3063 00b2 10BD     		pop	{r4, pc}
 3064              	.LVL440:
 3065              	.L260:
 3066              		.align	2
 3067              	.L259:
 3068 00b4 00000000 		.word	.LANCHOR1
 3069              		.cfi_endproc
 3070              	.LFE87:
 3071              		.size	sortPuck, .-sortPuck
 3072              		.section	.text.back2Zone,"ax",%progbits
 3073              		.align	2
 3074              		.global	back2Zone
 3075              		.thumb
 3076              		.thumb_func
 3077              		.type	back2Zone, %function
 3078              	back2Zone:
 3079              	.LFB88:
 951:main.c        **** }
 952:main.c        **** 
ARM GAS  C:\Users\pasan savindu\AppData\Local\Temp\ccY2T3Z5.s 			page 73


 953:main.c        **** //Goes Back to Puck Collecting Zone
 954:main.c        **** void back2Zone(int Base,int counter){
 3080              		.loc 1 954 0
 3081              		.cfi_startproc
 3082              		@ args = 0, pretend = 0, frame = 0
 3083              		@ frame_needed = 0, uses_anonymous_args = 0
 3084              	.LVL441:
 3085 0000 38B5     		push	{r3, r4, r5, lr}
 3086              		.cfi_def_cfa_offset 16
 3087              		.cfi_offset 3, -16
 3088              		.cfi_offset 4, -12
 3089              		.cfi_offset 5, -8
 3090              		.cfi_offset 14, -4
 3091 0002 0446     		mov	r4, r0
 3092              	.LVL442:
 955:main.c        ****     int temp=0;
 956:main.c        ****     int dist_increament=0;
 957:main.c        ****     counter++;
 958:main.c        ****     if ((position%2)==1) //Horizantal
 3093              		.loc 1 958 0
 3094 0004 364B     		ldr	r3, .L273
 3095 0006 1B69     		ldr	r3, [r3, #16]
 3096 0008 364A     		ldr	r2, .L273+4
 3097 000a 1340     		ands	r3, r3, r2
 3098 000c 03D5     		bpl	.L262
 3099 000e 013B     		subs	r3, r3, #1
 3100 0010 63F00103 		orn	r3, r3, #1
 3101 0014 0133     		adds	r3, r3, #1
 3102              	.L262:
 3103 0016 012B     		cmp	r3, #1
 3104 0018 26D1     		bne	.L271
 959:main.c        ****     {
 960:main.c        ****         turn('L',L_DEGREE*2);
 3105              		.loc 1 960 0
 3106 001a 46F28471 		movw	r1, #26500
 3107              	.LVL443:
 3108 001e 4C20     		movs	r0, #76
 3109              	.LVL444:
 3110 0020 FFF7FEFF 		bl	turn
 3111              	.LVL445:
 961:main.c        ****         //side_allignment('L');
 962:main.c        ****         move_straight('F',50000); //X Distance
 3112              		.loc 1 962 0
 3113 0024 4CF25031 		movw	r1, #50000
 3114 0028 4620     		movs	r0, #70
 3115 002a FFF7FEFF 		bl	move_straight
 3116              	.LVL446:
 963:main.c        ****         //side_allignment('L');
 964:main.c        ****         move_straight('F',(dist_increament));
 3117              		.loc 1 964 0
 3118 002e 0021     		movs	r1, #0
 3119 0030 4620     		movs	r0, #70
 3120 0032 FFF7FEFF 		bl	move_straight
 3121              	.LVL447:
 965:main.c        ****         dist_increament +=GAP;
 966:main.c        ****         if(Base ==1)
 3122              		.loc 1 966 0
ARM GAS  C:\Users\pasan savindu\AppData\Local\Temp\ccY2T3Z5.s 			page 74


 3123 0036 012C     		cmp	r4, #1
 3124 0038 05D1     		bne	.L264
 967:main.c        ****         {
 968:main.c        ****         turn('R',R_DEGREE);
 3125              		.loc 1 968 0
 3126 003a 43F67A71 		movw	r1, #16250
 3127 003e 5220     		movs	r0, #82
 3128 0040 FFF7FEFF 		bl	turn
 3129              	.LVL448:
 3130 0044 06E0     		b	.L265
 3131              	.L264:
 969:main.c        ****         }
 970:main.c        ****         else if (Base == 2)
 3132              		.loc 1 970 0
 3133 0046 022C     		cmp	r4, #2
 3134 0048 04D1     		bne	.L265
 971:main.c        ****         {
 972:main.c        ****         turn('L',L_DEGREE);
 3135              		.loc 1 972 0
 3136 004a 43F2C231 		movw	r1, #13250
 3137 004e 4C20     		movs	r0, #76
 3138 0050 FFF7FEFF 		bl	turn
 3139              	.LVL449:
 3140              	.L265:
 973:main.c        ****         }
 974:main.c        ****         wall_allignment();
 3141              		.loc 1 974 0
 3142 0054 FFF7FEFF 		bl	wall_allignment
 3143              	.LVL450:
 975:main.c        ****         move_straight('F',35000);
 3144              		.loc 1 975 0
 3145 0058 48F6B801 		movw	r1, #35000
 3146 005c 4620     		movs	r0, #70
 3147 005e FFF7FEFF 		bl	move_straight
 3148              	.LVL451:
 965:main.c        ****         if(Base ==1)
 3149              		.loc 1 965 0
 3150 0062 49F64045 		movw	r5, #40000
 3151 0066 00E0     		b	.L263
 3152              	.LVL452:
 3153              	.L271:
 956:main.c        ****     counter++;
 3154              		.loc 1 956 0
 3155 0068 0025     		movs	r5, #0
 3156              	.LVL453:
 3157              	.L263:
 976:main.c        ****     }
 977:main.c        ****     if ((position%2)==0) //Vertical
 3158              		.loc 1 977 0
 3159 006a 1D4B     		ldr	r3, .L273
 3160 006c 1B69     		ldr	r3, [r3, #16]
 3161 006e 13F0010F 		tst	r3, #1
 3162 0072 31D1     		bne	.L266
 978:main.c        ****     {
 979:main.c        ****     move_straight('B',5000);
 3163              		.loc 1 979 0
 3164 0074 41F28831 		movw	r1, #5000
ARM GAS  C:\Users\pasan savindu\AppData\Local\Temp\ccY2T3Z5.s 			page 75


 3165 0078 4220     		movs	r0, #66
 3166 007a FFF7FEFF 		bl	move_straight
 3167              	.LVL454:
 980:main.c        ****        if(Base ==1)
 3168              		.loc 1 980 0
 3169 007e 012C     		cmp	r4, #1
 3170 0080 05D1     		bne	.L267
 981:main.c        ****     {
 982:main.c        ****         turn('L',L_DEGREE);
 3171              		.loc 1 982 0
 3172 0082 43F2C231 		movw	r1, #13250
 3173 0086 4C20     		movs	r0, #76
 3174 0088 FFF7FEFF 		bl	turn
 3175              	.LVL455:
 3176 008c 06E0     		b	.L268
 3177              	.L267:
 983:main.c        ****     }
 984:main.c        ****     else if (Base == 2)
 3178              		.loc 1 984 0
 3179 008e 022C     		cmp	r4, #2
 3180 0090 04D1     		bne	.L268
 985:main.c        ****     {
 986:main.c        ****         turn('R',R_DEGREE);
 3181              		.loc 1 986 0
 3182 0092 43F67A71 		movw	r1, #16250
 3183 0096 5220     		movs	r0, #82
 3184 0098 FFF7FEFF 		bl	turn
 3185              	.LVL456:
 3186              	.L268:
 987:main.c        ****     }
 988:main.c        ****     wall_allignment();
 3187              		.loc 1 988 0
 3188 009c FFF7FEFF 		bl	wall_allignment
 3189              	.LVL457:
 989:main.c        ****     move_straight('F',85000);//X Distance
 3190              		.loc 1 989 0
 3191 00a0 1149     		ldr	r1, .L273+8
 3192 00a2 4620     		movs	r0, #70
 3193 00a4 FFF7FEFF 		bl	move_straight
 3194              	.LVL458:
 990:main.c        ****     //side_allignment('R');
 991:main.c        ****     move_straight('F',dist_increament);
 3195              		.loc 1 991 0
 3196 00a8 2946     		mov	r1, r5
 3197 00aa 4620     		movs	r0, #70
 3198 00ac FFF7FEFF 		bl	move_straight
 3199              	.LVL459:
 992:main.c        ****     //side_allignment('R');
 993:main.c        ****     if(Base ==1)
 3200              		.loc 1 993 0
 3201 00b0 012C     		cmp	r4, #1
 3202 00b2 05D1     		bne	.L269
 994:main.c        ****       {
 995:main.c        ****         turn('L',L_DEGREE);
 3203              		.loc 1 995 0
 3204 00b4 43F2C231 		movw	r1, #13250
 3205 00b8 4C20     		movs	r0, #76
ARM GAS  C:\Users\pasan savindu\AppData\Local\Temp\ccY2T3Z5.s 			page 76


 3206 00ba FFF7FEFF 		bl	turn
 3207              	.LVL460:
 3208 00be 06E0     		b	.L270
 3209              	.L269:
 996:main.c        ****       }
 997:main.c        ****     else if (Base == 2)
 3210              		.loc 1 997 0
 3211 00c0 022C     		cmp	r4, #2
 3212 00c2 04D1     		bne	.L270
 998:main.c        ****      {
 999:main.c        ****         turn('R',R_DEGREE);
 3213              		.loc 1 999 0
 3214 00c4 43F67A71 		movw	r1, #16250
 3215 00c8 5220     		movs	r0, #82
 3216 00ca FFF7FEFF 		bl	turn
 3217              	.LVL461:
 3218              	.L270:
1000:main.c        ****       }
1001:main.c        ****     move_straight('F',35000);//X Distance
 3219              		.loc 1 1001 0
 3220 00ce 48F6B801 		movw	r1, #35000
 3221 00d2 4620     		movs	r0, #70
 3222 00d4 FFF7FEFF 		bl	move_straight
 3223              	.LVL462:
 3224              	.L266:
1002:main.c        ****     
1003:main.c        ****     }
1004:main.c        ****     state=1;
 3225              		.loc 1 1004 0
 3226 00d8 0122     		movs	r2, #1
 3227 00da 014B     		ldr	r3, .L273
 3228 00dc 1A73     		strb	r2, [r3, #12]
 3229 00de 38BD     		pop	{r3, r4, r5, pc}
 3230              	.LVL463:
 3231              	.L274:
 3232              		.align	2
 3233              	.L273:
 3234 00e0 00000000 		.word	.LANCHOR1
 3235 00e4 01000080 		.word	-2147483647
 3236 00e8 084C0100 		.word	85000
 3237              		.cfi_endproc
 3238              	.LFE88:
 3239              		.size	back2Zone, .-back2Zone
 3240              		.section	.text.main,"ax",%progbits
 3241              		.align	2
 3242              		.global	main
 3243              		.thumb
 3244              		.thumb_func
 3245              		.type	main, %function
 3246              	main:
 3247              	.LFB71:
 165:main.c        ****    CyGlobalIntEnable; /* Enable global interrupts. */
 3248              		.loc 1 165 0
 3249              		.cfi_startproc
 3250              		@ args = 0, pretend = 0, frame = 0
 3251              		@ frame_needed = 0, uses_anonymous_args = 0
 3252 0000 10B5     		push	{r4, lr}
ARM GAS  C:\Users\pasan savindu\AppData\Local\Temp\ccY2T3Z5.s 			page 77


 3253              		.cfi_def_cfa_offset 8
 3254              		.cfi_offset 4, -8
 3255              		.cfi_offset 14, -4
 166:main.c        ****    Initialize();
 3256              		.loc 1 166 0
 3257              		.syntax unified
 3258              	@ 166 "main.c" 1
 3259 0002 62B6     		CPSIE   i
 3260              	@ 0 "" 2
 167:main.c        **** 
 3261              		.loc 1 167 0
 3262              		.thumb
 3263              		.syntax unified
 3264 0004 FFF7FEFF 		bl	Initialize
 3265              	.LVL464:
 172:main.c        ****         {
 3266              		.loc 1 172 0
 3267 0008 FFF7FEFF 		bl	Base_Selector_Read
 3268              	.LVL465:
 3269 000c 0128     		cmp	r0, #1
 3270 000e 03D1     		bne	.L276
 174:main.c        ****         }
 3271              		.loc 1 174 0
 3272 0010 0122     		movs	r2, #1
 3273 0012 184B     		ldr	r3, .L288
 3274 0014 1A60     		str	r2, [r3]
 3275 0016 05E0     		b	.L277
 3276              	.L276:
 176:main.c        ****         {
 3277              		.loc 1 176 0
 3278 0018 FFF7FEFF 		bl	Base_Selector_Read
 3279              	.LVL466:
 3280 001c 10B9     		cbnz	r0, .L277
 178:main.c        ****         }
 3281              		.loc 1 178 0
 3282 001e 0222     		movs	r2, #2
 3283 0020 144B     		ldr	r3, .L288
 3284 0022 1A60     		str	r2, [r3]
 3285              	.L277:
 165:main.c        ****    CyGlobalIntEnable; /* Enable global interrupts. */
 3286              		.loc 1 165 0
 3287 0024 0024     		movs	r4, #0
 3288              	.LVL467:
 3289              	.L286:
 183:main.c        ****         case 0:
 3290              		.loc 1 183 0
 3291 0026 144B     		ldr	r3, .L288+4
 3292 0028 93F90C30 		ldrsb	r3, [r3, #12]
 3293 002c 052B     		cmp	r3, #5
 3294 002e 1DD8     		bhi	.L278
 3295 0030 DFE803F0 		tbb	[pc, r3]
 3296              	.L280:
 3297 0034 03       		.byte	(.L279-.L280)/2
 3298 0035 08       		.byte	(.L281-.L280)/2
 3299 0036 0B       		.byte	(.L282-.L280)/2
 3300 0037 0E       		.byte	(.L283-.L280)/2
 3301 0038 13       		.byte	(.L284-.L280)/2
ARM GAS  C:\Users\pasan savindu\AppData\Local\Temp\ccY2T3Z5.s 			page 78


 3302 0039 16       		.byte	(.L285-.L280)/2
 3303              		.p2align 1
 3304              	.L279:
 186:main.c        ****         //state++;
 3305              		.loc 1 186 0
 3306 003a 0E4B     		ldr	r3, .L288
 3307 003c 1868     		ldr	r0, [r3]
 3308 003e FFF7FEFF 		bl	baseRoute
 3309              	.LVL468:
 188:main.c        ****         case 1:
 3310              		.loc 1 188 0
 3311 0042 13E0     		b	.L278
 3312              	.L281:
 190:main.c        ****         //state++;
 3313              		.loc 1 190 0
 3314 0044 FFF7FEFF 		bl	searchPuck
 3315              	.LVL469:
 192:main.c        ****         case 2:
 3316              		.loc 1 192 0
 3317 0048 10E0     		b	.L278
 3318              	.L282:
 194:main.c        ****         //state++;
 3319              		.loc 1 194 0
 3320 004a FFF7FEFF 		bl	grabPuck
 3321              	.LVL470:
 196:main.c        ****         case 3:
 3322              		.loc 1 196 0
 3323 004e 0DE0     		b	.L278
 3324              	.L283:
 198:main.c        ****         break;
 3325              		.loc 1 198 0
 3326 0050 084B     		ldr	r3, .L288
 3327 0052 1868     		ldr	r0, [r3]
 3328 0054 FFF7FEFF 		bl	back2Base
 3329              	.LVL471:
 199:main.c        ****         case 4:
 3330              		.loc 1 199 0
 3331 0058 08E0     		b	.L278
 3332              	.L284:
 201:main.c        ****         break;
 3333              		.loc 1 201 0
 3334 005a FFF7FEFF 		bl	sortPuck
 3335              	.LVL472:
 202:main.c        ****         case 5:
 3336              		.loc 1 202 0
 3337 005e 05E0     		b	.L278
 3338              	.L285:
 204:main.c        ****         counter++;
 3339              		.loc 1 204 0
 3340 0060 2146     		mov	r1, r4
 3341 0062 044B     		ldr	r3, .L288
 3342 0064 1868     		ldr	r0, [r3]
 3343 0066 FFF7FEFF 		bl	back2Zone
 3344              	.LVL473:
 205:main.c        ****         //state =1;
 3345              		.loc 1 205 0
 3346 006a 0134     		adds	r4, r4, #1
ARM GAS  C:\Users\pasan savindu\AppData\Local\Temp\ccY2T3Z5.s 			page 79


 3347              	.LVL474:
 3348              	.L278:
 238:main.c        **** }
 3349              		.loc 1 238 0
 3350 006c 0A20     		movs	r0, #10
 3351 006e FFF7FEFF 		bl	CyDelay
 3352              	.LVL475:
 239:main.c        **** }
 3353              		.loc 1 239 0
 3354 0072 D8E7     		b	.L286
 3355              	.L289:
 3356              		.align	2
 3357              	.L288:
 3358 0074 00000000 		.word	Base
 3359 0078 00000000 		.word	.LANCHOR1
 3360              		.cfi_endproc
 3361              	.LFE71:
 3362              		.size	main, .-main
 3363              		.global	position
 3364              		.comm	string1,20,4
 3365              		.global	dataReady
 3366              		.global	iFreq
 3367              		.comm	puckdetected,1,1
 3368              		.global	S4_distance
 3369              		.global	S3_distance
 3370              		.global	S2_distance
 3371              		.global	S1_distance
 3372              		.global	obstacle4
 3373              		.global	obstacle3
 3374              		.global	obstacle2
 3375              		.global	obstacle1
 3376              		.comm	speedR,4,4
 3377              		.comm	speedL,1,1
 3378              		.comm	countR,4,4
 3379              		.comm	countL,4,4
 3380              		.comm	Base,4,4
 3381              		.global	state
 3382              		.data
 3383              		.align	2
 3384              		.set	.LANCHOR0,. + 0
 3385              		.type	S1_distance, %object
 3386              		.size	S1_distance, 4
 3387              	S1_distance:
 3388 0000 0F000000 		.word	15
 3389              		.type	S2_distance, %object
 3390              		.size	S2_distance, 4
 3391              	S2_distance:
 3392 0004 0F000000 		.word	15
 3393              		.type	S3_distance, %object
 3394              		.size	S3_distance, 4
 3395              	S3_distance:
 3396 0008 0F000000 		.word	15
 3397              		.type	S4_distance, %object
 3398              		.size	S4_distance, 4
 3399              	S4_distance:
 3400 000c 0F000000 		.word	15
 3401              		.section	.rodata.str1.4,"aMS",%progbits,1
ARM GAS  C:\Users\pasan savindu\AppData\Local\Temp\ccY2T3Z5.s 			page 80


 3402              		.align	2
 3403              	.LC0:
 3404 0000 2564200A 		.ascii	"%d \012\000"
 3404      00
 3405              		.bss
 3406              		.align	2
 3407              		.set	.LANCHOR1,. + 0
 3408              		.type	obstacle1, %object
 3409              		.size	obstacle1, 1
 3410              	obstacle1:
 3411 0000 00       		.space	1
 3412              		.type	obstacle2, %object
 3413              		.size	obstacle2, 1
 3414              	obstacle2:
 3415 0001 00       		.space	1
 3416              		.type	obstacle3, %object
 3417              		.size	obstacle3, 1
 3418              	obstacle3:
 3419 0002 00       		.space	1
 3420              		.type	obstacle4, %object
 3421              		.size	obstacle4, 1
 3422              	obstacle4:
 3423 0003 00       		.space	1
 3424              		.type	iFreq, %object
 3425              		.size	iFreq, 2
 3426              	iFreq:
 3427 0004 0000     		.space	2
 3428 0006 0000     		.space	2
 3429              		.type	dataReady, %object
 3430              		.size	dataReady, 4
 3431              	dataReady:
 3432 0008 00000000 		.space	4
 3433              		.type	state, %object
 3434              		.size	state, 1
 3435              	state:
 3436 000c 00       		.space	1
 3437 000d 000000   		.space	3
 3438              		.type	position, %object
 3439              		.size	position, 4
 3440              	position:
 3441 0010 00000000 		.space	4
 3442              		.text
 3443              	.Letext0:
 3444              		.file 2 "c:\\program files (x86)\\cypress\\psoc creator\\4.2\\psoc creator\\import\\gnu\\arm\\5.4.
 3445              		.file 3 "c:\\program files (x86)\\cypress\\psoc creator\\4.2\\psoc creator\\import\\gnu\\arm\\5.4.
 3446              		.file 4 "Generated_Source\\PSoC5/cytypes.h"
 3447              		.file 5 "c:\\program files (x86)\\cypress\\psoc creator\\4.2\\psoc creator\\import\\gnu\\arm\\5.4.
 3448              		.file 6 "Generated_Source\\PSoC5/core_cm3.h"
 3449              		.file 7 "Generated_Source\\PSoC5/S1_Timer.h"
 3450              		.file 8 "Generated_Source\\PSoC5/S2_Timer.h"
 3451              		.file 9 "Generated_Source\\PSoC5/S3_Timer.h"
 3452              		.file 10 "Generated_Source\\PSoC5/S4_Timer.h"
 3453              		.file 11 "Generated_Source\\PSoC5/Color_Counter.h"
 3454              		.file 12 "Generated_Source\\PSoC5/Color_Timer.h"
 3455              		.file 13 "Generated_Source\\PSoC5/Color_LED.h"
 3456              		.file 14 "Generated_Source\\PSoC5/isr_6.h"
 3457              		.file 15 "Generated_Source\\PSoC5/IR_Out.h"
ARM GAS  C:\Users\pasan savindu\AppData\Local\Temp\ccY2T3Z5.s 			page 81


 3458              		.file 16 "Generated_Source\\PSoC5/QuadDec_L.h"
 3459              		.file 17 "Generated_Source\\PSoC5/QuadDec_R.h"
 3460              		.file 18 "Generated_Source\\PSoC5/Forward_L.h"
 3461              		.file 19 "Generated_Source\\PSoC5/Backward_L.h"
 3462              		.file 20 "Generated_Source\\PSoC5/Forwad_R.h"
 3463              		.file 21 "Generated_Source\\PSoC5/Backward_R.h"
 3464              		.file 22 "Generated_Source\\PSoC5/PWM_Motor.h"
 3465              		.file 23 "Generated_Source\\PSoC5/limitSW_1.h"
 3466              		.file 24 "Generated_Source\\PSoC5/limitSW_2.h"
 3467              		.file 25 "Generated_Source\\PSoC5/CyLib.h"
 3468              		.file 26 "Generated_Source\\PSoC5/S3_Trigger.h"
 3469              		.file 27 "Generated_Source\\PSoC5/S3_Echo.h"
 3470              		.file 28 "Generated_Source\\PSoC5/S4_Trigger.h"
 3471              		.file 29 "Generated_Source\\PSoC5/S4_Echo.h"
 3472              		.file 30 "Generated_Source\\PSoC5/Control_Reg_Color.h"
 3473              		.file 31 "Generated_Source\\PSoC5/Flicker_Servo.h"
 3474              		.file 32 "Generated_Source\\PSoC5/RobotArm_Servo.h"
 3475              		.file 33 "Generated_Source\\PSoC5/isr_1.h"
 3476              		.file 34 "Generated_Source\\PSoC5/isr_2.h"
 3477              		.file 35 "Generated_Source\\PSoC5/isr_3.h"
 3478              		.file 36 "Generated_Source\\PSoC5/isr_4.h"
 3479              		.file 37 "Generated_Source\\PSoC5/UART.h"
 3480              		.file 38 "Generated_Source\\PSoC5/I2C.h"
 3481              		.file 39 "Generated_Source\\PSoC5/Color_S2.h"
 3482              		.file 40 "Generated_Source\\PSoC5/Color_S3.h"
 3483              		.file 41 "Generated_Source\\PSoC5/Color_S0.h"
 3484              		.file 42 "Generated_Source\\PSoC5/Color_S1.h"
 3485              		.file 43 "c:\\program files (x86)\\cypress\\psoc creator\\4.2\\psoc creator\\import\\gnu\\arm\\5.4
 3486              		.file 44 "c:\\program files (x86)\\cypress\\psoc creator\\4.2\\psoc creator\\import\\gnu\\arm\\5.4
 3487              		.file 45 "Generated_Source\\PSoC5/S1_Trigger.h"
 3488              		.file 46 "Generated_Source\\PSoC5/S1_Echo.h"
 3489              		.file 47 "Generated_Source\\PSoC5/S2_Trigger.h"
 3490              		.file 48 "Generated_Source\\PSoC5/S2_Echo.h"
 3491              		.file 49 "Generated_Source\\PSoC5/RED_LED.h"
 3492              		.file 50 "Generated_Source\\PSoC5/BLUE_LED.h"
 3493              		.file 51 "Generated_Source\\PSoC5/Base_Selector.h"