Archive member included to satisfy reference by file (symbol)

.\CortexM3\ARM_GCC_541\Debug\Test_01.a(QuadDec_L.o)
                              .\CortexM3\ARM_GCC_541\Debug\main.o (QuadDec_L_GetCounter)
.\CortexM3\ARM_GCC_541\Debug\Test_01.a(QuadDec_L_INT.o)
                              .\CortexM3\ARM_GCC_541\Debug\Test_01.a(QuadDec_L.o) (QuadDec_L_ISR)
.\CortexM3\ARM_GCC_541\Debug\Test_01.a(QuadDec_R.o)
                              .\CortexM3\ARM_GCC_541\Debug\main.o (QuadDec_R_GetCounter)
.\CortexM3\ARM_GCC_541\Debug\Test_01.a(QuadDec_R_INT.o)
                              .\CortexM3\ARM_GCC_541\Debug\Test_01.a(QuadDec_R.o) (QuadDec_R_ISR)
.\CortexM3\ARM_GCC_541\Debug\Test_01.a(Forward_L.o)
                              .\CortexM3\ARM_GCC_541\Debug\main.o (Forward_L_Write)
.\CortexM3\ARM_GCC_541\Debug\Test_01.a(Backward_L.o)
                              .\CortexM3\ARM_GCC_541\Debug\main.o (Backward_L_Write)
.\CortexM3\ARM_GCC_541\Debug\Test_01.a(Forwad_R.o)
                              .\CortexM3\ARM_GCC_541\Debug\main.o (Forwad_R_Write)
.\CortexM3\ARM_GCC_541\Debug\Test_01.a(Backward_R.o)
                              .\CortexM3\ARM_GCC_541\Debug\main.o (Backward_R_Write)
.\CortexM3\ARM_GCC_541\Debug\Test_01.a(limitSW_2.o)
                              .\CortexM3\ARM_GCC_541\Debug\main.o (limitSW_2_Read)
.\CortexM3\ARM_GCC_541\Debug\Test_01.a(limitSW_1.o)
                              .\CortexM3\ARM_GCC_541\Debug\main.o (limitSW_1_Read)
.\CortexM3\ARM_GCC_541\Debug\Test_01.a(S1_Echo.o)
                              .\CortexM3\ARM_GCC_541\Debug\main.o (S1_Echo_Read)
.\CortexM3\ARM_GCC_541\Debug\Test_01.a(S1_Trigger.o)
                              .\CortexM3\ARM_GCC_541\Debug\main.o (S1_Trigger_Write)
.\CortexM3\ARM_GCC_541\Debug\Test_01.a(isr_1.o)
                              .\CortexM3\ARM_GCC_541\Debug\main.o (isr_1_StartEx)
.\CortexM3\ARM_GCC_541\Debug\Test_01.a(isr_2.o)
                              .\CortexM3\ARM_GCC_541\Debug\main.o (isr_2_StartEx)
.\CortexM3\ARM_GCC_541\Debug\Test_01.a(Color_Timer.o)
                              .\CortexM3\ARM_GCC_541\Debug\main.o (Color_Timer_Stop)
.\CortexM3\ARM_GCC_541\Debug\Test_01.a(Control_Reg_Color.o)
                              .\CortexM3\ARM_GCC_541\Debug\main.o (Control_Reg_Color_Write)
.\CortexM3\ARM_GCC_541\Debug\Test_01.a(Color_S0.o)
                              .\CortexM3\ARM_GCC_541\Debug\main.o (Color_S0_Write)
.\CortexM3\ARM_GCC_541\Debug\Test_01.a(Color_S1.o)
                              .\CortexM3\ARM_GCC_541\Debug\main.o (Color_S1_Write)
.\CortexM3\ARM_GCC_541\Debug\Test_01.a(Color_S2.o)
                              .\CortexM3\ARM_GCC_541\Debug\main.o (Color_S2_Write)
.\CortexM3\ARM_GCC_541\Debug\Test_01.a(Color_S3.o)
                              .\CortexM3\ARM_GCC_541\Debug\main.o (Color_S3_Write)
.\CortexM3\ARM_GCC_541\Debug\Test_01.a(Color_LED.o)
                              .\CortexM3\ARM_GCC_541\Debug\main.o (Color_LED_Write)
.\CortexM3\ARM_GCC_541\Debug\Test_01.a(RED_LED.o)
                              .\CortexM3\ARM_GCC_541\Debug\main.o (RED_LED_Write)
.\CortexM3\ARM_GCC_541\Debug\Test_01.a(BLUE_LED.o)
                              .\CortexM3\ARM_GCC_541\Debug\main.o (BLUE_LED_Write)
.\CortexM3\ARM_GCC_541\Debug\Test_01.a(QuadDec_L_Cnt16.o)
                              .\CortexM3\ARM_GCC_541\Debug\Test_01.a(QuadDec_L.o) (QuadDec_L_Cnt16_Stop)
.\CortexM3\ARM_GCC_541\Debug\Test_01.a(QuadDec_R_Cnt16.o)
                              .\CortexM3\ARM_GCC_541\Debug\Test_01.a(QuadDec_R.o) (QuadDec_R_Cnt16_Stop)
.\CortexM3\ARM_GCC_541\Debug\Test_01.a(CyLib.o)
                              .\CortexM3\ARM_GCC_541\Debug\Cm3Start.o (CyHalt)
.\CortexM3\ARM_GCC_541\Debug\Test_01.a(cyPm.o)
                              .\CortexM3\ARM_GCC_541\Debug\Test_01.a(CyLib.o) (CyPmReadStatus)
.\CortexM3\ARM_GCC_541\Debug\Test_01.a(UART.o)
                              .\CortexM3\ARM_GCC_541\Debug\main.o (UART_Start)
.\CortexM3\ARM_GCC_541\Debug\Test_01.a(Color_Counter.o)
                              .\CortexM3\ARM_GCC_541\Debug\main.o (Color_Counter_Stop)
.\CortexM3\ARM_GCC_541\Debug\Test_01.a(UART_IntClock.o)
                              .\CortexM3\ARM_GCC_541\Debug\Test_01.a(UART.o) (UART_IntClock_Start)
.\CortexM3\ARM_GCC_541\Debug\Test_01.a(S1_Timer.o)
                              .\CortexM3\ARM_GCC_541\Debug\main.o (S1_Timer_ReadStatusRegister)
.\CortexM3\ARM_GCC_541\Debug\Test_01.a(isr_3.o)
                              .\CortexM3\ARM_GCC_541\Debug\main.o (isr_3_StartEx)
.\CortexM3\ARM_GCC_541\Debug\Test_01.a(S2_Timer.o)
                              .\CortexM3\ARM_GCC_541\Debug\main.o (S2_Timer_ReadStatusRegister)
.\CortexM3\ARM_GCC_541\Debug\Test_01.a(S2_Echo.o)
                              .\CortexM3\ARM_GCC_541\Debug\main.o (S2_Echo_Read)
.\CortexM3\ARM_GCC_541\Debug\Test_01.a(S2_Trigger.o)
                              .\CortexM3\ARM_GCC_541\Debug\main.o (S2_Trigger_Write)
.\CortexM3\ARM_GCC_541\Debug\Test_01.a(isr_4.o)
                              .\CortexM3\ARM_GCC_541\Debug\main.o (isr_4_StartEx)
.\CortexM3\ARM_GCC_541\Debug\Test_01.a(S3_Timer.o)
                              .\CortexM3\ARM_GCC_541\Debug\main.o (S3_Timer_ReadStatusRegister)
.\CortexM3\ARM_GCC_541\Debug\Test_01.a(S3_Trigger.o)
                              .\CortexM3\ARM_GCC_541\Debug\main.o (S3_Trigger_Write)
.\CortexM3\ARM_GCC_541\Debug\Test_01.a(S3_Echo.o)
                              .\CortexM3\ARM_GCC_541\Debug\main.o (S3_Echo_Read)
.\CortexM3\ARM_GCC_541\Debug\Test_01.a(IR_Out.o)
                              .\CortexM3\ARM_GCC_541\Debug\main.o (IR_Out_Read)
.\CortexM3\ARM_GCC_541\Debug\Test_01.a(isr_6.o)
                              .\CortexM3\ARM_GCC_541\Debug\main.o (isr_6_StartEx)
.\CortexM3\ARM_GCC_541\Debug\Test_01.a(S4_Timer.o)
                              .\CortexM3\ARM_GCC_541\Debug\main.o (S4_Timer_ReadStatusRegister)
.\CortexM3\ARM_GCC_541\Debug\Test_01.a(S4_Echo.o)
                              .\CortexM3\ARM_GCC_541\Debug\main.o (S4_Echo_Read)
.\CortexM3\ARM_GCC_541\Debug\Test_01.a(S4_Trigger.o)
                              .\CortexM3\ARM_GCC_541\Debug\main.o (S4_Trigger_Write)
.\CortexM3\ARM_GCC_541\Debug\Test_01.a(PWM_Motor.o)
                              .\CortexM3\ARM_GCC_541\Debug\main.o (PWM_Motor_WriteCompare1)
.\CortexM3\ARM_GCC_541\Debug\Test_01.a(Flicker_Servo.o)
                              .\CortexM3\ARM_GCC_541\Debug\main.o (Flicker_Servo_WriteCompare)
.\CortexM3\ARM_GCC_541\Debug\Test_01.a(RobotArm_Servo.o)
                              .\CortexM3\ARM_GCC_541\Debug\main.o (RobotArm_Servo_WriteCompare1)
.\CortexM3\ARM_GCC_541\Debug\Test_01.a(Base_Selector.o)
                              .\CortexM3\ARM_GCC_541\Debug\main.o (Base_Selector_Read)
.\CortexM3\ARM_GCC_541\Debug\Test_01.a(I2C.o)
                              .\CortexM3\ARM_GCC_541\Debug\main.o (I2C_Start)
.\CortexM3\ARM_GCC_541\Debug\Test_01.a(I2C_INT.o)
                              .\CortexM3\ARM_GCC_541\Debug\Test_01.a(I2C.o) (I2C_ISR)
.\CortexM3\ARM_GCC_541\Debug\Test_01.a(I2C_PM.o)
                              .\CortexM3\ARM_GCC_541\Debug\Test_01.a(I2C.o) (I2C_backup)
.\CortexM3\ARM_GCC_541\Debug\Test_01.a(I2C_MASTER.o)
                              .\CortexM3\ARM_GCC_541\Debug\Test_01.a(I2C.o) (I2C_mstrStatus)
.\CortexM3\ARM_GCC_541\Debug\Test_01.a(CyBootAsmGnu.o)
                              .\CortexM3\ARM_GCC_541\Debug\cyfitter_cfg.o (CyDelayCycles)
.\CortexM3\ARM_GCC_541\Debug\Test_01.a(CyFlash.o)
                              .\CortexM3\ARM_GCC_541\Debug\Test_01.a(cyPm.o) (CyFlash_SetWaitCycles)
.\CortexM3\ARM_GCC_541\Debug\Test_01.a(CySpc.o)
                              .\CortexM3\ARM_GCC_541\Debug\Test_01.a(CyFlash.o) (CySpcStart)
c:/program files (x86)/cypress/psoc creator/4.2/psoc creator/import/gnu/arm/5.4.1/bin/../lib/gcc/arm-none-eabi/5.4.1/../../../../arm-none-eabi/lib/armv7-m\libm.a(lib_a-w_atan2.o)
                              .\CortexM3\ARM_GCC_541\Debug\main.o (atan2)
c:/program files (x86)/cypress/psoc creator/4.2/psoc creator/import/gnu/arm/5.4.1/bin/../lib/gcc/arm-none-eabi/5.4.1/../../../../arm-none-eabi/lib/armv7-m\libm.a(lib_a-e_atan2.o)
                              c:/program files (x86)/cypress/psoc creator/4.2/psoc creator/import/gnu/arm/5.4.1/bin/../lib/gcc/arm-none-eabi/5.4.1/../../../../arm-none-eabi/lib/armv7-m\libm.a(lib_a-w_atan2.o) (__ieee754_atan2)
c:/program files (x86)/cypress/psoc creator/4.2/psoc creator/import/gnu/arm/5.4.1/bin/../lib/gcc/arm-none-eabi/5.4.1/../../../../arm-none-eabi/lib/armv7-m\libm.a(lib_a-s_atan.o)
                              c:/program files (x86)/cypress/psoc creator/4.2/psoc creator/import/gnu/arm/5.4.1/bin/../lib/gcc/arm-none-eabi/5.4.1/../../../../arm-none-eabi/lib/armv7-m\libm.a(lib_a-e_atan2.o) (atan)
c:/program files (x86)/cypress/psoc creator/4.2/psoc creator/import/gnu/arm/5.4.1/bin/../lib/gcc/arm-none-eabi/5.4.1/../../../../arm-none-eabi/lib/armv7-m\libm.a(lib_a-s_fabs.o)
                              c:/program files (x86)/cypress/psoc creator/4.2/psoc creator/import/gnu/arm/5.4.1/bin/../lib/gcc/arm-none-eabi/5.4.1/../../../../arm-none-eabi/lib/armv7-m\libm.a(lib_a-e_atan2.o) (fabs)
c:/program files (x86)/cypress/psoc creator/4.2/psoc creator/import/gnu/arm/5.4.1/bin/../lib/gcc/arm-none-eabi/5.4.1/armv7-m\libgcc.a(_arm_addsubdf3.o)
                              .\CortexM3\ARM_GCC_541\Debug\main.o (__aeabi_dsub)
c:/program files (x86)/cypress/psoc creator/4.2/psoc creator/import/gnu/arm/5.4.1/bin/../lib/gcc/arm-none-eabi/5.4.1/armv7-m\libgcc.a(_arm_muldivdf3.o)
                              .\CortexM3\ARM_GCC_541\Debug\main.o (__aeabi_dmul)
c:/program files (x86)/cypress/psoc creator/4.2/psoc creator/import/gnu/arm/5.4.1/bin/../lib/gcc/arm-none-eabi/5.4.1/armv7-m\libgcc.a(_arm_cmpdf2.o)
                              .\CortexM3\ARM_GCC_541\Debug\main.o (__aeabi_dcmplt)
c:/program files (x86)/cypress/psoc creator/4.2/psoc creator/import/gnu/arm/5.4.1/bin/../lib/gcc/arm-none-eabi/5.4.1/armv7-m\libgcc.a(_arm_fixdfsi.o)
                              .\CortexM3\ARM_GCC_541\Debug\main.o (__aeabi_d2iz)
c:/program files (x86)/cypress/psoc creator/4.2/psoc creator/import/gnu/arm/5.4.1/bin/../lib/gcc/arm-none-eabi/5.4.1/armv7-m\libgcc.a(_arm_addsubsf3.o)
                              .\CortexM3\ARM_GCC_541\Debug\main.o (__aeabi_i2f)
c:/program files (x86)/cypress/psoc creator/4.2/psoc creator/import/gnu/arm/5.4.1/bin/../lib/gcc/arm-none-eabi/5.4.1/armv7-m\libgcc.a(_arm_cmpsf2.o)
                              .\CortexM3\ARM_GCC_541\Debug\main.o (__aeabi_fcmplt)
c:/program files (x86)/cypress/psoc creator/4.2/psoc creator/import/gnu/arm/5.4.1/bin/../lib/gcc/arm-none-eabi/5.4.1/../../../../arm-none-eabi/lib/armv7-m\libg_nano.a(lib_a-errno.o)
                              .\CortexM3\ARM_GCC_541\Debug\Cm3Start.o (__errno)
c:/program files (x86)/cypress/psoc creator/4.2/psoc creator/import/gnu/arm/5.4.1/bin/../lib/gcc/arm-none-eabi/5.4.1/../../../../arm-none-eabi/lib/armv7-m\libg_nano.a(lib_a-exit.o)
                              c:/program files (x86)/cypress/psoc creator/4.2/psoc creator/import/gnu/arm/5.4.1/bin/../lib/gcc/arm-none-eabi/5.4.1/../../../../arm-none-eabi/lib/armv7-m/crt0.o (exit)
c:/program files (x86)/cypress/psoc creator/4.2/psoc creator/import/gnu/arm/5.4.1/bin/../lib/gcc/arm-none-eabi/5.4.1/../../../../arm-none-eabi/lib/armv7-m\libg_nano.a(lib_a-impure.o)
                              c:/program files (x86)/cypress/psoc creator/4.2/psoc creator/import/gnu/arm/5.4.1/bin/../lib/gcc/arm-none-eabi/5.4.1/../../../../arm-none-eabi/lib/armv7-m\libg_nano.a(lib_a-exit.o) (_global_impure_ptr)
c:/program files (x86)/cypress/psoc creator/4.2/psoc creator/import/gnu/arm/5.4.1/bin/../lib/gcc/arm-none-eabi/5.4.1/../../../../arm-none-eabi/lib/armv7-m\libg_nano.a(lib_a-init.o)
                              c:/program files (x86)/cypress/psoc creator/4.2/psoc creator/import/gnu/arm/5.4.1/bin/../lib/gcc/arm-none-eabi/5.4.1/../../../../arm-none-eabi/lib/armv7-m/crt0.o (__libc_init_array)
c:/program files (x86)/cypress/psoc creator/4.2/psoc creator/import/gnu/arm/5.4.1/bin/../lib/gcc/arm-none-eabi/5.4.1/../../../../arm-none-eabi/lib/armv7-m\libg_nano.a(lib_a-memcpy-stub.o)
                              .\CortexM3\ARM_GCC_541\Debug\cyfitter_cfg.o (memcpy)
c:/program files (x86)/cypress/psoc creator/4.2/psoc creator/import/gnu/arm/5.4.1/bin/../lib/gcc/arm-none-eabi/5.4.1/../../../../arm-none-eabi/lib/armv7-m\libg_nano.a(lib_a-memset.o)
                              c:/program files (x86)/cypress/psoc creator/4.2/psoc creator/import/gnu/arm/5.4.1/bin/../lib/gcc/arm-none-eabi/5.4.1/../../../../arm-none-eabi/lib/armv7-m/crt0.o (memset)
c:/program files (x86)/cypress/psoc creator/4.2/psoc creator/import/gnu/arm/5.4.1/bin/../lib/gcc/arm-none-eabi/5.4.1/../../../../arm-none-eabi/lib/armv7-m\libg_nano.a(lib_a-sprintf.o)
                              .\CortexM3\ARM_GCC_541\Debug\main.o (sprintf)
c:/program files (x86)/cypress/psoc creator/4.2/psoc creator/import/gnu/arm/5.4.1/bin/../lib/gcc/arm-none-eabi/5.4.1/../../../../arm-none-eabi/lib/armv7-m\libg_nano.a(lib_a-nano-svfprintf.o)
                              c:/program files (x86)/cypress/psoc creator/4.2/psoc creator/import/gnu/arm/5.4.1/bin/../lib/gcc/arm-none-eabi/5.4.1/../../../../arm-none-eabi/lib/armv7-m\libg_nano.a(lib_a-sprintf.o) (_svfprintf_r)
c:/program files (x86)/cypress/psoc creator/4.2/psoc creator/import/gnu/arm/5.4.1/bin/../lib/gcc/arm-none-eabi/5.4.1/../../../../arm-none-eabi/lib/armv7-m\libg_nano.a(lib_a-nano-vfprintf_i.o)
                              c:/program files (x86)/cypress/psoc creator/4.2/psoc creator/import/gnu/arm/5.4.1/bin/../lib/gcc/arm-none-eabi/5.4.1/../../../../arm-none-eabi/lib/armv7-m\libg_nano.a(lib_a-nano-svfprintf.o) (_printf_i)
c:/program files (x86)/cypress/psoc creator/4.2/psoc creator/import/gnu/arm/5.4.1/bin/../lib/gcc/arm-none-eabi/5.4.1/../../../../arm-none-eabi/lib/armv7-m\libg_nano.a(lib_a-memchr-stub.o)
                              c:/program files (x86)/cypress/psoc creator/4.2/psoc creator/import/gnu/arm/5.4.1/bin/../lib/gcc/arm-none-eabi/5.4.1/../../../../arm-none-eabi/lib/armv7-m\libg_nano.a(lib_a-nano-svfprintf.o) (memchr)
c:/program files (x86)/cypress/psoc creator/4.2/psoc creator/import/gnu/arm/5.4.1/bin/../lib/gcc/arm-none-eabi/5.4.1/../../../../arm-none-eabi/lib/armv7-m\libg_nano.a(lib_a-memmove.o)
                              c:/program files (x86)/cypress/psoc creator/4.2/psoc creator/import/gnu/arm/5.4.1/bin/../lib/gcc/arm-none-eabi/5.4.1/../../../../arm-none-eabi/lib/armv7-m\libg_nano.a(lib_a-nano-svfprintf.o) (memmove)
c:/program files (x86)/cypress/psoc creator/4.2/psoc creator/import/gnu/arm/5.4.1/bin/../lib/gcc/arm-none-eabi/5.4.1/../../../../arm-none-eabi/lib/armv7-m\libg_nano.a(lib_a-nano-freer.o)
                              c:/program files (x86)/cypress/psoc creator/4.2/psoc creator/import/gnu/arm/5.4.1/bin/../lib/gcc/arm-none-eabi/5.4.1/../../../../arm-none-eabi/lib/armv7-m\libg_nano.a(lib_a-nano-svfprintf.o) (_free_r)
c:/program files (x86)/cypress/psoc creator/4.2/psoc creator/import/gnu/arm/5.4.1/bin/../lib/gcc/arm-none-eabi/5.4.1/../../../../arm-none-eabi/lib/armv7-m\libg_nano.a(lib_a-nano-mallocr.o)
                              c:/program files (x86)/cypress/psoc creator/4.2/psoc creator/import/gnu/arm/5.4.1/bin/../lib/gcc/arm-none-eabi/5.4.1/../../../../arm-none-eabi/lib/armv7-m\libg_nano.a(lib_a-nano-svfprintf.o) (_malloc_r)
c:/program files (x86)/cypress/psoc creator/4.2/psoc creator/import/gnu/arm/5.4.1/bin/../lib/gcc/arm-none-eabi/5.4.1/../../../../arm-none-eabi/lib/armv7-m\libg_nano.a(lib_a-nano-reallocr.o)
                              c:/program files (x86)/cypress/psoc creator/4.2/psoc creator/import/gnu/arm/5.4.1/bin/../lib/gcc/arm-none-eabi/5.4.1/../../../../arm-none-eabi/lib/armv7-m\libg_nano.a(lib_a-nano-svfprintf.o) (_realloc_r)
c:/program files (x86)/cypress/psoc creator/4.2/psoc creator/import/gnu/arm/5.4.1/bin/../lib/gcc/arm-none-eabi/5.4.1/../../../../arm-none-eabi/lib/armv7-m\libg_nano.a(lib_a-sbrkr.o)
                              c:/program files (x86)/cypress/psoc creator/4.2/psoc creator/import/gnu/arm/5.4.1/bin/../lib/gcc/arm-none-eabi/5.4.1/../../../../arm-none-eabi/lib/armv7-m\libg_nano.a(lib_a-nano-mallocr.o) (_sbrk_r)
c:/program files (x86)/cypress/psoc creator/4.2/psoc creator/import/gnu/arm/5.4.1/bin/../lib/gcc/arm-none-eabi/5.4.1/../../../../arm-none-eabi/lib/armv7-m\libg_nano.a(lib_a-mlock.o)
                              c:/program files (x86)/cypress/psoc creator/4.2/psoc creator/import/gnu/arm/5.4.1/bin/../lib/gcc/arm-none-eabi/5.4.1/../../../../arm-none-eabi/lib/armv7-m\libg_nano.a(lib_a-nano-freer.o) (__malloc_lock)
c:/program files (x86)/cypress/psoc creator/4.2/psoc creator/import/gnu/arm/5.4.1/bin/../lib/gcc/arm-none-eabi/5.4.1/../../../../arm-none-eabi/lib/armv7-m\libg_nano.a(lib_a-nano-msizer.o)
                              c:/program files (x86)/cypress/psoc creator/4.2/psoc creator/import/gnu/arm/5.4.1/bin/../lib/gcc/arm-none-eabi/5.4.1/../../../../arm-none-eabi/lib/armv7-m\libg_nano.a(lib_a-nano-reallocr.o) (_malloc_usable_size_r)
c:/program files (x86)/cypress/psoc creator/4.2/psoc creator/import/gnu/arm/5.4.1/bin/../lib/gcc/arm-none-eabi/5.4.1/../../../../arm-none-eabi/lib/armv7-m\libg_nano.a(lib_a-reent.o)
                              c:/program files (x86)/cypress/psoc creator/4.2/psoc creator/import/gnu/arm/5.4.1/bin/../lib/gcc/arm-none-eabi/5.4.1/../../../../arm-none-eabi/lib/armv7-m\libg_nano.a(lib_a-sbrkr.o) (errno)

Allocating common symbols
Common symbol       size              file

countR              0x4               .\CortexM3\ARM_GCC_541\Debug\main.o
errno               0x4               c:/program files (x86)/cypress/psoc creator/4.2/psoc creator/import/gnu/arm/5.4.1/bin/../lib/gcc/arm-none-eabi/5.4.1/../../../../arm-none-eabi/lib/armv7-m\libg_nano.a(lib_a-reent.o)
Base                0x4               .\CortexM3\ARM_GCC_541\Debug\main.o
I2C_state           0x1               .\CortexM3\ARM_GCC_541\Debug\Test_01.a(I2C.o)
I2C_mstrWrBufIndex  0x1               .\CortexM3\ARM_GCC_541\Debug\Test_01.a(I2C_MASTER.o)
I2C_mstrWrBufSize   0x1               .\CortexM3\ARM_GCC_541\Debug\Test_01.a(I2C_MASTER.o)
I2C_mstrStatus      0x1               .\CortexM3\ARM_GCC_541\Debug\Test_01.a(I2C_MASTER.o)
string1             0x14              .\CortexM3\ARM_GCC_541\Debug\main.o
I2C_mstrRdBufPtr    0x4               .\CortexM3\ARM_GCC_541\Debug\Test_01.a(I2C_MASTER.o)
I2C_mstrControl     0x1               .\CortexM3\ARM_GCC_541\Debug\Test_01.a(I2C_MASTER.o)
I2C_mstrRdBufSize   0x1               .\CortexM3\ARM_GCC_541\Debug\Test_01.a(I2C_MASTER.o)
speedR              0x4               .\CortexM3\ARM_GCC_541\Debug\main.o
I2C_mstrRdBufIndex  0x1               .\CortexM3\ARM_GCC_541\Debug\Test_01.a(I2C_MASTER.o)
speedL              0x1               .\CortexM3\ARM_GCC_541\Debug\main.o
I2C_mstrWrBufPtr    0x4               .\CortexM3\ARM_GCC_541\Debug\Test_01.a(I2C_MASTER.o)
dieTemperature      0x2               .\CortexM3\ARM_GCC_541\Debug\Test_01.a(CyFlash.o)
puckdetected        0x1               .\CortexM3\ARM_GCC_541\Debug\main.o
countL              0x4               .\CortexM3\ARM_GCC_541\Debug\main.o

Discarded input sections

 .text          0x00000000        0x0 c:/program files (x86)/cypress/psoc creator/4.2/psoc creator/import/gnu/arm/5.4.1/bin/../lib/gcc/arm-none-eabi/5.4.1/armv7-m/crti.o
 .data          0x00000000        0x0 c:/program files (x86)/cypress/psoc creator/4.2/psoc creator/import/gnu/arm/5.4.1/bin/../lib/gcc/arm-none-eabi/5.4.1/armv7-m/crti.o
 .bss           0x00000000        0x0 c:/program files (x86)/cypress/psoc creator/4.2/psoc creator/import/gnu/arm/5.4.1/bin/../lib/gcc/arm-none-eabi/5.4.1/armv7-m/crti.o
 .data          0x00000000        0x4 c:/program files (x86)/cypress/psoc creator/4.2/psoc creator/import/gnu/arm/5.4.1/bin/../lib/gcc/arm-none-eabi/5.4.1/armv7-m/crtbegin.o
 .text          0x00000000       0x74 c:/program files (x86)/cypress/psoc creator/4.2/psoc creator/import/gnu/arm/5.4.1/bin/../lib/gcc/arm-none-eabi/5.4.1/../../../../arm-none-eabi/lib/armv7-m/crt0.o
 .data          0x00000000        0x0 c:/program files (x86)/cypress/psoc creator/4.2/psoc creator/import/gnu/arm/5.4.1/bin/../lib/gcc/arm-none-eabi/5.4.1/../../../../arm-none-eabi/lib/armv7-m/crt0.o
 .bss           0x00000000        0x0 c:/program files (x86)/cypress/psoc creator/4.2/psoc creator/import/gnu/arm/5.4.1/bin/../lib/gcc/arm-none-eabi/5.4.1/../../../../arm-none-eabi/lib/armv7-m/crt0.o
 .ARM.extab     0x00000000        0x0 c:/program files (x86)/cypress/psoc creator/4.2/psoc creator/import/gnu/arm/5.4.1/bin/../lib/gcc/arm-none-eabi/5.4.1/../../../../arm-none-eabi/lib/armv7-m/crt0.o
 .ARM.exidx     0x00000000        0x8 c:/program files (x86)/cypress/psoc creator/4.2/psoc creator/import/gnu/arm/5.4.1/bin/../lib/gcc/arm-none-eabi/5.4.1/../../../../arm-none-eabi/lib/armv7-m/crt0.o
 .text          0x00000000        0x0 .\CortexM3\ARM_GCC_541\Debug\main.o
 .text.interrupt5_handler
                0x00000000       0x2c .\CortexM3\ARM_GCC_541\Debug\main.o
 .text.side_allignment
                0x00000000       0xb4 .\CortexM3\ARM_GCC_541\Debug\main.o
 .text.compass  0x00000000      0x1e8 .\CortexM3\ARM_GCC_541\Debug\main.o
 .rodata.str1.4
                0x00000000        0x5 .\CortexM3\ARM_GCC_541\Debug\main.o
 .text          0x00000000        0x0 .\CortexM3\ARM_GCC_541\Debug\cyfitter_cfg.o
 .data          0x00000000        0x0 .\CortexM3\ARM_GCC_541\Debug\cyfitter_cfg.o
 .bss           0x00000000        0x0 .\CortexM3\ARM_GCC_541\Debug\cyfitter_cfg.o
 .text.SetAnalogRoutingPumps
                0x00000000       0x10 .\CortexM3\ARM_GCC_541\Debug\cyfitter_cfg.o
 .text          0x00000000        0x0 .\CortexM3\ARM_GCC_541\Debug\cymetadata.o
 .data          0x00000000        0x0 .\CortexM3\ARM_GCC_541\Debug\cymetadata.o
 .bss           0x00000000        0x0 .\CortexM3\ARM_GCC_541\Debug\cymetadata.o
 .text          0x00000000        0x0 .\CortexM3\ARM_GCC_541\Debug\Cm3Start.o
 .data          0x00000000        0x4 .\CortexM3\ARM_GCC_541\Debug\Cm3Start.o
 .bss           0x00000000        0x0 .\CortexM3\ARM_GCC_541\Debug\Cm3Start.o
 .text._exit    0x00000000        0xc .\CortexM3\ARM_GCC_541\Debug\Cm3Start.o
 .text._sbrk    0x00000000       0x30 .\CortexM3\ARM_GCC_541\Debug\Cm3Start.o
 .text          0x00000000        0x0 .\CortexM3\ARM_GCC_541\Debug\Test_01.a(QuadDec_L.o)
 .data          0x00000000        0x0 .\CortexM3\ARM_GCC_541\Debug\Test_01.a(QuadDec_L.o)
 .text.QuadDec_L_Stop
                0x00000000       0x28 .\CortexM3\ARM_GCC_541\Debug\Test_01.a(QuadDec_L.o)
 .text.QuadDec_L_GetInterruptMask
                0x00000000       0x10 .\CortexM3\ARM_GCC_541\Debug\Test_01.a(QuadDec_L.o)
 .text          0x00000000        0x0 .\CortexM3\ARM_GCC_541\Debug\Test_01.a(QuadDec_L_INT.o)
 .data          0x00000000        0x0 .\CortexM3\ARM_GCC_541\Debug\Test_01.a(QuadDec_L_INT.o)
 .text          0x00000000        0x0 .\CortexM3\ARM_GCC_541\Debug\Test_01.a(QuadDec_R.o)
 .data          0x00000000        0x0 .\CortexM3\ARM_GCC_541\Debug\Test_01.a(QuadDec_R.o)
 .text.QuadDec_R_Stop
                0x00000000       0x28 .\CortexM3\ARM_GCC_541\Debug\Test_01.a(QuadDec_R.o)
 .text.QuadDec_R_GetInterruptMask
                0x00000000       0x10 .\CortexM3\ARM_GCC_541\Debug\Test_01.a(QuadDec_R.o)
 .text          0x00000000        0x0 .\CortexM3\ARM_GCC_541\Debug\Test_01.a(QuadDec_R_INT.o)
 .data          0x00000000        0x0 .\CortexM3\ARM_GCC_541\Debug\Test_01.a(QuadDec_R_INT.o)
 .text          0x00000000        0x0 .\CortexM3\ARM_GCC_541\Debug\Test_01.a(Forward_L.o)
 .data          0x00000000        0x0 .\CortexM3\ARM_GCC_541\Debug\Test_01.a(Forward_L.o)
 .bss           0x00000000        0x0 .\CortexM3\ARM_GCC_541\Debug\Test_01.a(Forward_L.o)
 .text.Forward_L_SetDriveMode
                0x00000000       0x18 .\CortexM3\ARM_GCC_541\Debug\Test_01.a(Forward_L.o)
 .text.Forward_L_Read
                0x00000000       0x10 .\CortexM3\ARM_GCC_541\Debug\Test_01.a(Forward_L.o)
 .text.Forward_L_ReadDataReg
                0x00000000       0x10 .\CortexM3\ARM_GCC_541\Debug\Test_01.a(Forward_L.o)
 .text          0x00000000        0x0 .\CortexM3\ARM_GCC_541\Debug\Test_01.a(Backward_L.o)
 .data          0x00000000        0x0 .\CortexM3\ARM_GCC_541\Debug\Test_01.a(Backward_L.o)
 .bss           0x00000000        0x0 .\CortexM3\ARM_GCC_541\Debug\Test_01.a(Backward_L.o)
 .text.Backward_L_SetDriveMode
                0x00000000       0x18 .\CortexM3\ARM_GCC_541\Debug\Test_01.a(Backward_L.o)
 .text.Backward_L_Read
                0x00000000       0x10 .\CortexM3\ARM_GCC_541\Debug\Test_01.a(Backward_L.o)
 .text.Backward_L_ReadDataReg
                0x00000000       0x10 .\CortexM3\ARM_GCC_541\Debug\Test_01.a(Backward_L.o)
 .text          0x00000000        0x0 .\CortexM3\ARM_GCC_541\Debug\Test_01.a(Forwad_R.o)
 .data          0x00000000        0x0 .\CortexM3\ARM_GCC_541\Debug\Test_01.a(Forwad_R.o)
 .bss           0x00000000        0x0 .\CortexM3\ARM_GCC_541\Debug\Test_01.a(Forwad_R.o)
 .text.Forwad_R_SetDriveMode
                0x00000000       0x18 .\CortexM3\ARM_GCC_541\Debug\Test_01.a(Forwad_R.o)
 .text.Forwad_R_Read
                0x00000000       0x10 .\CortexM3\ARM_GCC_541\Debug\Test_01.a(Forwad_R.o)
 .text.Forwad_R_ReadDataReg
                0x00000000       0x10 .\CortexM3\ARM_GCC_541\Debug\Test_01.a(Forwad_R.o)
 .text          0x00000000        0x0 .\CortexM3\ARM_GCC_541\Debug\Test_01.a(Backward_R.o)
 .data          0x00000000        0x0 .\CortexM3\ARM_GCC_541\Debug\Test_01.a(Backward_R.o)
 .bss           0x00000000        0x0 .\CortexM3\ARM_GCC_541\Debug\Test_01.a(Backward_R.o)
 .text.Backward_R_SetDriveMode
                0x00000000       0x18 .\CortexM3\ARM_GCC_541\Debug\Test_01.a(Backward_R.o)
 .text.Backward_R_Read
                0x00000000        0xc .\CortexM3\ARM_GCC_541\Debug\Test_01.a(Backward_R.o)
 .text.Backward_R_ReadDataReg
                0x00000000        0xc .\CortexM3\ARM_GCC_541\Debug\Test_01.a(Backward_R.o)
 .text          0x00000000        0x0 .\CortexM3\ARM_GCC_541\Debug\Test_01.a(limitSW_2.o)
 .data          0x00000000        0x0 .\CortexM3\ARM_GCC_541\Debug\Test_01.a(limitSW_2.o)
 .bss           0x00000000        0x0 .\CortexM3\ARM_GCC_541\Debug\Test_01.a(limitSW_2.o)
 .text.limitSW_2_Write
                0x00000000       0x18 .\CortexM3\ARM_GCC_541\Debug\Test_01.a(limitSW_2.o)
 .text.limitSW_2_SetDriveMode
                0x00000000       0x18 .\CortexM3\ARM_GCC_541\Debug\Test_01.a(limitSW_2.o)
 .text.limitSW_2_ReadDataReg
                0x00000000       0x10 .\CortexM3\ARM_GCC_541\Debug\Test_01.a(limitSW_2.o)
 .text          0x00000000        0x0 .\CortexM3\ARM_GCC_541\Debug\Test_01.a(limitSW_1.o)
 .data          0x00000000        0x0 .\CortexM3\ARM_GCC_541\Debug\Test_01.a(limitSW_1.o)
 .bss           0x00000000        0x0 .\CortexM3\ARM_GCC_541\Debug\Test_01.a(limitSW_1.o)
 .text.limitSW_1_Write
                0x00000000       0x18 .\CortexM3\ARM_GCC_541\Debug\Test_01.a(limitSW_1.o)
 .text.limitSW_1_SetDriveMode
                0x00000000       0x18 .\CortexM3\ARM_GCC_541\Debug\Test_01.a(limitSW_1.o)
 .text.limitSW_1_ReadDataReg
                0x00000000       0x10 .\CortexM3\ARM_GCC_541\Debug\Test_01.a(limitSW_1.o)
 .text          0x00000000        0x0 .\CortexM3\ARM_GCC_541\Debug\Test_01.a(S1_Echo.o)
 .data          0x00000000        0x0 .\CortexM3\ARM_GCC_541\Debug\Test_01.a(S1_Echo.o)
 .bss           0x00000000        0x0 .\CortexM3\ARM_GCC_541\Debug\Test_01.a(S1_Echo.o)
 .text.S1_Echo_Write
                0x00000000       0x18 .\CortexM3\ARM_GCC_541\Debug\Test_01.a(S1_Echo.o)
 .text.S1_Echo_SetDriveMode
                0x00000000       0x18 .\CortexM3\ARM_GCC_541\Debug\Test_01.a(S1_Echo.o)
 .text.S1_Echo_ReadDataReg
                0x00000000       0x10 .\CortexM3\ARM_GCC_541\Debug\Test_01.a(S1_Echo.o)
 .text          0x00000000        0x0 .\CortexM3\ARM_GCC_541\Debug\Test_01.a(S1_Trigger.o)
 .data          0x00000000        0x0 .\CortexM3\ARM_GCC_541\Debug\Test_01.a(S1_Trigger.o)
 .bss           0x00000000        0x0 .\CortexM3\ARM_GCC_541\Debug\Test_01.a(S1_Trigger.o)
 .text.S1_Trigger_SetDriveMode
                0x00000000       0x18 .\CortexM3\ARM_GCC_541\Debug\Test_01.a(S1_Trigger.o)
 .text.S1_Trigger_Read
                0x00000000       0x10 .\CortexM3\ARM_GCC_541\Debug\Test_01.a(S1_Trigger.o)
 .text.S1_Trigger_ReadDataReg
                0x00000000       0x10 .\CortexM3\ARM_GCC_541\Debug\Test_01.a(S1_Trigger.o)
 .text          0x00000000        0x0 .\CortexM3\ARM_GCC_541\Debug\Test_01.a(isr_1.o)
 .data          0x00000000        0x0 .\CortexM3\ARM_GCC_541\Debug\Test_01.a(isr_1.o)
 .bss           0x00000000        0x0 .\CortexM3\ARM_GCC_541\Debug\Test_01.a(isr_1.o)
 .text.isr_1_Interrupt
                0x00000000        0x4 .\CortexM3\ARM_GCC_541\Debug\Test_01.a(isr_1.o)
 .text.isr_1_GetVector
                0x00000000        0xc .\CortexM3\ARM_GCC_541\Debug\Test_01.a(isr_1.o)
 .text.isr_1_GetPriority
                0x00000000        0xc .\CortexM3\ARM_GCC_541\Debug\Test_01.a(isr_1.o)
 .text.isr_1_GetState
                0x00000000       0x18 .\CortexM3\ARM_GCC_541\Debug\Test_01.a(isr_1.o)
 .text.isr_1_Start
                0x00000000       0x1c .\CortexM3\ARM_GCC_541\Debug\Test_01.a(isr_1.o)
 .text.isr_1_Stop
                0x00000000       0x14 .\CortexM3\ARM_GCC_541\Debug\Test_01.a(isr_1.o)
 .text.isr_1_SetPending
                0x00000000        0xc .\CortexM3\ARM_GCC_541\Debug\Test_01.a(isr_1.o)
 .text.isr_1_ClearPending
                0x00000000        0xc .\CortexM3\ARM_GCC_541\Debug\Test_01.a(isr_1.o)
 .text          0x00000000        0x0 .\CortexM3\ARM_GCC_541\Debug\Test_01.a(isr_2.o)
 .data          0x00000000        0x0 .\CortexM3\ARM_GCC_541\Debug\Test_01.a(isr_2.o)
 .bss           0x00000000        0x0 .\CortexM3\ARM_GCC_541\Debug\Test_01.a(isr_2.o)
 .text.isr_2_Interrupt
                0x00000000        0x4 .\CortexM3\ARM_GCC_541\Debug\Test_01.a(isr_2.o)
 .text.isr_2_GetVector
                0x00000000        0xc .\CortexM3\ARM_GCC_541\Debug\Test_01.a(isr_2.o)
 .text.isr_2_GetPriority
                0x00000000        0xc .\CortexM3\ARM_GCC_541\Debug\Test_01.a(isr_2.o)
 .text.isr_2_GetState
                0x00000000       0x18 .\CortexM3\ARM_GCC_541\Debug\Test_01.a(isr_2.o)
 .text.isr_2_Start
                0x00000000       0x1c .\CortexM3\ARM_GCC_541\Debug\Test_01.a(isr_2.o)
 .text.isr_2_Stop
                0x00000000       0x14 .\CortexM3\ARM_GCC_541\Debug\Test_01.a(isr_2.o)
 .text.isr_2_SetPending
                0x00000000        0xc .\CortexM3\ARM_GCC_541\Debug\Test_01.a(isr_2.o)
 .text.isr_2_ClearPending
                0x00000000        0xc .\CortexM3\ARM_GCC_541\Debug\Test_01.a(isr_2.o)
 .text          0x00000000        0x0 .\CortexM3\ARM_GCC_541\Debug\Test_01.a(Color_Timer.o)
 .data          0x00000000        0x0 .\CortexM3\ARM_GCC_541\Debug\Test_01.a(Color_Timer.o)
 .text.Color_Timer_SoftwareCapture
                0x00000000        0xc .\CortexM3\ARM_GCC_541\Debug\Test_01.a(Color_Timer.o)
 .text.Color_Timer_ReadControlRegister
                0x00000000        0xc .\CortexM3\ARM_GCC_541\Debug\Test_01.a(Color_Timer.o)
 .text.Color_Timer_WriteControlRegister
                0x00000000        0xc .\CortexM3\ARM_GCC_541\Debug\Test_01.a(Color_Timer.o)
 .text.Color_Timer_ReadPeriod
                0x00000000        0xc .\CortexM3\ARM_GCC_541\Debug\Test_01.a(Color_Timer.o)
 .text.Color_Timer_ReadCounter
                0x00000000       0x14 .\CortexM3\ARM_GCC_541\Debug\Test_01.a(Color_Timer.o)
 .text          0x00000000        0x0 .\CortexM3\ARM_GCC_541\Debug\Test_01.a(Control_Reg_Color.o)
 .data          0x00000000        0x0 .\CortexM3\ARM_GCC_541\Debug\Test_01.a(Control_Reg_Color.o)
 .bss           0x00000000        0x0 .\CortexM3\ARM_GCC_541\Debug\Test_01.a(Control_Reg_Color.o)
 .text.Control_Reg_Color_Read
                0x00000000        0xc .\CortexM3\ARM_GCC_541\Debug\Test_01.a(Control_Reg_Color.o)
 .text          0x00000000        0x0 .\CortexM3\ARM_GCC_541\Debug\Test_01.a(Color_S0.o)
 .data          0x00000000        0x0 .\CortexM3\ARM_GCC_541\Debug\Test_01.a(Color_S0.o)
 .bss           0x00000000        0x0 .\CortexM3\ARM_GCC_541\Debug\Test_01.a(Color_S0.o)
 .text.Color_S0_SetDriveMode
                0x00000000       0x18 .\CortexM3\ARM_GCC_541\Debug\Test_01.a(Color_S0.o)
 .text.Color_S0_Read
                0x00000000       0x10 .\CortexM3\ARM_GCC_541\Debug\Test_01.a(Color_S0.o)
 .text.Color_S0_ReadDataReg
                0x00000000       0x10 .\CortexM3\ARM_GCC_541\Debug\Test_01.a(Color_S0.o)
 .text          0x00000000        0x0 .\CortexM3\ARM_GCC_541\Debug\Test_01.a(Color_S1.o)
 .data          0x00000000        0x0 .\CortexM3\ARM_GCC_541\Debug\Test_01.a(Color_S1.o)
 .bss           0x00000000        0x0 .\CortexM3\ARM_GCC_541\Debug\Test_01.a(Color_S1.o)
 .text.Color_S1_SetDriveMode
                0x00000000       0x18 .\CortexM3\ARM_GCC_541\Debug\Test_01.a(Color_S1.o)
 .text.Color_S1_Read
                0x00000000       0x10 .\CortexM3\ARM_GCC_541\Debug\Test_01.a(Color_S1.o)
 .text.Color_S1_ReadDataReg
                0x00000000       0x10 .\CortexM3\ARM_GCC_541\Debug\Test_01.a(Color_S1.o)
 .text          0x00000000        0x0 .\CortexM3\ARM_GCC_541\Debug\Test_01.a(Color_S2.o)
 .data          0x00000000        0x0 .\CortexM3\ARM_GCC_541\Debug\Test_01.a(Color_S2.o)
 .bss           0x00000000        0x0 .\CortexM3\ARM_GCC_541\Debug\Test_01.a(Color_S2.o)
 .text.Color_S2_SetDriveMode
                0x00000000       0x18 .\CortexM3\ARM_GCC_541\Debug\Test_01.a(Color_S2.o)
 .text.Color_S2_Read
                0x00000000       0x10 .\CortexM3\ARM_GCC_541\Debug\Test_01.a(Color_S2.o)
 .text.Color_S2_ReadDataReg
                0x00000000       0x10 .\CortexM3\ARM_GCC_541\Debug\Test_01.a(Color_S2.o)
 .text          0x00000000        0x0 .\CortexM3\ARM_GCC_541\Debug\Test_01.a(Color_S3.o)
 .data          0x00000000        0x0 .\CortexM3\ARM_GCC_541\Debug\Test_01.a(Color_S3.o)
 .bss           0x00000000        0x0 .\CortexM3\ARM_GCC_541\Debug\Test_01.a(Color_S3.o)
 .text.Color_S3_SetDriveMode
                0x00000000       0x18 .\CortexM3\ARM_GCC_541\Debug\Test_01.a(Color_S3.o)
 .text.Color_S3_Read
                0x00000000       0x10 .\CortexM3\ARM_GCC_541\Debug\Test_01.a(Color_S3.o)
 .text.Color_S3_ReadDataReg
                0x00000000       0x10 .\CortexM3\ARM_GCC_541\Debug\Test_01.a(Color_S3.o)
 .text          0x00000000        0x0 .\CortexM3\ARM_GCC_541\Debug\Test_01.a(Color_LED.o)
 .data          0x00000000        0x0 .\CortexM3\ARM_GCC_541\Debug\Test_01.a(Color_LED.o)
 .bss           0x00000000        0x0 .\CortexM3\ARM_GCC_541\Debug\Test_01.a(Color_LED.o)
 .text.Color_LED_SetDriveMode
                0x00000000       0x18 .\CortexM3\ARM_GCC_541\Debug\Test_01.a(Color_LED.o)
 .text.Color_LED_Read
                0x00000000       0x10 .\CortexM3\ARM_GCC_541\Debug\Test_01.a(Color_LED.o)
 .text.Color_LED_ReadDataReg
                0x00000000       0x10 .\CortexM3\ARM_GCC_541\Debug\Test_01.a(Color_LED.o)
 .text          0x00000000        0x0 .\CortexM3\ARM_GCC_541\Debug\Test_01.a(RED_LED.o)
 .data          0x00000000        0x0 .\CortexM3\ARM_GCC_541\Debug\Test_01.a(RED_LED.o)
 .bss           0x00000000        0x0 .\CortexM3\ARM_GCC_541\Debug\Test_01.a(RED_LED.o)
 .text.RED_LED_SetDriveMode
                0x00000000       0x18 .\CortexM3\ARM_GCC_541\Debug\Test_01.a(RED_LED.o)
 .text.RED_LED_Read
                0x00000000       0x10 .\CortexM3\ARM_GCC_541\Debug\Test_01.a(RED_LED.o)
 .text.RED_LED_ReadDataReg
                0x00000000       0x10 .\CortexM3\ARM_GCC_541\Debug\Test_01.a(RED_LED.o)
 .text          0x00000000        0x0 .\CortexM3\ARM_GCC_541\Debug\Test_01.a(BLUE_LED.o)
 .data          0x00000000        0x0 .\CortexM3\ARM_GCC_541\Debug\Test_01.a(BLUE_LED.o)
 .bss           0x00000000        0x0 .\CortexM3\ARM_GCC_541\Debug\Test_01.a(BLUE_LED.o)
 .text.BLUE_LED_SetDriveMode
                0x00000000       0x18 .\CortexM3\ARM_GCC_541\Debug\Test_01.a(BLUE_LED.o)
 .text.BLUE_LED_Read
                0x00000000       0x10 .\CortexM3\ARM_GCC_541\Debug\Test_01.a(BLUE_LED.o)
 .text.BLUE_LED_ReadDataReg
                0x00000000       0x10 .\CortexM3\ARM_GCC_541\Debug\Test_01.a(BLUE_LED.o)
 .text          0x00000000        0x0 .\CortexM3\ARM_GCC_541\Debug\Test_01.a(QuadDec_L_Cnt16.o)
 .data          0x00000000        0x0 .\CortexM3\ARM_GCC_541\Debug\Test_01.a(QuadDec_L_Cnt16.o)
 .text.QuadDec_L_Cnt16_Stop
                0x00000000       0x10 .\CortexM3\ARM_GCC_541\Debug\Test_01.a(QuadDec_L_Cnt16.o)
 .text.QuadDec_L_Cnt16_ReadControlRegister
                0x00000000        0xc .\CortexM3\ARM_GCC_541\Debug\Test_01.a(QuadDec_L_Cnt16.o)
 .text.QuadDec_L_Cnt16_WriteControlRegister
                0x00000000        0xc .\CortexM3\ARM_GCC_541\Debug\Test_01.a(QuadDec_L_Cnt16.o)
 .text.QuadDec_L_Cnt16_ReadPeriod
                0x00000000        0xc .\CortexM3\ARM_GCC_541\Debug\Test_01.a(QuadDec_L_Cnt16.o)
 .text.QuadDec_L_Cnt16_ReadCompare
                0x00000000        0xc .\CortexM3\ARM_GCC_541\Debug\Test_01.a(QuadDec_L_Cnt16.o)
 .text          0x00000000        0x0 .\CortexM3\ARM_GCC_541\Debug\Test_01.a(QuadDec_R_Cnt16.o)
 .data          0x00000000        0x0 .\CortexM3\ARM_GCC_541\Debug\Test_01.a(QuadDec_R_Cnt16.o)
 .text.QuadDec_R_Cnt16_Stop
                0x00000000       0x10 .\CortexM3\ARM_GCC_541\Debug\Test_01.a(QuadDec_R_Cnt16.o)
 .text.QuadDec_R_Cnt16_ReadControlRegister
                0x00000000        0xc .\CortexM3\ARM_GCC_541\Debug\Test_01.a(QuadDec_R_Cnt16.o)
 .text.QuadDec_R_Cnt16_WriteControlRegister
                0x00000000        0xc .\CortexM3\ARM_GCC_541\Debug\Test_01.a(QuadDec_R_Cnt16.o)
 .text.QuadDec_R_Cnt16_ReadPeriod
                0x00000000        0xc .\CortexM3\ARM_GCC_541\Debug\Test_01.a(QuadDec_R_Cnt16.o)
 .text.QuadDec_R_Cnt16_ReadCompare
                0x00000000        0xc .\CortexM3\ARM_GCC_541\Debug\Test_01.a(QuadDec_R_Cnt16.o)
 .text          0x00000000        0x0 .\CortexM3\ARM_GCC_541\Debug\Test_01.a(CyLib.o)
 .bss           0x00000000       0x1c .\CortexM3\ARM_GCC_541\Debug\Test_01.a(CyLib.o)
 .text.CyUSB_PowerOnCheck
                0x00000000       0x48 .\CortexM3\ARM_GCC_541\Debug\Test_01.a(CyLib.o)
 .text.CyBusClk_Internal_SetDivider
                0x00000000       0x48 .\CortexM3\ARM_GCC_541\Debug\Test_01.a(CyLib.o)
 .text.CyPLL_OUT_Stop
                0x00000000       0x10 .\CortexM3\ARM_GCC_541\Debug\Test_01.a(CyLib.o)
 .text.CyIMO_Stop
                0x00000000       0x1c .\CortexM3\ARM_GCC_541\Debug\Test_01.a(CyLib.o)
 .text.CyIMO_EnableDoubler
                0x00000000       0x10 .\CortexM3\ARM_GCC_541\Debug\Test_01.a(CyLib.o)
 .text.CyIMO_DisableDoubler
                0x00000000       0x10 .\CortexM3\ARM_GCC_541\Debug\Test_01.a(CyLib.o)
 .text.CyMasterClk_SetSource
                0x00000000       0x18 .\CortexM3\ARM_GCC_541\Debug\Test_01.a(CyLib.o)
 .text.CyMasterClk_SetDivider
                0x00000000        0xc .\CortexM3\ARM_GCC_541\Debug\Test_01.a(CyLib.o)
 .text.CyBusClk_SetDivider
                0x00000000       0x70 .\CortexM3\ARM_GCC_541\Debug\Test_01.a(CyLib.o)
 .text.CyUsbClk_SetSource
                0x00000000       0x18 .\CortexM3\ARM_GCC_541\Debug\Test_01.a(CyLib.o)
 .text.CyILO_Start1K
                0x00000000       0x10 .\CortexM3\ARM_GCC_541\Debug\Test_01.a(CyLib.o)
 .text.CyILO_Stop1K
                0x00000000       0x10 .\CortexM3\ARM_GCC_541\Debug\Test_01.a(CyLib.o)
 .text.CyILO_Start100K
                0x00000000       0x10 .\CortexM3\ARM_GCC_541\Debug\Test_01.a(CyLib.o)
 .text.CyILO_Stop100K
                0x00000000       0x10 .\CortexM3\ARM_GCC_541\Debug\Test_01.a(CyLib.o)
 .text.CyPLL_OUT_Start
                0x00000000       0x78 .\CortexM3\ARM_GCC_541\Debug\Test_01.a(CyLib.o)
 .text.CyIMO_Start
                0x00000000       0x60 .\CortexM3\ARM_GCC_541\Debug\Test_01.a(CyLib.o)
 .text.CyILO_Enable33K
                0x00000000       0x10 .\CortexM3\ARM_GCC_541\Debug\Test_01.a(CyLib.o)
 .text.CyILO_Disable33K
                0x00000000       0x10 .\CortexM3\ARM_GCC_541\Debug\Test_01.a(CyLib.o)
 .text.CyILO_SetSource
                0x00000000       0x18 .\CortexM3\ARM_GCC_541\Debug\Test_01.a(CyLib.o)
 .text.CyILO_SetPowerMode
                0x00000000       0x24 .\CortexM3\ARM_GCC_541\Debug\Test_01.a(CyLib.o)
 .text.CyXTAL_32KHZ_Stop
                0x00000000       0x30 .\CortexM3\ARM_GCC_541\Debug\Test_01.a(CyLib.o)
 .text.CyXTAL_32KHZ_ReadStatus
                0x00000000       0x10 .\CortexM3\ARM_GCC_541\Debug\Test_01.a(CyLib.o)
 .text.CyXTAL_Start
                0x00000000       0xac .\CortexM3\ARM_GCC_541\Debug\Test_01.a(CyLib.o)
 .text.CyXTAL_Stop
                0x00000000       0x10 .\CortexM3\ARM_GCC_541\Debug\Test_01.a(CyLib.o)
 .text.CyXTAL_EnableErrStatus
                0x00000000       0x10 .\CortexM3\ARM_GCC_541\Debug\Test_01.a(CyLib.o)
 .text.CyXTAL_DisableErrStatus
                0x00000000       0x10 .\CortexM3\ARM_GCC_541\Debug\Test_01.a(CyLib.o)
 .text.CyXTAL_ReadStatus
                0x00000000       0x18 .\CortexM3\ARM_GCC_541\Debug\Test_01.a(CyLib.o)
 .text.CyXTAL_EnableFaultRecovery
                0x00000000       0x10 .\CortexM3\ARM_GCC_541\Debug\Test_01.a(CyLib.o)
 .text.CyXTAL_DisableFaultRecovery
                0x00000000       0x10 .\CortexM3\ARM_GCC_541\Debug\Test_01.a(CyLib.o)
 .text.CyXTAL_SetStartup
                0x00000000       0x18 .\CortexM3\ARM_GCC_541\Debug\Test_01.a(CyLib.o)
 .text.CyXTAL_SetFbVoltage
                0x00000000       0x18 .\CortexM3\ARM_GCC_541\Debug\Test_01.a(CyLib.o)
 .text.CyXTAL_SetWdVoltage
                0x00000000       0x18 .\CortexM3\ARM_GCC_541\Debug\Test_01.a(CyLib.o)
 .text.CyPLL_OUT_SetPQ
                0x00000000       0x60 .\CortexM3\ARM_GCC_541\Debug\Test_01.a(CyLib.o)
 .text.CyPLL_OUT_SetSource
                0x00000000       0x34 .\CortexM3\ARM_GCC_541\Debug\Test_01.a(CyLib.o)
 .text.CyIMO_SetTrimValue
                0x00000000       0xcc .\CortexM3\ARM_GCC_541\Debug\Test_01.a(CyLib.o)
 .text.CyIMO_SetFreq
                0x00000000       0xf4 .\CortexM3\ARM_GCC_541\Debug\Test_01.a(CyLib.o)
 .text.CyIMO_SetSource
                0x00000000       0x58 .\CortexM3\ARM_GCC_541\Debug\Test_01.a(CyLib.o)
 .text.CySoftwareReset
                0x00000000       0x10 .\CortexM3\ARM_GCC_541\Debug\Test_01.a(CyLib.o)
 .text.CyXTAL_32KHZ_SetPowerMode
                0x00000000       0x84 .\CortexM3\ARM_GCC_541\Debug\Test_01.a(CyLib.o)
 .text.CyXTAL_32KHZ_Start
                0x00000000       0x74 .\CortexM3\ARM_GCC_541\Debug\Test_01.a(CyLib.o)
 .text.CyDelayFreq
                0x00000000       0x4c .\CortexM3\ARM_GCC_541\Debug\Test_01.a(CyLib.o)
 .text.CyWdtStart
                0x00000000       0x40 .\CortexM3\ARM_GCC_541\Debug\Test_01.a(CyLib.o)
 .text.CyWdtClear
                0x00000000        0xc .\CortexM3\ARM_GCC_541\Debug\Test_01.a(CyLib.o)
 .text.CyVdStickyStatus
                0x00000000       0x2c .\CortexM3\ARM_GCC_541\Debug\Test_01.a(CyLib.o)
 .text.CyVdLvDigitEnable
                0x00000000       0x84 .\CortexM3\ARM_GCC_541\Debug\Test_01.a(CyLib.o)
 .text.CyVdLvAnalogEnable
                0x00000000       0x80 .\CortexM3\ARM_GCC_541\Debug\Test_01.a(CyLib.o)
 .text.CyVdLvDigitDisable
                0x00000000       0x30 .\CortexM3\ARM_GCC_541\Debug\Test_01.a(CyLib.o)
 .text.CyVdLvAnalogDisable
                0x00000000       0x28 .\CortexM3\ARM_GCC_541\Debug\Test_01.a(CyLib.o)
 .text.CyVdHvAnalogEnable
                0x00000000       0x54 .\CortexM3\ARM_GCC_541\Debug\Test_01.a(CyLib.o)
 .text.CyVdHvAnalogDisable
                0x00000000       0x20 .\CortexM3\ARM_GCC_541\Debug\Test_01.a(CyLib.o)
 .text.CyVdRealTimeStatus
                0x00000000       0x1c .\CortexM3\ARM_GCC_541\Debug\Test_01.a(CyLib.o)
 .text.CyDisableInts
                0x00000000       0x1c .\CortexM3\ARM_GCC_541\Debug\Test_01.a(CyLib.o)
 .text.CyEnableInts
                0x00000000       0x18 .\CortexM3\ARM_GCC_541\Debug\Test_01.a(CyLib.o)
 .text.CyFlushCache
                0x00000000       0x44 .\CortexM3\ARM_GCC_541\Debug\Test_01.a(CyLib.o)
 .text.CyIntSetSysVector
                0x00000000       0x28 .\CortexM3\ARM_GCC_541\Debug\Test_01.a(CyLib.o)
 .text.CyIntGetSysVector
                0x00000000       0x20 .\CortexM3\ARM_GCC_541\Debug\Test_01.a(CyLib.o)
 .text.CyIntGetVector
                0x00000000       0x24 .\CortexM3\ARM_GCC_541\Debug\Test_01.a(CyLib.o)
 .text.CyIntGetPriority
                0x00000000       0x20 .\CortexM3\ARM_GCC_541\Debug\Test_01.a(CyLib.o)
 .text.CyIntGetState
                0x00000000       0x24 .\CortexM3\ARM_GCC_541\Debug\Test_01.a(CyLib.o)
 .text.CySysTickStop
                0x00000000       0x10 .\CortexM3\ARM_GCC_541\Debug\Test_01.a(CyLib.o)
 .text.CySysTickEnableInterrupt
                0x00000000       0x10 .\CortexM3\ARM_GCC_541\Debug\Test_01.a(CyLib.o)
 .text.CySysTickEnable
                0x00000000       0x18 .\CortexM3\ARM_GCC_541\Debug\Test_01.a(CyLib.o)
 .text.CySysTickDisableInterrupt
                0x00000000       0x10 .\CortexM3\ARM_GCC_541\Debug\Test_01.a(CyLib.o)
 .text.CySysTickSetReload
                0x00000000       0x10 .\CortexM3\ARM_GCC_541\Debug\Test_01.a(CyLib.o)
 .text.CySysTickGetReload
                0x00000000       0x10 .\CortexM3\ARM_GCC_541\Debug\Test_01.a(CyLib.o)
 .text.CySysTickGetValue
                0x00000000       0x10 .\CortexM3\ARM_GCC_541\Debug\Test_01.a(CyLib.o)
 .text.CySysTickSetClockSource
                0x00000000       0x20 .\CortexM3\ARM_GCC_541\Debug\Test_01.a(CyLib.o)
 .text.CySysTickGetClockSource
                0x00000000       0x10 .\CortexM3\ARM_GCC_541\Debug\Test_01.a(CyLib.o)
 .text.CySysTickGetCountFlag
                0x00000000       0x10 .\CortexM3\ARM_GCC_541\Debug\Test_01.a(CyLib.o)
 .text.CySysTickServiceCallbacks
                0x00000000       0x28 .\CortexM3\ARM_GCC_541\Debug\Test_01.a(CyLib.o)
 .text.CySysTickClear
                0x00000000        0xc .\CortexM3\ARM_GCC_541\Debug\Test_01.a(CyLib.o)
 .text.CySysTickInit
                0x00000000       0x58 .\CortexM3\ARM_GCC_541\Debug\Test_01.a(CyLib.o)
 .text.CySysTickStart
                0x00000000       0x1c .\CortexM3\ARM_GCC_541\Debug\Test_01.a(CyLib.o)
 .text.CySysTickSetCallback
                0x00000000       0x10 .\CortexM3\ARM_GCC_541\Debug\Test_01.a(CyLib.o)
 .text.CySysTickGetCallback
                0x00000000       0x10 .\CortexM3\ARM_GCC_541\Debug\Test_01.a(CyLib.o)
 .text.CyGetUniqueId
                0x00000000       0x70 .\CortexM3\ARM_GCC_541\Debug\Test_01.a(CyLib.o)
 .text          0x00000000        0x0 .\CortexM3\ARM_GCC_541\Debug\Test_01.a(cyPm.o)
 .data          0x00000000        0x0 .\CortexM3\ARM_GCC_541\Debug\Test_01.a(cyPm.o)
 .bss           0x00000000       0x43 .\CortexM3\ARM_GCC_541\Debug\Test_01.a(cyPm.o)
 .text.CyPmHibSlpSaveSet
                0x00000000      0x1dc .\CortexM3\ARM_GCC_541\Debug\Test_01.a(cyPm.o)
 .text.CyPmHibSlpRestore
                0x00000000       0xd8 .\CortexM3\ARM_GCC_541\Debug\Test_01.a(cyPm.o)
 .text.CyPmHviLviSaveDisable
                0x00000000       0xa0 .\CortexM3\ARM_GCC_541\Debug\Test_01.a(cyPm.o)
 .text.CyPmHibSaveSet
                0x00000000       0x98 .\CortexM3\ARM_GCC_541\Debug\Test_01.a(cyPm.o)
 .text.CyPmHviLviRestore
                0x00000000       0x48 .\CortexM3\ARM_GCC_541\Debug\Test_01.a(cyPm.o)
 .text.CyPmHibRestore
                0x00000000       0x60 .\CortexM3\ARM_GCC_541\Debug\Test_01.a(cyPm.o)
 .text.CyPmSaveClocks
                0x00000000      0x218 .\CortexM3\ARM_GCC_541\Debug\Test_01.a(cyPm.o)
 .text.CyPmRestoreClocks
                0x00000000      0x24c .\CortexM3\ARM_GCC_541\Debug\Test_01.a(cyPm.o)
 .text.CyPmAltAct
                0x00000000       0x6c .\CortexM3\ARM_GCC_541\Debug\Test_01.a(cyPm.o)
 .text.CyPmSleep
                0x00000000       0xf4 .\CortexM3\ARM_GCC_541\Debug\Test_01.a(cyPm.o)
 .text.CyPmHibernateEx
                0x00000000       0xf4 .\CortexM3\ARM_GCC_541\Debug\Test_01.a(cyPm.o)
 .text.CyPmHibernate
                0x00000000        0xc .\CortexM3\ARM_GCC_541\Debug\Test_01.a(cyPm.o)
 .text.CyPmReadStatus
                0x00000000       0x30 .\CortexM3\ARM_GCC_541\Debug\Test_01.a(cyPm.o)
 .text.CyPmCtwSetInterval
                0x00000000       0x5c .\CortexM3\ARM_GCC_541\Debug\Test_01.a(cyPm.o)
 .text.CyPmOppsSet
                0x00000000       0x2c .\CortexM3\ARM_GCC_541\Debug\Test_01.a(cyPm.o)
 .text.CyPmFtwSetInterval
                0x00000000       0x5c .\CortexM3\ARM_GCC_541\Debug\Test_01.a(cyPm.o)
 .rodata        0x00000000        0xf .\CortexM3\ARM_GCC_541\Debug\Test_01.a(cyPm.o)
 .text          0x00000000        0x0 .\CortexM3\ARM_GCC_541\Debug\Test_01.a(UART.o)
 .data          0x00000000        0x0 .\CortexM3\ARM_GCC_541\Debug\Test_01.a(UART.o)
 .text.UART_Stop
                0x00000000       0x3c .\CortexM3\ARM_GCC_541\Debug\Test_01.a(UART.o)
 .text.UART_ReadControlRegister
                0x00000000        0x4 .\CortexM3\ARM_GCC_541\Debug\Test_01.a(UART.o)
 .text.UART_WriteControlRegister
                0x00000000        0x4 .\CortexM3\ARM_GCC_541\Debug\Test_01.a(UART.o)
 .text.UART_SetRxInterruptMode
                0x00000000        0xc .\CortexM3\ARM_GCC_541\Debug\Test_01.a(UART.o)
 .text.UART_ReadRxData
                0x00000000        0xc .\CortexM3\ARM_GCC_541\Debug\Test_01.a(UART.o)
 .text.UART_ReadRxStatus
                0x00000000       0x10 .\CortexM3\ARM_GCC_541\Debug\Test_01.a(UART.o)
 .text.UART_GetChar
                0x00000000       0x2c .\CortexM3\ARM_GCC_541\Debug\Test_01.a(UART.o)
 .text.UART_GetByte
                0x00000000       0x14 .\CortexM3\ARM_GCC_541\Debug\Test_01.a(UART.o)
 .text.UART_GetRxBufferSize
                0x00000000       0x18 .\CortexM3\ARM_GCC_541\Debug\Test_01.a(UART.o)
 .text.UART_ClearRxBuffer
                0x00000000       0x24 .\CortexM3\ARM_GCC_541\Debug\Test_01.a(UART.o)
 .text.UART_SetRxAddressMode
                0x00000000        0x4 .\CortexM3\ARM_GCC_541\Debug\Test_01.a(UART.o)
 .text.UART_SetRxAddress1
                0x00000000        0xc .\CortexM3\ARM_GCC_541\Debug\Test_01.a(UART.o)
 .text.UART_SetRxAddress2
                0x00000000        0xc .\CortexM3\ARM_GCC_541\Debug\Test_01.a(UART.o)
 .text.UART_SetTxInterruptMode
                0x00000000        0xc .\CortexM3\ARM_GCC_541\Debug\Test_01.a(UART.o)
 .text.UART_WriteTxData
                0x00000000       0x14 .\CortexM3\ARM_GCC_541\Debug\Test_01.a(UART.o)
 .text.UART_ReadTxStatus
                0x00000000        0xc .\CortexM3\ARM_GCC_541\Debug\Test_01.a(UART.o)
 .text.UART_PutChar
                0x00000000       0x18 .\CortexM3\ARM_GCC_541\Debug\Test_01.a(UART.o)
 .text.UART_PutString
                0x00000000       0x24 .\CortexM3\ARM_GCC_541\Debug\Test_01.a(UART.o)
 .text.UART_PutArray
                0x00000000       0x28 .\CortexM3\ARM_GCC_541\Debug\Test_01.a(UART.o)
 .text.UART_PutCRLF
                0x00000000       0x20 .\CortexM3\ARM_GCC_541\Debug\Test_01.a(UART.o)
 .text.UART_GetTxBufferSize
                0x00000000       0x24 .\CortexM3\ARM_GCC_541\Debug\Test_01.a(UART.o)
 .text.UART_ClearTxBuffer
                0x00000000       0x24 .\CortexM3\ARM_GCC_541\Debug\Test_01.a(UART.o)
 .text.UART_SendBreak
                0x00000000       0x58 .\CortexM3\ARM_GCC_541\Debug\Test_01.a(UART.o)
 .text.UART_SetTxAddressMode
                0x00000000        0x4 .\CortexM3\ARM_GCC_541\Debug\Test_01.a(UART.o)
 .text          0x00000000        0x0 .\CortexM3\ARM_GCC_541\Debug\Test_01.a(Color_Counter.o)
 .data          0x00000000        0x0 .\CortexM3\ARM_GCC_541\Debug\Test_01.a(Color_Counter.o)
 .text.Color_Counter_ReadControlRegister
                0x00000000        0xc .\CortexM3\ARM_GCC_541\Debug\Test_01.a(Color_Counter.o)
 .text.Color_Counter_WriteControlRegister
                0x00000000        0xc .\CortexM3\ARM_GCC_541\Debug\Test_01.a(Color_Counter.o)
 .text.Color_Counter_ReadPeriod
                0x00000000        0xc .\CortexM3\ARM_GCC_541\Debug\Test_01.a(Color_Counter.o)
 .text.Color_Counter_ReadCompare
                0x00000000        0xc .\CortexM3\ARM_GCC_541\Debug\Test_01.a(Color_Counter.o)
 .text          0x00000000        0x0 .\CortexM3\ARM_GCC_541\Debug\Test_01.a(UART_IntClock.o)
 .data          0x00000000        0x0 .\CortexM3\ARM_GCC_541\Debug\Test_01.a(UART_IntClock.o)
 .bss           0x00000000        0x0 .\CortexM3\ARM_GCC_541\Debug\Test_01.a(UART_IntClock.o)
 .text.UART_IntClock_Stop
                0x00000000       0x1c .\CortexM3\ARM_GCC_541\Debug\Test_01.a(UART_IntClock.o)
 .text.UART_IntClock_StopBlock
                0x00000000       0x6c .\CortexM3\ARM_GCC_541\Debug\Test_01.a(UART_IntClock.o)
 .text.UART_IntClock_StandbyPower
                0x00000000       0x20 .\CortexM3\ARM_GCC_541\Debug\Test_01.a(UART_IntClock.o)
 .text.UART_IntClock_GetDividerRegister
                0x00000000        0xc .\CortexM3\ARM_GCC_541\Debug\Test_01.a(UART_IntClock.o)
 .text.UART_IntClock_SetModeRegister
                0x00000000       0x14 .\CortexM3\ARM_GCC_541\Debug\Test_01.a(UART_IntClock.o)
 .text.UART_IntClock_ClearModeRegister
                0x00000000       0x18 .\CortexM3\ARM_GCC_541\Debug\Test_01.a(UART_IntClock.o)
 .text.UART_IntClock_GetModeRegister
                0x00000000       0x10 .\CortexM3\ARM_GCC_541\Debug\Test_01.a(UART_IntClock.o)
 .text.UART_IntClock_GetSourceRegister
                0x00000000       0x10 .\CortexM3\ARM_GCC_541\Debug\Test_01.a(UART_IntClock.o)
 .text.UART_IntClock_SetDividerRegister
                0x00000000       0xdc .\CortexM3\ARM_GCC_541\Debug\Test_01.a(UART_IntClock.o)
 .text.UART_IntClock_SetSourceRegister
                0x00000000       0x5c .\CortexM3\ARM_GCC_541\Debug\Test_01.a(UART_IntClock.o)
 .text          0x00000000        0x0 .\CortexM3\ARM_GCC_541\Debug\Test_01.a(S1_Timer.o)
 .data          0x00000000        0x0 .\CortexM3\ARM_GCC_541\Debug\Test_01.a(S1_Timer.o)
 .text.S1_Timer_Stop
                0x00000000       0x10 .\CortexM3\ARM_GCC_541\Debug\Test_01.a(S1_Timer.o)
 .text.S1_Timer_SoftwareCapture
                0x00000000        0xc .\CortexM3\ARM_GCC_541\Debug\Test_01.a(S1_Timer.o)
 .text.S1_Timer_ReadControlRegister
                0x00000000        0xc .\CortexM3\ARM_GCC_541\Debug\Test_01.a(S1_Timer.o)
 .text.S1_Timer_WriteControlRegister
                0x00000000        0xc .\CortexM3\ARM_GCC_541\Debug\Test_01.a(S1_Timer.o)
 .text.S1_Timer_ReadPeriod
                0x00000000        0xc .\CortexM3\ARM_GCC_541\Debug\Test_01.a(S1_Timer.o)
 .text          0x00000000        0x0 .\CortexM3\ARM_GCC_541\Debug\Test_01.a(isr_3.o)
 .data          0x00000000        0x0 .\CortexM3\ARM_GCC_541\Debug\Test_01.a(isr_3.o)
 .bss           0x00000000        0x0 .\CortexM3\ARM_GCC_541\Debug\Test_01.a(isr_3.o)
 .text.isr_3_Interrupt
                0x00000000        0x4 .\CortexM3\ARM_GCC_541\Debug\Test_01.a(isr_3.o)
 .text.isr_3_GetVector
                0x00000000        0xc .\CortexM3\ARM_GCC_541\Debug\Test_01.a(isr_3.o)
 .text.isr_3_GetPriority
                0x00000000        0xc .\CortexM3\ARM_GCC_541\Debug\Test_01.a(isr_3.o)
 .text.isr_3_GetState
                0x00000000       0x18 .\CortexM3\ARM_GCC_541\Debug\Test_01.a(isr_3.o)
 .text.isr_3_Start
                0x00000000       0x1c .\CortexM3\ARM_GCC_541\Debug\Test_01.a(isr_3.o)
 .text.isr_3_Stop
                0x00000000       0x14 .\CortexM3\ARM_GCC_541\Debug\Test_01.a(isr_3.o)
 .text.isr_3_SetPending
                0x00000000        0xc .\CortexM3\ARM_GCC_541\Debug\Test_01.a(isr_3.o)
 .text.isr_3_ClearPending
                0x00000000        0xc .\CortexM3\ARM_GCC_541\Debug\Test_01.a(isr_3.o)
 .text          0x00000000        0x0 .\CortexM3\ARM_GCC_541\Debug\Test_01.a(S2_Timer.o)
 .data          0x00000000        0x0 .\CortexM3\ARM_GCC_541\Debug\Test_01.a(S2_Timer.o)
 .text.S2_Timer_Stop
                0x00000000       0x10 .\CortexM3\ARM_GCC_541\Debug\Test_01.a(S2_Timer.o)
 .text.S2_Timer_SoftwareCapture
                0x00000000        0xc .\CortexM3\ARM_GCC_541\Debug\Test_01.a(S2_Timer.o)
 .text.S2_Timer_ReadControlRegister
                0x00000000        0xc .\CortexM3\ARM_GCC_541\Debug\Test_01.a(S2_Timer.o)
 .text.S2_Timer_WriteControlRegister
                0x00000000        0xc .\CortexM3\ARM_GCC_541\Debug\Test_01.a(S2_Timer.o)
 .text.S2_Timer_ReadPeriod
                0x00000000        0xc .\CortexM3\ARM_GCC_541\Debug\Test_01.a(S2_Timer.o)
 .text          0x00000000        0x0 .\CortexM3\ARM_GCC_541\Debug\Test_01.a(S2_Echo.o)
 .data          0x00000000        0x0 .\CortexM3\ARM_GCC_541\Debug\Test_01.a(S2_Echo.o)
 .bss           0x00000000        0x0 .\CortexM3\ARM_GCC_541\Debug\Test_01.a(S2_Echo.o)
 .text.S2_Echo_Write
                0x00000000       0x18 .\CortexM3\ARM_GCC_541\Debug\Test_01.a(S2_Echo.o)
 .text.S2_Echo_SetDriveMode
                0x00000000       0x18 .\CortexM3\ARM_GCC_541\Debug\Test_01.a(S2_Echo.o)
 .text.S2_Echo_ReadDataReg
                0x00000000       0x10 .\CortexM3\ARM_GCC_541\Debug\Test_01.a(S2_Echo.o)
 .text          0x00000000        0x0 .\CortexM3\ARM_GCC_541\Debug\Test_01.a(S2_Trigger.o)
 .data          0x00000000        0x0 .\CortexM3\ARM_GCC_541\Debug\Test_01.a(S2_Trigger.o)
 .bss           0x00000000        0x0 .\CortexM3\ARM_GCC_541\Debug\Test_01.a(S2_Trigger.o)
 .text.S2_Trigger_SetDriveMode
                0x00000000       0x18 .\CortexM3\ARM_GCC_541\Debug\Test_01.a(S2_Trigger.o)
 .text.S2_Trigger_Read
                0x00000000       0x10 .\CortexM3\ARM_GCC_541\Debug\Test_01.a(S2_Trigger.o)
 .text.S2_Trigger_ReadDataReg
                0x00000000       0x10 .\CortexM3\ARM_GCC_541\Debug\Test_01.a(S2_Trigger.o)
 .text          0x00000000        0x0 .\CortexM3\ARM_GCC_541\Debug\Test_01.a(isr_4.o)
 .data          0x00000000        0x0 .\CortexM3\ARM_GCC_541\Debug\Test_01.a(isr_4.o)
 .bss           0x00000000        0x0 .\CortexM3\ARM_GCC_541\Debug\Test_01.a(isr_4.o)
 .text.isr_4_Interrupt
                0x00000000        0x4 .\CortexM3\ARM_GCC_541\Debug\Test_01.a(isr_4.o)
 .text.isr_4_GetVector
                0x00000000        0xc .\CortexM3\ARM_GCC_541\Debug\Test_01.a(isr_4.o)
 .text.isr_4_GetPriority
                0x00000000        0xc .\CortexM3\ARM_GCC_541\Debug\Test_01.a(isr_4.o)
 .text.isr_4_GetState
                0x00000000       0x18 .\CortexM3\ARM_GCC_541\Debug\Test_01.a(isr_4.o)
 .text.isr_4_Start
                0x00000000       0x1c .\CortexM3\ARM_GCC_541\Debug\Test_01.a(isr_4.o)
 .text.isr_4_Stop
                0x00000000       0x14 .\CortexM3\ARM_GCC_541\Debug\Test_01.a(isr_4.o)
 .text.isr_4_SetPending
                0x00000000        0xc .\CortexM3\ARM_GCC_541\Debug\Test_01.a(isr_4.o)
 .text.isr_4_ClearPending
                0x00000000        0xc .\CortexM3\ARM_GCC_541\Debug\Test_01.a(isr_4.o)
 .text          0x00000000        0x0 .\CortexM3\ARM_GCC_541\Debug\Test_01.a(S3_Timer.o)
 .data          0x00000000        0x0 .\CortexM3\ARM_GCC_541\Debug\Test_01.a(S3_Timer.o)
 .text.S3_Timer_Stop
                0x00000000       0x10 .\CortexM3\ARM_GCC_541\Debug\Test_01.a(S3_Timer.o)
 .text.S3_Timer_SoftwareCapture
                0x00000000        0xc .\CortexM3\ARM_GCC_541\Debug\Test_01.a(S3_Timer.o)
 .text.S3_Timer_ReadControlRegister
                0x00000000        0xc .\CortexM3\ARM_GCC_541\Debug\Test_01.a(S3_Timer.o)
 .text.S3_Timer_WriteControlRegister
                0x00000000        0xc .\CortexM3\ARM_GCC_541\Debug\Test_01.a(S3_Timer.o)
 .text.S3_Timer_ReadPeriod
                0x00000000        0xc .\CortexM3\ARM_GCC_541\Debug\Test_01.a(S3_Timer.o)
 .text          0x00000000        0x0 .\CortexM3\ARM_GCC_541\Debug\Test_01.a(S3_Trigger.o)
 .data          0x00000000        0x0 .\CortexM3\ARM_GCC_541\Debug\Test_01.a(S3_Trigger.o)
 .bss           0x00000000        0x0 .\CortexM3\ARM_GCC_541\Debug\Test_01.a(S3_Trigger.o)
 .text.S3_Trigger_SetDriveMode
                0x00000000       0x18 .\CortexM3\ARM_GCC_541\Debug\Test_01.a(S3_Trigger.o)
 .text.S3_Trigger_Read
                0x00000000       0x10 .\CortexM3\ARM_GCC_541\Debug\Test_01.a(S3_Trigger.o)
 .text.S3_Trigger_ReadDataReg
                0x00000000       0x10 .\CortexM3\ARM_GCC_541\Debug\Test_01.a(S3_Trigger.o)
 .text          0x00000000        0x0 .\CortexM3\ARM_GCC_541\Debug\Test_01.a(S3_Echo.o)
 .data          0x00000000        0x0 .\CortexM3\ARM_GCC_541\Debug\Test_01.a(S3_Echo.o)
 .bss           0x00000000        0x0 .\CortexM3\ARM_GCC_541\Debug\Test_01.a(S3_Echo.o)
 .text.S3_Echo_Write
                0x00000000       0x18 .\CortexM3\ARM_GCC_541\Debug\Test_01.a(S3_Echo.o)
 .text.S3_Echo_SetDriveMode
                0x00000000       0x18 .\CortexM3\ARM_GCC_541\Debug\Test_01.a(S3_Echo.o)
 .text.S3_Echo_ReadDataReg
                0x00000000       0x10 .\CortexM3\ARM_GCC_541\Debug\Test_01.a(S3_Echo.o)
 .text          0x00000000        0x0 .\CortexM3\ARM_GCC_541\Debug\Test_01.a(IR_Out.o)
 .data          0x00000000        0x0 .\CortexM3\ARM_GCC_541\Debug\Test_01.a(IR_Out.o)
 .bss           0x00000000        0x0 .\CortexM3\ARM_GCC_541\Debug\Test_01.a(IR_Out.o)
 .text.IR_Out_Write
                0x00000000       0x18 .\CortexM3\ARM_GCC_541\Debug\Test_01.a(IR_Out.o)
 .text.IR_Out_SetDriveMode
                0x00000000       0x18 .\CortexM3\ARM_GCC_541\Debug\Test_01.a(IR_Out.o)
 .text.IR_Out_ReadDataReg
                0x00000000       0x10 .\CortexM3\ARM_GCC_541\Debug\Test_01.a(IR_Out.o)
 .text.IR_Out_SetInterruptMode
                0x00000000       0x14 .\CortexM3\ARM_GCC_541\Debug\Test_01.a(IR_Out.o)
 .text.IR_Out_ClearInterrupt
                0x00000000       0x10 .\CortexM3\ARM_GCC_541\Debug\Test_01.a(IR_Out.o)
 .text          0x00000000        0x0 .\CortexM3\ARM_GCC_541\Debug\Test_01.a(isr_6.o)
 .data          0x00000000        0x0 .\CortexM3\ARM_GCC_541\Debug\Test_01.a(isr_6.o)
 .bss           0x00000000        0x0 .\CortexM3\ARM_GCC_541\Debug\Test_01.a(isr_6.o)
 .text.isr_6_Interrupt
                0x00000000        0x4 .\CortexM3\ARM_GCC_541\Debug\Test_01.a(isr_6.o)
 .text.isr_6_GetVector
                0x00000000        0xc .\CortexM3\ARM_GCC_541\Debug\Test_01.a(isr_6.o)
 .text.isr_6_GetPriority
                0x00000000        0xc .\CortexM3\ARM_GCC_541\Debug\Test_01.a(isr_6.o)
 .text.isr_6_GetState
                0x00000000       0x18 .\CortexM3\ARM_GCC_541\Debug\Test_01.a(isr_6.o)
 .text.isr_6_Start
                0x00000000       0x1c .\CortexM3\ARM_GCC_541\Debug\Test_01.a(isr_6.o)
 .text.isr_6_Stop
                0x00000000       0x14 .\CortexM3\ARM_GCC_541\Debug\Test_01.a(isr_6.o)
 .text.isr_6_SetPending
                0x00000000        0xc .\CortexM3\ARM_GCC_541\Debug\Test_01.a(isr_6.o)
 .text          0x00000000        0x0 .\CortexM3\ARM_GCC_541\Debug\Test_01.a(S4_Timer.o)
 .data          0x00000000        0x0 .\CortexM3\ARM_GCC_541\Debug\Test_01.a(S4_Timer.o)
 .text.S4_Timer_Stop
                0x00000000       0x10 .\CortexM3\ARM_GCC_541\Debug\Test_01.a(S4_Timer.o)
 .text.S4_Timer_SoftwareCapture
                0x00000000        0xc .\CortexM3\ARM_GCC_541\Debug\Test_01.a(S4_Timer.o)
 .text.S4_Timer_ReadControlRegister
                0x00000000        0xc .\CortexM3\ARM_GCC_541\Debug\Test_01.a(S4_Timer.o)
 .text.S4_Timer_WriteControlRegister
                0x00000000        0xc .\CortexM3\ARM_GCC_541\Debug\Test_01.a(S4_Timer.o)
 .text.S4_Timer_ReadPeriod
                0x00000000        0xc .\CortexM3\ARM_GCC_541\Debug\Test_01.a(S4_Timer.o)
 .text          0x00000000        0x0 .\CortexM3\ARM_GCC_541\Debug\Test_01.a(S4_Echo.o)
 .data          0x00000000        0x0 .\CortexM3\ARM_GCC_541\Debug\Test_01.a(S4_Echo.o)
 .bss           0x00000000        0x0 .\CortexM3\ARM_GCC_541\Debug\Test_01.a(S4_Echo.o)
 .text.S4_Echo_Write
                0x00000000       0x18 .\CortexM3\ARM_GCC_541\Debug\Test_01.a(S4_Echo.o)
 .text.S4_Echo_SetDriveMode
                0x00000000       0x18 .\CortexM3\ARM_GCC_541\Debug\Test_01.a(S4_Echo.o)
 .text.S4_Echo_ReadDataReg
                0x00000000       0x10 .\CortexM3\ARM_GCC_541\Debug\Test_01.a(S4_Echo.o)
 .text          0x00000000        0x0 .\CortexM3\ARM_GCC_541\Debug\Test_01.a(S4_Trigger.o)
 .data          0x00000000        0x0 .\CortexM3\ARM_GCC_541\Debug\Test_01.a(S4_Trigger.o)
 .bss           0x00000000        0x0 .\CortexM3\ARM_GCC_541\Debug\Test_01.a(S4_Trigger.o)
 .text.S4_Trigger_SetDriveMode
                0x00000000       0x18 .\CortexM3\ARM_GCC_541\Debug\Test_01.a(S4_Trigger.o)
 .text.S4_Trigger_Read
                0x00000000       0x10 .\CortexM3\ARM_GCC_541\Debug\Test_01.a(S4_Trigger.o)
 .text.S4_Trigger_ReadDataReg
                0x00000000       0x10 .\CortexM3\ARM_GCC_541\Debug\Test_01.a(S4_Trigger.o)
 .text          0x00000000        0x0 .\CortexM3\ARM_GCC_541\Debug\Test_01.a(PWM_Motor.o)
 .data          0x00000000        0x0 .\CortexM3\ARM_GCC_541\Debug\Test_01.a(PWM_Motor.o)
 .text.PWM_Motor_Stop
                0x00000000       0x10 .\CortexM3\ARM_GCC_541\Debug\Test_01.a(PWM_Motor.o)
 .text.PWM_Motor_ReadCounter
                0x00000000       0x14 .\CortexM3\ARM_GCC_541\Debug\Test_01.a(PWM_Motor.o)
 .text.PWM_Motor_ReadControlRegister
                0x00000000        0xc .\CortexM3\ARM_GCC_541\Debug\Test_01.a(PWM_Motor.o)
 .text.PWM_Motor_WriteControlRegister
                0x00000000        0xc .\CortexM3\ARM_GCC_541\Debug\Test_01.a(PWM_Motor.o)
 .text.PWM_Motor_ReadCompare1
                0x00000000        0xc .\CortexM3\ARM_GCC_541\Debug\Test_01.a(PWM_Motor.o)
 .text.PWM_Motor_ReadCompare2
                0x00000000        0xc .\CortexM3\ARM_GCC_541\Debug\Test_01.a(PWM_Motor.o)
 .text.PWM_Motor_ReadPeriod
                0x00000000        0xc .\CortexM3\ARM_GCC_541\Debug\Test_01.a(PWM_Motor.o)
 .text          0x00000000        0x0 .\CortexM3\ARM_GCC_541\Debug\Test_01.a(Flicker_Servo.o)
 .data          0x00000000        0x0 .\CortexM3\ARM_GCC_541\Debug\Test_01.a(Flicker_Servo.o)
 .text.Flicker_Servo_Stop
                0x00000000       0x28 .\CortexM3\ARM_GCC_541\Debug\Test_01.a(Flicker_Servo.o)
 .text.Flicker_Servo_ReadStatusRegister
                0x00000000        0xc .\CortexM3\ARM_GCC_541\Debug\Test_01.a(Flicker_Servo.o)
 .text.Flicker_Servo_ReadControlRegister
                0x00000000        0xc .\CortexM3\ARM_GCC_541\Debug\Test_01.a(Flicker_Servo.o)
 .text.Flicker_Servo_WriteControlRegister
                0x00000000        0xc .\CortexM3\ARM_GCC_541\Debug\Test_01.a(Flicker_Servo.o)
 .text.Flicker_Servo_ReadCompare
                0x00000000        0xc .\CortexM3\ARM_GCC_541\Debug\Test_01.a(Flicker_Servo.o)
 .text.Flicker_Servo_ReadPeriod
                0x00000000        0xc .\CortexM3\ARM_GCC_541\Debug\Test_01.a(Flicker_Servo.o)
 .text          0x00000000        0x0 .\CortexM3\ARM_GCC_541\Debug\Test_01.a(RobotArm_Servo.o)
 .data          0x00000000        0x0 .\CortexM3\ARM_GCC_541\Debug\Test_01.a(RobotArm_Servo.o)
 .text.RobotArm_Servo_Stop
                0x00000000       0x10 .\CortexM3\ARM_GCC_541\Debug\Test_01.a(RobotArm_Servo.o)
 .text.RobotArm_Servo_ReadCounter
                0x00000000       0x14 .\CortexM3\ARM_GCC_541\Debug\Test_01.a(RobotArm_Servo.o)
 .text.RobotArm_Servo_ReadControlRegister
                0x00000000        0xc .\CortexM3\ARM_GCC_541\Debug\Test_01.a(RobotArm_Servo.o)
 .text.RobotArm_Servo_WriteControlRegister
                0x00000000        0xc .\CortexM3\ARM_GCC_541\Debug\Test_01.a(RobotArm_Servo.o)
 .text.RobotArm_Servo_ReadCompare1
                0x00000000        0xc .\CortexM3\ARM_GCC_541\Debug\Test_01.a(RobotArm_Servo.o)
 .text.RobotArm_Servo_ReadCompare2
                0x00000000        0xc .\CortexM3\ARM_GCC_541\Debug\Test_01.a(RobotArm_Servo.o)
 .text.RobotArm_Servo_ReadPeriod
                0x00000000        0xc .\CortexM3\ARM_GCC_541\Debug\Test_01.a(RobotArm_Servo.o)
 .text          0x00000000        0x0 .\CortexM3\ARM_GCC_541\Debug\Test_01.a(Base_Selector.o)
 .data          0x00000000        0x0 .\CortexM3\ARM_GCC_541\Debug\Test_01.a(Base_Selector.o)
 .bss           0x00000000        0x0 .\CortexM3\ARM_GCC_541\Debug\Test_01.a(Base_Selector.o)
 .text.Base_Selector_Write
                0x00000000       0x18 .\CortexM3\ARM_GCC_541\Debug\Test_01.a(Base_Selector.o)
 .text.Base_Selector_SetDriveMode
                0x00000000       0x18 .\CortexM3\ARM_GCC_541\Debug\Test_01.a(Base_Selector.o)
 .text.Base_Selector_ReadDataReg
                0x00000000       0x10 .\CortexM3\ARM_GCC_541\Debug\Test_01.a(Base_Selector.o)
 .text          0x00000000        0x0 .\CortexM3\ARM_GCC_541\Debug\Test_01.a(I2C.o)
 .data          0x00000000        0x0 .\CortexM3\ARM_GCC_541\Debug\Test_01.a(I2C.o)
 .text.I2C_Stop
                0x00000000       0xb4 .\CortexM3\ARM_GCC_541\Debug\Test_01.a(I2C.o)
 .text          0x00000000        0x0 .\CortexM3\ARM_GCC_541\Debug\Test_01.a(I2C_INT.o)
 .data          0x00000000        0x0 .\CortexM3\ARM_GCC_541\Debug\Test_01.a(I2C_INT.o)
 .bss           0x00000000        0x0 .\CortexM3\ARM_GCC_541\Debug\Test_01.a(I2C_INT.o)
 .text          0x00000000        0x0 .\CortexM3\ARM_GCC_541\Debug\Test_01.a(I2C_PM.o)
 .data          0x00000000        0x6 .\CortexM3\ARM_GCC_541\Debug\Test_01.a(I2C_PM.o)
 .bss           0x00000000        0x0 .\CortexM3\ARM_GCC_541\Debug\Test_01.a(I2C_PM.o)
 .text.I2C_SaveConfig
                0x00000000       0x3c .\CortexM3\ARM_GCC_541\Debug\Test_01.a(I2C_PM.o)
 .text.I2C_Sleep
                0x00000000       0x24 .\CortexM3\ARM_GCC_541\Debug\Test_01.a(I2C_PM.o)
 .text.I2C_RestoreConfig
                0x00000000       0x60 .\CortexM3\ARM_GCC_541\Debug\Test_01.a(I2C_PM.o)
 .text.I2C_Wakeup
                0x00000000       0x24 .\CortexM3\ARM_GCC_541\Debug\Test_01.a(I2C_PM.o)
 .text          0x00000000        0x0 .\CortexM3\ARM_GCC_541\Debug\Test_01.a(I2C_MASTER.o)
 .data          0x00000000        0x0 .\CortexM3\ARM_GCC_541\Debug\Test_01.a(I2C_MASTER.o)
 .bss           0x00000000        0x0 .\CortexM3\ARM_GCC_541\Debug\Test_01.a(I2C_MASTER.o)
 .text.I2C_MasterWriteBuf
                0x00000000       0xcc .\CortexM3\ARM_GCC_541\Debug\Test_01.a(I2C_MASTER.o)
 .text.I2C_MasterReadBuf
                0x00000000       0xd0 .\CortexM3\ARM_GCC_541\Debug\Test_01.a(I2C_MASTER.o)
 .text.I2C_MasterSendStart
                0x00000000       0x80 .\CortexM3\ARM_GCC_541\Debug\Test_01.a(I2C_MASTER.o)
 .text.I2C_MasterSendRestart
                0x00000000       0x6c .\CortexM3\ARM_GCC_541\Debug\Test_01.a(I2C_MASTER.o)
 .text.I2C_MasterSendStop
                0x00000000       0x38 .\CortexM3\ARM_GCC_541\Debug\Test_01.a(I2C_MASTER.o)
 .text.I2C_MasterWriteByte
                0x00000000       0x58 .\CortexM3\ARM_GCC_541\Debug\Test_01.a(I2C_MASTER.o)
 .text.I2C_MasterReadByte
                0x00000000       0x58 .\CortexM3\ARM_GCC_541\Debug\Test_01.a(I2C_MASTER.o)
 .text.I2C_MasterStatus
                0x00000000       0x38 .\CortexM3\ARM_GCC_541\Debug\Test_01.a(I2C_MASTER.o)
 .text.I2C_MasterClearStatus
                0x00000000       0x24 .\CortexM3\ARM_GCC_541\Debug\Test_01.a(I2C_MASTER.o)
 .text.I2C_MasterGetReadBufSize
                0x00000000        0xc .\CortexM3\ARM_GCC_541\Debug\Test_01.a(I2C_MASTER.o)
 .text.I2C_MasterGetWriteBufSize
                0x00000000        0xc .\CortexM3\ARM_GCC_541\Debug\Test_01.a(I2C_MASTER.o)
 .text.I2C_MasterClearReadBuf
                0x00000000       0x30 .\CortexM3\ARM_GCC_541\Debug\Test_01.a(I2C_MASTER.o)
 .text.I2C_MasterClearWriteBuf
                0x00000000       0x30 .\CortexM3\ARM_GCC_541\Debug\Test_01.a(I2C_MASTER.o)
 .data          0x00000000        0x0 .\CortexM3\ARM_GCC_541\Debug\Test_01.a(CyBootAsmGnu.o)
 .bss           0x00000000        0x0 .\CortexM3\ARM_GCC_541\Debug\Test_01.a(CyBootAsmGnu.o)
 .text          0x00000000        0x0 .\CortexM3\ARM_GCC_541\Debug\Test_01.a(CyFlash.o)
 .data          0x00000000        0x0 .\CortexM3\ARM_GCC_541\Debug\Test_01.a(CyFlash.o)
 .bss           0x00000000        0x0 .\CortexM3\ARM_GCC_541\Debug\Test_01.a(CyFlash.o)
 .text.CySetTempInt
                0x00000000       0x60 .\CortexM3\ARM_GCC_541\Debug\Test_01.a(CyFlash.o)
 .text.CyFlash_Start
                0x00000000       0x54 .\CortexM3\ARM_GCC_541\Debug\Test_01.a(CyFlash.o)
 .text.CyFlash_Stop
                0x00000000       0x24 .\CortexM3\ARM_GCC_541\Debug\Test_01.a(CyFlash.o)
 .text.CyFlash_EraseRow
                0x00000000       0x78 .\CortexM3\ARM_GCC_541\Debug\Test_01.a(CyFlash.o)
 .text.CyFlashGetSpcAlgorithm
                0x00000000       0x4c .\CortexM3\ARM_GCC_541\Debug\Test_01.a(CyFlash.o)
 .text.CySetTemp
                0x00000000       0x14 .\CortexM3\ARM_GCC_541\Debug\Test_01.a(CyFlash.o)
 .text.CySetFlashEEBuffer
                0x00000000       0x20 .\CortexM3\ARM_GCC_541\Debug\Test_01.a(CyFlash.o)
 .text.CyWriteRowFull
                0x00000000       0xf8 .\CortexM3\ARM_GCC_541\Debug\Test_01.a(CyFlash.o)
 .text.CyWriteRowData
                0x00000000       0x14 .\CortexM3\ARM_GCC_541\Debug\Test_01.a(CyFlash.o)
 .text.CyFlash_SetWaitCycles
                0x00000000       0x7c .\CortexM3\ARM_GCC_541\Debug\Test_01.a(CyFlash.o)
 .text.CyEEPROM_Start
                0x00000000       0x54 .\CortexM3\ARM_GCC_541\Debug\Test_01.a(CyFlash.o)
 .text.CyEEPROM_Stop
                0x00000000       0x24 .\CortexM3\ARM_GCC_541\Debug\Test_01.a(CyFlash.o)
 .text.CyEEPROM_ReadReserve
                0x00000000       0x1c .\CortexM3\ARM_GCC_541\Debug\Test_01.a(CyFlash.o)
 .text.CyEEPROM_ReadRelease
                0x00000000       0x10 .\CortexM3\ARM_GCC_541\Debug\Test_01.a(CyFlash.o)
 COMMON         0x00000000        0x2 .\CortexM3\ARM_GCC_541\Debug\Test_01.a(CyFlash.o)
 .text          0x00000000        0x0 .\CortexM3\ARM_GCC_541\Debug\Test_01.a(CySpc.o)
 .data          0x00000000        0x0 .\CortexM3\ARM_GCC_541\Debug\Test_01.a(CySpc.o)
 .bss           0x00000000        0x8 .\CortexM3\ARM_GCC_541\Debug\Test_01.a(CySpc.o)
 .text.CySpcStart
                0x00000000       0x24 .\CortexM3\ARM_GCC_541\Debug\Test_01.a(CySpc.o)
 .text.CySpcStop
                0x00000000       0x24 .\CortexM3\ARM_GCC_541\Debug\Test_01.a(CySpc.o)
 .text.CySpcReadData
                0x00000000       0x34 .\CortexM3\ARM_GCC_541\Debug\Test_01.a(CySpc.o)
 .text.CySpcLoadMultiByte
                0x00000000       0x78 .\CortexM3\ARM_GCC_541\Debug\Test_01.a(CySpc.o)
 .text.CySpcLoadRow
                0x00000000       0x50 .\CortexM3\ARM_GCC_541\Debug\Test_01.a(CySpc.o)
 .text.CySpcLoadRowFull
                0x00000000       0x80 .\CortexM3\ARM_GCC_541\Debug\Test_01.a(CySpc.o)
 .text.CySpcWriteRow
                0x00000000       0x4c .\CortexM3\ARM_GCC_541\Debug\Test_01.a(CySpc.o)
 .text.CySpcEraseSector
                0x00000000       0x3c .\CortexM3\ARM_GCC_541\Debug\Test_01.a(CySpc.o)
 .text.CySpcEraseRow
                0x00000000       0x4c .\CortexM3\ARM_GCC_541\Debug\Test_01.a(CySpc.o)
 .text.CySpcGetTemp
                0x00000000       0x3c .\CortexM3\ARM_GCC_541\Debug\Test_01.a(CySpc.o)
 .text.CySpcLock
                0x00000000       0x4c .\CortexM3\ARM_GCC_541\Debug\Test_01.a(CySpc.o)
 .text.CySpcUnlock
                0x00000000       0x38 .\CortexM3\ARM_GCC_541\Debug\Test_01.a(CySpc.o)
 .text.CySpcGetAlgorithm
                0x00000000       0x28 .\CortexM3\ARM_GCC_541\Debug\Test_01.a(CySpc.o)
 .text          0x00000000        0x0 c:/program files (x86)/cypress/psoc creator/4.2/psoc creator/import/gnu/arm/5.4.1/bin/../lib/gcc/arm-none-eabi/5.4.1/../../../../arm-none-eabi/lib/armv7-m\libm.a(lib_a-w_atan2.o)
 .data          0x00000000        0x0 c:/program files (x86)/cypress/psoc creator/4.2/psoc creator/import/gnu/arm/5.4.1/bin/../lib/gcc/arm-none-eabi/5.4.1/../../../../arm-none-eabi/lib/armv7-m\libm.a(lib_a-w_atan2.o)
 .bss           0x00000000        0x0 c:/program files (x86)/cypress/psoc creator/4.2/psoc creator/import/gnu/arm/5.4.1/bin/../lib/gcc/arm-none-eabi/5.4.1/../../../../arm-none-eabi/lib/armv7-m\libm.a(lib_a-w_atan2.o)
 .text.atan2    0x00000000        0x4 c:/program files (x86)/cypress/psoc creator/4.2/psoc creator/import/gnu/arm/5.4.1/bin/../lib/gcc/arm-none-eabi/5.4.1/../../../../arm-none-eabi/lib/armv7-m\libm.a(lib_a-w_atan2.o)
 .text          0x00000000        0x0 c:/program files (x86)/cypress/psoc creator/4.2/psoc creator/import/gnu/arm/5.4.1/bin/../lib/gcc/arm-none-eabi/5.4.1/../../../../arm-none-eabi/lib/armv7-m\libm.a(lib_a-e_atan2.o)
 .data          0x00000000        0x0 c:/program files (x86)/cypress/psoc creator/4.2/psoc creator/import/gnu/arm/5.4.1/bin/../lib/gcc/arm-none-eabi/5.4.1/../../../../arm-none-eabi/lib/armv7-m\libm.a(lib_a-e_atan2.o)
 .bss           0x00000000        0x0 c:/program files (x86)/cypress/psoc creator/4.2/psoc creator/import/gnu/arm/5.4.1/bin/../lib/gcc/arm-none-eabi/5.4.1/../../../../arm-none-eabi/lib/armv7-m\libm.a(lib_a-e_atan2.o)
 .text.__ieee754_atan2
                0x00000000      0x194 c:/program files (x86)/cypress/psoc creator/4.2/psoc creator/import/gnu/arm/5.4.1/bin/../lib/gcc/arm-none-eabi/5.4.1/../../../../arm-none-eabi/lib/armv7-m\libm.a(lib_a-e_atan2.o)
 .text          0x00000000        0x0 c:/program files (x86)/cypress/psoc creator/4.2/psoc creator/import/gnu/arm/5.4.1/bin/../lib/gcc/arm-none-eabi/5.4.1/../../../../arm-none-eabi/lib/armv7-m\libm.a(lib_a-s_atan.o)
 .data          0x00000000        0x0 c:/program files (x86)/cypress/psoc creator/4.2/psoc creator/import/gnu/arm/5.4.1/bin/../lib/gcc/arm-none-eabi/5.4.1/../../../../arm-none-eabi/lib/armv7-m\libm.a(lib_a-s_atan.o)
 .bss           0x00000000        0x0 c:/program files (x86)/cypress/psoc creator/4.2/psoc creator/import/gnu/arm/5.4.1/bin/../lib/gcc/arm-none-eabi/5.4.1/../../../../arm-none-eabi/lib/armv7-m\libm.a(lib_a-s_atan.o)
 .text.atan     0x00000000      0x33c c:/program files (x86)/cypress/psoc creator/4.2/psoc creator/import/gnu/arm/5.4.1/bin/../lib/gcc/arm-none-eabi/5.4.1/../../../../arm-none-eabi/lib/armv7-m\libm.a(lib_a-s_atan.o)
 .rodata.atanlo
                0x00000000       0x20 c:/program files (x86)/cypress/psoc creator/4.2/psoc creator/import/gnu/arm/5.4.1/bin/../lib/gcc/arm-none-eabi/5.4.1/../../../../arm-none-eabi/lib/armv7-m\libm.a(lib_a-s_atan.o)
 .rodata.atanhi
                0x00000000       0x20 c:/program files (x86)/cypress/psoc creator/4.2/psoc creator/import/gnu/arm/5.4.1/bin/../lib/gcc/arm-none-eabi/5.4.1/../../../../arm-none-eabi/lib/armv7-m\libm.a(lib_a-s_atan.o)
 .text          0x00000000        0x0 c:/program files (x86)/cypress/psoc creator/4.2/psoc creator/import/gnu/arm/5.4.1/bin/../lib/gcc/arm-none-eabi/5.4.1/../../../../arm-none-eabi/lib/armv7-m\libm.a(lib_a-s_fabs.o)
 .data          0x00000000        0x0 c:/program files (x86)/cypress/psoc creator/4.2/psoc creator/import/gnu/arm/5.4.1/bin/../lib/gcc/arm-none-eabi/5.4.1/../../../../arm-none-eabi/lib/armv7-m\libm.a(lib_a-s_fabs.o)
 .bss           0x00000000        0x0 c:/program files (x86)/cypress/psoc creator/4.2/psoc creator/import/gnu/arm/5.4.1/bin/../lib/gcc/arm-none-eabi/5.4.1/../../../../arm-none-eabi/lib/armv7-m\libm.a(lib_a-s_fabs.o)
 .text.fabs     0x00000000        0x8 c:/program files (x86)/cypress/psoc creator/4.2/psoc creator/import/gnu/arm/5.4.1/bin/../lib/gcc/arm-none-eabi/5.4.1/../../../../arm-none-eabi/lib/armv7-m\libm.a(lib_a-s_fabs.o)
 .text          0x00000000      0x370 c:/program files (x86)/cypress/psoc creator/4.2/psoc creator/import/gnu/arm/5.4.1/bin/../lib/gcc/arm-none-eabi/5.4.1/armv7-m\libgcc.a(_arm_addsubdf3.o)
 .data          0x00000000        0x0 c:/program files (x86)/cypress/psoc creator/4.2/psoc creator/import/gnu/arm/5.4.1/bin/../lib/gcc/arm-none-eabi/5.4.1/armv7-m\libgcc.a(_arm_addsubdf3.o)
 .bss           0x00000000        0x0 c:/program files (x86)/cypress/psoc creator/4.2/psoc creator/import/gnu/arm/5.4.1/bin/../lib/gcc/arm-none-eabi/5.4.1/armv7-m\libgcc.a(_arm_addsubdf3.o)
 .text          0x00000000      0x424 c:/program files (x86)/cypress/psoc creator/4.2/psoc creator/import/gnu/arm/5.4.1/bin/../lib/gcc/arm-none-eabi/5.4.1/armv7-m\libgcc.a(_arm_muldivdf3.o)
 .data          0x00000000        0x0 c:/program files (x86)/cypress/psoc creator/4.2/psoc creator/import/gnu/arm/5.4.1/bin/../lib/gcc/arm-none-eabi/5.4.1/armv7-m\libgcc.a(_arm_muldivdf3.o)
 .bss           0x00000000        0x0 c:/program files (x86)/cypress/psoc creator/4.2/psoc creator/import/gnu/arm/5.4.1/bin/../lib/gcc/arm-none-eabi/5.4.1/armv7-m\libgcc.a(_arm_muldivdf3.o)
 .text          0x00000000      0x110 c:/program files (x86)/cypress/psoc creator/4.2/psoc creator/import/gnu/arm/5.4.1/bin/../lib/gcc/arm-none-eabi/5.4.1/armv7-m\libgcc.a(_arm_cmpdf2.o)
 .data          0x00000000        0x0 c:/program files (x86)/cypress/psoc creator/4.2/psoc creator/import/gnu/arm/5.4.1/bin/../lib/gcc/arm-none-eabi/5.4.1/armv7-m\libgcc.a(_arm_cmpdf2.o)
 .bss           0x00000000        0x0 c:/program files (x86)/cypress/psoc creator/4.2/psoc creator/import/gnu/arm/5.4.1/bin/../lib/gcc/arm-none-eabi/5.4.1/armv7-m\libgcc.a(_arm_cmpdf2.o)
 .text          0x00000000       0x50 c:/program files (x86)/cypress/psoc creator/4.2/psoc creator/import/gnu/arm/5.4.1/bin/../lib/gcc/arm-none-eabi/5.4.1/armv7-m\libgcc.a(_arm_fixdfsi.o)
 .data          0x00000000        0x0 c:/program files (x86)/cypress/psoc creator/4.2/psoc creator/import/gnu/arm/5.4.1/bin/../lib/gcc/arm-none-eabi/5.4.1/armv7-m\libgcc.a(_arm_fixdfsi.o)
 .bss           0x00000000        0x0 c:/program files (x86)/cypress/psoc creator/4.2/psoc creator/import/gnu/arm/5.4.1/bin/../lib/gcc/arm-none-eabi/5.4.1/armv7-m\libgcc.a(_arm_fixdfsi.o)
 .data          0x00000000        0x0 c:/program files (x86)/cypress/psoc creator/4.2/psoc creator/import/gnu/arm/5.4.1/bin/../lib/gcc/arm-none-eabi/5.4.1/armv7-m\libgcc.a(_arm_addsubsf3.o)
 .bss           0x00000000        0x0 c:/program files (x86)/cypress/psoc creator/4.2/psoc creator/import/gnu/arm/5.4.1/bin/../lib/gcc/arm-none-eabi/5.4.1/armv7-m\libgcc.a(_arm_addsubsf3.o)
 .data          0x00000000        0x0 c:/program files (x86)/cypress/psoc creator/4.2/psoc creator/import/gnu/arm/5.4.1/bin/../lib/gcc/arm-none-eabi/5.4.1/armv7-m\libgcc.a(_arm_cmpsf2.o)
 .bss           0x00000000        0x0 c:/program files (x86)/cypress/psoc creator/4.2/psoc creator/import/gnu/arm/5.4.1/bin/../lib/gcc/arm-none-eabi/5.4.1/armv7-m\libgcc.a(_arm_cmpsf2.o)
 .text          0x00000000        0x0 c:/program files (x86)/cypress/psoc creator/4.2/psoc creator/import/gnu/arm/5.4.1/bin/../lib/gcc/arm-none-eabi/5.4.1/../../../../arm-none-eabi/lib/armv7-m\libg_nano.a(lib_a-errno.o)
 .data          0x00000000        0x0 c:/program files (x86)/cypress/psoc creator/4.2/psoc creator/import/gnu/arm/5.4.1/bin/../lib/gcc/arm-none-eabi/5.4.1/../../../../arm-none-eabi/lib/armv7-m\libg_nano.a(lib_a-errno.o)
 .bss           0x00000000        0x0 c:/program files (x86)/cypress/psoc creator/4.2/psoc creator/import/gnu/arm/5.4.1/bin/../lib/gcc/arm-none-eabi/5.4.1/../../../../arm-none-eabi/lib/armv7-m\libg_nano.a(lib_a-errno.o)
 .text          0x00000000        0x0 c:/program files (x86)/cypress/psoc creator/4.2/psoc creator/import/gnu/arm/5.4.1/bin/../lib/gcc/arm-none-eabi/5.4.1/../../../../arm-none-eabi/lib/armv7-m\libg_nano.a(lib_a-exit.o)
 .data          0x00000000        0x0 c:/program files (x86)/cypress/psoc creator/4.2/psoc creator/import/gnu/arm/5.4.1/bin/../lib/gcc/arm-none-eabi/5.4.1/../../../../arm-none-eabi/lib/armv7-m\libg_nano.a(lib_a-exit.o)
 .bss           0x00000000        0x0 c:/program files (x86)/cypress/psoc creator/4.2/psoc creator/import/gnu/arm/5.4.1/bin/../lib/gcc/arm-none-eabi/5.4.1/../../../../arm-none-eabi/lib/armv7-m\libg_nano.a(lib_a-exit.o)
 .text.exit     0x00000000       0x28 c:/program files (x86)/cypress/psoc creator/4.2/psoc creator/import/gnu/arm/5.4.1/bin/../lib/gcc/arm-none-eabi/5.4.1/../../../../arm-none-eabi/lib/armv7-m\libg_nano.a(lib_a-exit.o)
 .text          0x00000000        0x0 c:/program files (x86)/cypress/psoc creator/4.2/psoc creator/import/gnu/arm/5.4.1/bin/../lib/gcc/arm-none-eabi/5.4.1/../../../../arm-none-eabi/lib/armv7-m\libg_nano.a(lib_a-impure.o)
 .data          0x00000000        0x0 c:/program files (x86)/cypress/psoc creator/4.2/psoc creator/import/gnu/arm/5.4.1/bin/../lib/gcc/arm-none-eabi/5.4.1/../../../../arm-none-eabi/lib/armv7-m\libg_nano.a(lib_a-impure.o)
 .bss           0x00000000        0x0 c:/program files (x86)/cypress/psoc creator/4.2/psoc creator/import/gnu/arm/5.4.1/bin/../lib/gcc/arm-none-eabi/5.4.1/../../../../arm-none-eabi/lib/armv7-m\libg_nano.a(lib_a-impure.o)
 .rodata._global_impure_ptr
                0x00000000        0x4 c:/program files (x86)/cypress/psoc creator/4.2/psoc creator/import/gnu/arm/5.4.1/bin/../lib/gcc/arm-none-eabi/5.4.1/../../../../arm-none-eabi/lib/armv7-m\libg_nano.a(lib_a-impure.o)
 .text          0x00000000        0x0 c:/program files (x86)/cypress/psoc creator/4.2/psoc creator/import/gnu/arm/5.4.1/bin/../lib/gcc/arm-none-eabi/5.4.1/../../../../arm-none-eabi/lib/armv7-m\libg_nano.a(lib_a-init.o)
 .data          0x00000000        0x0 c:/program files (x86)/cypress/psoc creator/4.2/psoc creator/import/gnu/arm/5.4.1/bin/../lib/gcc/arm-none-eabi/5.4.1/../../../../arm-none-eabi/lib/armv7-m\libg_nano.a(lib_a-init.o)
 .bss           0x00000000        0x0 c:/program files (x86)/cypress/psoc creator/4.2/psoc creator/import/gnu/arm/5.4.1/bin/../lib/gcc/arm-none-eabi/5.4.1/../../../../arm-none-eabi/lib/armv7-m\libg_nano.a(lib_a-init.o)
 .text          0x00000000        0x0 c:/program files (x86)/cypress/psoc creator/4.2/psoc creator/import/gnu/arm/5.4.1/bin/../lib/gcc/arm-none-eabi/5.4.1/../../../../arm-none-eabi/lib/armv7-m\libg_nano.a(lib_a-memcpy-stub.o)
 .data          0x00000000        0x0 c:/program files (x86)/cypress/psoc creator/4.2/psoc creator/import/gnu/arm/5.4.1/bin/../lib/gcc/arm-none-eabi/5.4.1/../../../../arm-none-eabi/lib/armv7-m\libg_nano.a(lib_a-memcpy-stub.o)
 .bss           0x00000000        0x0 c:/program files (x86)/cypress/psoc creator/4.2/psoc creator/import/gnu/arm/5.4.1/bin/../lib/gcc/arm-none-eabi/5.4.1/../../../../arm-none-eabi/lib/armv7-m\libg_nano.a(lib_a-memcpy-stub.o)
 .text          0x00000000        0x0 c:/program files (x86)/cypress/psoc creator/4.2/psoc creator/import/gnu/arm/5.4.1/bin/../lib/gcc/arm-none-eabi/5.4.1/../../../../arm-none-eabi/lib/armv7-m\libg_nano.a(lib_a-memset.o)
 .data          0x00000000        0x0 c:/program files (x86)/cypress/psoc creator/4.2/psoc creator/import/gnu/arm/5.4.1/bin/../lib/gcc/arm-none-eabi/5.4.1/../../../../arm-none-eabi/lib/armv7-m\libg_nano.a(lib_a-memset.o)
 .bss           0x00000000        0x0 c:/program files (x86)/cypress/psoc creator/4.2/psoc creator/import/gnu/arm/5.4.1/bin/../lib/gcc/arm-none-eabi/5.4.1/../../../../arm-none-eabi/lib/armv7-m\libg_nano.a(lib_a-memset.o)
 .text          0x00000000        0x0 c:/program files (x86)/cypress/psoc creator/4.2/psoc creator/import/gnu/arm/5.4.1/bin/../lib/gcc/arm-none-eabi/5.4.1/../../../../arm-none-eabi/lib/armv7-m\libg_nano.a(lib_a-sprintf.o)
 .data          0x00000000        0x0 c:/program files (x86)/cypress/psoc creator/4.2/psoc creator/import/gnu/arm/5.4.1/bin/../lib/gcc/arm-none-eabi/5.4.1/../../../../arm-none-eabi/lib/armv7-m\libg_nano.a(lib_a-sprintf.o)
 .bss           0x00000000        0x0 c:/program files (x86)/cypress/psoc creator/4.2/psoc creator/import/gnu/arm/5.4.1/bin/../lib/gcc/arm-none-eabi/5.4.1/../../../../arm-none-eabi/lib/armv7-m\libg_nano.a(lib_a-sprintf.o)
 .text._sprintf_r
                0x00000000       0x40 c:/program files (x86)/cypress/psoc creator/4.2/psoc creator/import/gnu/arm/5.4.1/bin/../lib/gcc/arm-none-eabi/5.4.1/../../../../arm-none-eabi/lib/armv7-m\libg_nano.a(lib_a-sprintf.o)
 .text.sprintf  0x00000000       0x48 c:/program files (x86)/cypress/psoc creator/4.2/psoc creator/import/gnu/arm/5.4.1/bin/../lib/gcc/arm-none-eabi/5.4.1/../../../../arm-none-eabi/lib/armv7-m\libg_nano.a(lib_a-sprintf.o)
 .text          0x00000000        0x0 c:/program files (x86)/cypress/psoc creator/4.2/psoc creator/import/gnu/arm/5.4.1/bin/../lib/gcc/arm-none-eabi/5.4.1/../../../../arm-none-eabi/lib/armv7-m\libg_nano.a(lib_a-nano-svfprintf.o)
 .data          0x00000000        0x0 c:/program files (x86)/cypress/psoc creator/4.2/psoc creator/import/gnu/arm/5.4.1/bin/../lib/gcc/arm-none-eabi/5.4.1/../../../../arm-none-eabi/lib/armv7-m\libg_nano.a(lib_a-nano-svfprintf.o)
 .bss           0x00000000        0x0 c:/program files (x86)/cypress/psoc creator/4.2/psoc creator/import/gnu/arm/5.4.1/bin/../lib/gcc/arm-none-eabi/5.4.1/../../../../arm-none-eabi/lib/armv7-m\libg_nano.a(lib_a-nano-svfprintf.o)
 .text.__ssputs_r
                0x00000000       0xb2 c:/program files (x86)/cypress/psoc creator/4.2/psoc creator/import/gnu/arm/5.4.1/bin/../lib/gcc/arm-none-eabi/5.4.1/../../../../arm-none-eabi/lib/armv7-m\libg_nano.a(lib_a-nano-svfprintf.o)
 .text.__ssprint_r
                0x00000000       0xfe c:/program files (x86)/cypress/psoc creator/4.2/psoc creator/import/gnu/arm/5.4.1/bin/../lib/gcc/arm-none-eabi/5.4.1/../../../../arm-none-eabi/lib/armv7-m\libg_nano.a(lib_a-nano-svfprintf.o)
 .text._svfprintf_r
                0x00000000      0x1e8 c:/program files (x86)/cypress/psoc creator/4.2/psoc creator/import/gnu/arm/5.4.1/bin/../lib/gcc/arm-none-eabi/5.4.1/../../../../arm-none-eabi/lib/armv7-m\libg_nano.a(lib_a-nano-svfprintf.o)
 .rodata.str1.1
                0x00000000       0x11 c:/program files (x86)/cypress/psoc creator/4.2/psoc creator/import/gnu/arm/5.4.1/bin/../lib/gcc/arm-none-eabi/5.4.1/../../../../arm-none-eabi/lib/armv7-m\libg_nano.a(lib_a-nano-svfprintf.o)
 .text          0x00000000        0x0 c:/program files (x86)/cypress/psoc creator/4.2/psoc creator/import/gnu/arm/5.4.1/bin/../lib/gcc/arm-none-eabi/5.4.1/../../../../arm-none-eabi/lib/armv7-m\libg_nano.a(lib_a-nano-vfprintf_i.o)
 .data          0x00000000        0x0 c:/program files (x86)/cypress/psoc creator/4.2/psoc creator/import/gnu/arm/5.4.1/bin/../lib/gcc/arm-none-eabi/5.4.1/../../../../arm-none-eabi/lib/armv7-m\libg_nano.a(lib_a-nano-vfprintf_i.o)
 .bss           0x00000000        0x0 c:/program files (x86)/cypress/psoc creator/4.2/psoc creator/import/gnu/arm/5.4.1/bin/../lib/gcc/arm-none-eabi/5.4.1/../../../../arm-none-eabi/lib/armv7-m\libg_nano.a(lib_a-nano-vfprintf_i.o)
 .text._printf_common
                0x00000000       0xec c:/program files (x86)/cypress/psoc creator/4.2/psoc creator/import/gnu/arm/5.4.1/bin/../lib/gcc/arm-none-eabi/5.4.1/../../../../arm-none-eabi/lib/armv7-m\libg_nano.a(lib_a-nano-vfprintf_i.o)
 .text._printf_i
                0x00000000      0x24c c:/program files (x86)/cypress/psoc creator/4.2/psoc creator/import/gnu/arm/5.4.1/bin/../lib/gcc/arm-none-eabi/5.4.1/../../../../arm-none-eabi/lib/armv7-m\libg_nano.a(lib_a-nano-vfprintf_i.o)
 .rodata.str1.1
                0x00000000       0x22 c:/program files (x86)/cypress/psoc creator/4.2/psoc creator/import/gnu/arm/5.4.1/bin/../lib/gcc/arm-none-eabi/5.4.1/../../../../arm-none-eabi/lib/armv7-m\libg_nano.a(lib_a-nano-vfprintf_i.o)
 .text          0x00000000        0x0 c:/program files (x86)/cypress/psoc creator/4.2/psoc creator/import/gnu/arm/5.4.1/bin/../lib/gcc/arm-none-eabi/5.4.1/../../../../arm-none-eabi/lib/armv7-m\libg_nano.a(lib_a-memchr-stub.o)
 .data          0x00000000        0x0 c:/program files (x86)/cypress/psoc creator/4.2/psoc creator/import/gnu/arm/5.4.1/bin/../lib/gcc/arm-none-eabi/5.4.1/../../../../arm-none-eabi/lib/armv7-m\libg_nano.a(lib_a-memchr-stub.o)
 .bss           0x00000000        0x0 c:/program files (x86)/cypress/psoc creator/4.2/psoc creator/import/gnu/arm/5.4.1/bin/../lib/gcc/arm-none-eabi/5.4.1/../../../../arm-none-eabi/lib/armv7-m\libg_nano.a(lib_a-memchr-stub.o)
 .text.memchr   0x00000000       0x1c c:/program files (x86)/cypress/psoc creator/4.2/psoc creator/import/gnu/arm/5.4.1/bin/../lib/gcc/arm-none-eabi/5.4.1/../../../../arm-none-eabi/lib/armv7-m\libg_nano.a(lib_a-memchr-stub.o)
 .text          0x00000000        0x0 c:/program files (x86)/cypress/psoc creator/4.2/psoc creator/import/gnu/arm/5.4.1/bin/../lib/gcc/arm-none-eabi/5.4.1/../../../../arm-none-eabi/lib/armv7-m\libg_nano.a(lib_a-memmove.o)
 .data          0x00000000        0x0 c:/program files (x86)/cypress/psoc creator/4.2/psoc creator/import/gnu/arm/5.4.1/bin/../lib/gcc/arm-none-eabi/5.4.1/../../../../arm-none-eabi/lib/armv7-m\libg_nano.a(lib_a-memmove.o)
 .bss           0x00000000        0x0 c:/program files (x86)/cypress/psoc creator/4.2/psoc creator/import/gnu/arm/5.4.1/bin/../lib/gcc/arm-none-eabi/5.4.1/../../../../arm-none-eabi/lib/armv7-m\libg_nano.a(lib_a-memmove.o)
 .text.memmove  0x00000000       0x36 c:/program files (x86)/cypress/psoc creator/4.2/psoc creator/import/gnu/arm/5.4.1/bin/../lib/gcc/arm-none-eabi/5.4.1/../../../../arm-none-eabi/lib/armv7-m\libg_nano.a(lib_a-memmove.o)
 .text          0x00000000        0x0 c:/program files (x86)/cypress/psoc creator/4.2/psoc creator/import/gnu/arm/5.4.1/bin/../lib/gcc/arm-none-eabi/5.4.1/../../../../arm-none-eabi/lib/armv7-m\libg_nano.a(lib_a-nano-freer.o)
 .data          0x00000000        0x0 c:/program files (x86)/cypress/psoc creator/4.2/psoc creator/import/gnu/arm/5.4.1/bin/../lib/gcc/arm-none-eabi/5.4.1/../../../../arm-none-eabi/lib/armv7-m\libg_nano.a(lib_a-nano-freer.o)
 .bss           0x00000000        0x0 c:/program files (x86)/cypress/psoc creator/4.2/psoc creator/import/gnu/arm/5.4.1/bin/../lib/gcc/arm-none-eabi/5.4.1/../../../../arm-none-eabi/lib/armv7-m\libg_nano.a(lib_a-nano-freer.o)
 .text._free_r  0x00000000       0x98 c:/program files (x86)/cypress/psoc creator/4.2/psoc creator/import/gnu/arm/5.4.1/bin/../lib/gcc/arm-none-eabi/5.4.1/../../../../arm-none-eabi/lib/armv7-m\libg_nano.a(lib_a-nano-freer.o)
 .text          0x00000000        0x0 c:/program files (x86)/cypress/psoc creator/4.2/psoc creator/import/gnu/arm/5.4.1/bin/../lib/gcc/arm-none-eabi/5.4.1/../../../../arm-none-eabi/lib/armv7-m\libg_nano.a(lib_a-nano-mallocr.o)
 .data          0x00000000        0x0 c:/program files (x86)/cypress/psoc creator/4.2/psoc creator/import/gnu/arm/5.4.1/bin/../lib/gcc/arm-none-eabi/5.4.1/../../../../arm-none-eabi/lib/armv7-m\libg_nano.a(lib_a-nano-mallocr.o)
 .bss           0x00000000        0x0 c:/program files (x86)/cypress/psoc creator/4.2/psoc creator/import/gnu/arm/5.4.1/bin/../lib/gcc/arm-none-eabi/5.4.1/../../../../arm-none-eabi/lib/armv7-m\libg_nano.a(lib_a-nano-mallocr.o)
 .text._malloc_r
                0x00000000       0xbc c:/program files (x86)/cypress/psoc creator/4.2/psoc creator/import/gnu/arm/5.4.1/bin/../lib/gcc/arm-none-eabi/5.4.1/../../../../arm-none-eabi/lib/armv7-m\libg_nano.a(lib_a-nano-mallocr.o)
 .bss.__malloc_sbrk_start
                0x00000000        0x4 c:/program files (x86)/cypress/psoc creator/4.2/psoc creator/import/gnu/arm/5.4.1/bin/../lib/gcc/arm-none-eabi/5.4.1/../../../../arm-none-eabi/lib/armv7-m\libg_nano.a(lib_a-nano-mallocr.o)
 .bss.__malloc_free_list
                0x00000000        0x4 c:/program files (x86)/cypress/psoc creator/4.2/psoc creator/import/gnu/arm/5.4.1/bin/../lib/gcc/arm-none-eabi/5.4.1/../../../../arm-none-eabi/lib/armv7-m\libg_nano.a(lib_a-nano-mallocr.o)
 .text          0x00000000        0x0 c:/program files (x86)/cypress/psoc creator/4.2/psoc creator/import/gnu/arm/5.4.1/bin/../lib/gcc/arm-none-eabi/5.4.1/../../../../arm-none-eabi/lib/armv7-m\libg_nano.a(lib_a-nano-reallocr.o)
 .data          0x00000000        0x0 c:/program files (x86)/cypress/psoc creator/4.2/psoc creator/import/gnu/arm/5.4.1/bin/../lib/gcc/arm-none-eabi/5.4.1/../../../../arm-none-eabi/lib/armv7-m\libg_nano.a(lib_a-nano-reallocr.o)
 .bss           0x00000000        0x0 c:/program files (x86)/cypress/psoc creator/4.2/psoc creator/import/gnu/arm/5.4.1/bin/../lib/gcc/arm-none-eabi/5.4.1/../../../../arm-none-eabi/lib/armv7-m\libg_nano.a(lib_a-nano-reallocr.o)
 .text._realloc_r
                0x00000000       0x4c c:/program files (x86)/cypress/psoc creator/4.2/psoc creator/import/gnu/arm/5.4.1/bin/../lib/gcc/arm-none-eabi/5.4.1/../../../../arm-none-eabi/lib/armv7-m\libg_nano.a(lib_a-nano-reallocr.o)
 .text          0x00000000        0x0 c:/program files (x86)/cypress/psoc creator/4.2/psoc creator/import/gnu/arm/5.4.1/bin/../lib/gcc/arm-none-eabi/5.4.1/../../../../arm-none-eabi/lib/armv7-m\libg_nano.a(lib_a-sbrkr.o)
 .data          0x00000000        0x0 c:/program files (x86)/cypress/psoc creator/4.2/psoc creator/import/gnu/arm/5.4.1/bin/../lib/gcc/arm-none-eabi/5.4.1/../../../../arm-none-eabi/lib/armv7-m\libg_nano.a(lib_a-sbrkr.o)
 .bss           0x00000000        0x0 c:/program files (x86)/cypress/psoc creator/4.2/psoc creator/import/gnu/arm/5.4.1/bin/../lib/gcc/arm-none-eabi/5.4.1/../../../../arm-none-eabi/lib/armv7-m\libg_nano.a(lib_a-sbrkr.o)
 .text._sbrk_r  0x00000000       0x20 c:/program files (x86)/cypress/psoc creator/4.2/psoc creator/import/gnu/arm/5.4.1/bin/../lib/gcc/arm-none-eabi/5.4.1/../../../../arm-none-eabi/lib/armv7-m\libg_nano.a(lib_a-sbrkr.o)
 .text          0x00000000        0x0 c:/program files (x86)/cypress/psoc creator/4.2/psoc creator/import/gnu/arm/5.4.1/bin/../lib/gcc/arm-none-eabi/5.4.1/../../../../arm-none-eabi/lib/armv7-m\libg_nano.a(lib_a-mlock.o)
 .data          0x00000000        0x0 c:/program files (x86)/cypress/psoc creator/4.2/psoc creator/import/gnu/arm/5.4.1/bin/../lib/gcc/arm-none-eabi/5.4.1/../../../../arm-none-eabi/lib/armv7-m\libg_nano.a(lib_a-mlock.o)
 .bss           0x00000000        0x0 c:/program files (x86)/cypress/psoc creator/4.2/psoc creator/import/gnu/arm/5.4.1/bin/../lib/gcc/arm-none-eabi/5.4.1/../../../../arm-none-eabi/lib/armv7-m\libg_nano.a(lib_a-mlock.o)
 .text.__malloc_lock
                0x00000000        0x2 c:/program files (x86)/cypress/psoc creator/4.2/psoc creator/import/gnu/arm/5.4.1/bin/../lib/gcc/arm-none-eabi/5.4.1/../../../../arm-none-eabi/lib/armv7-m\libg_nano.a(lib_a-mlock.o)
 .text.__malloc_unlock
                0x00000000        0x2 c:/program files (x86)/cypress/psoc creator/4.2/psoc creator/import/gnu/arm/5.4.1/bin/../lib/gcc/arm-none-eabi/5.4.1/../../../../arm-none-eabi/lib/armv7-m\libg_nano.a(lib_a-mlock.o)
 .text          0x00000000        0x0 c:/program files (x86)/cypress/psoc creator/4.2/psoc creator/import/gnu/arm/5.4.1/bin/../lib/gcc/arm-none-eabi/5.4.1/../../../../arm-none-eabi/lib/armv7-m\libg_nano.a(lib_a-nano-msizer.o)
 .data          0x00000000        0x0 c:/program files (x86)/cypress/psoc creator/4.2/psoc creator/import/gnu/arm/5.4.1/bin/../lib/gcc/arm-none-eabi/5.4.1/../../../../arm-none-eabi/lib/armv7-m\libg_nano.a(lib_a-nano-msizer.o)
 .bss           0x00000000        0x0 c:/program files (x86)/cypress/psoc creator/4.2/psoc creator/import/gnu/arm/5.4.1/bin/../lib/gcc/arm-none-eabi/5.4.1/../../../../arm-none-eabi/lib/armv7-m\libg_nano.a(lib_a-nano-msizer.o)
 .text._malloc_usable_size_r
                0x00000000       0x14 c:/program files (x86)/cypress/psoc creator/4.2/psoc creator/import/gnu/arm/5.4.1/bin/../lib/gcc/arm-none-eabi/5.4.1/../../../../arm-none-eabi/lib/armv7-m\libg_nano.a(lib_a-nano-msizer.o)
 .text          0x00000000        0x0 c:/program files (x86)/cypress/psoc creator/4.2/psoc creator/import/gnu/arm/5.4.1/bin/../lib/gcc/arm-none-eabi/5.4.1/../../../../arm-none-eabi/lib/armv7-m\libg_nano.a(lib_a-reent.o)
 .data          0x00000000        0x0 c:/program files (x86)/cypress/psoc creator/4.2/psoc creator/import/gnu/arm/5.4.1/bin/../lib/gcc/arm-none-eabi/5.4.1/../../../../arm-none-eabi/lib/armv7-m\libg_nano.a(lib_a-reent.o)
 .bss           0x00000000        0x0 c:/program files (x86)/cypress/psoc creator/4.2/psoc creator/import/gnu/arm/5.4.1/bin/../lib/gcc/arm-none-eabi/5.4.1/../../../../arm-none-eabi/lib/armv7-m\libg_nano.a(lib_a-reent.o)
 .text.cleanup_glue
                0x00000000       0x1a c:/program files (x86)/cypress/psoc creator/4.2/psoc creator/import/gnu/arm/5.4.1/bin/../lib/gcc/arm-none-eabi/5.4.1/../../../../arm-none-eabi/lib/armv7-m\libg_nano.a(lib_a-reent.o)
 .text._reclaim_reent
                0x00000000       0xb4 c:/program files (x86)/cypress/psoc creator/4.2/psoc creator/import/gnu/arm/5.4.1/bin/../lib/gcc/arm-none-eabi/5.4.1/../../../../arm-none-eabi/lib/armv7-m\libg_nano.a(lib_a-reent.o)
 COMMON         0x00000000        0x4 c:/program files (x86)/cypress/psoc creator/4.2/psoc creator/import/gnu/arm/5.4.1/bin/../lib/gcc/arm-none-eabi/5.4.1/../../../../arm-none-eabi/lib/armv7-m\libg_nano.a(lib_a-reent.o)
 .text          0x00000000        0x0 c:/program files (x86)/cypress/psoc creator/4.2/psoc creator/import/gnu/arm/5.4.1/bin/../lib/gcc/arm-none-eabi/5.4.1/armv7-m/crtend.o
 .data          0x00000000        0x0 c:/program files (x86)/cypress/psoc creator/4.2/psoc creator/import/gnu/arm/5.4.1/bin/../lib/gcc/arm-none-eabi/5.4.1/armv7-m/crtend.o
 .bss           0x00000000        0x0 c:/program files (x86)/cypress/psoc creator/4.2/psoc creator/import/gnu/arm/5.4.1/bin/../lib/gcc/arm-none-eabi/5.4.1/armv7-m/crtend.o
 .text          0x00000000        0x0 c:/program files (x86)/cypress/psoc creator/4.2/psoc creator/import/gnu/arm/5.4.1/bin/../lib/gcc/arm-none-eabi/5.4.1/armv7-m/crtn.o
 .data          0x00000000        0x0 c:/program files (x86)/cypress/psoc creator/4.2/psoc creator/import/gnu/arm/5.4.1/bin/../lib/gcc/arm-none-eabi/5.4.1/armv7-m/crtn.o
 .bss           0x00000000        0x0 c:/program files (x86)/cypress/psoc creator/4.2/psoc creator/import/gnu/arm/5.4.1/bin/../lib/gcc/arm-none-eabi/5.4.1/armv7-m/crtn.o

Memory Configuration

Name             Origin             Length             Attributes
rom              0x00000000         0x00040000         xr
ram              0x1fff8000         0x00010000         xrw
*default*        0x00000000         0xffffffff

Linker script and memory map

LOAD c:/program files (x86)/cypress/psoc creator/4.2/psoc creator/import/gnu/arm/5.4.1/bin/../lib/gcc/arm-none-eabi/5.4.1/armv7-m/crti.o
LOAD c:/program files (x86)/cypress/psoc creator/4.2/psoc creator/import/gnu/arm/5.4.1/bin/../lib/gcc/arm-none-eabi/5.4.1/armv7-m/crtbegin.o
LOAD c:/program files (x86)/cypress/psoc creator/4.2/psoc creator/import/gnu/arm/5.4.1/bin/../lib/gcc/arm-none-eabi/5.4.1/../../../../arm-none-eabi/lib/armv7-m/crt0.o
START GROUP
LOAD .\CortexM3\ARM_GCC_541\Debug\main.o
LOAD .\CortexM3\ARM_GCC_541\Debug\cyfitter_cfg.o
LOAD .\CortexM3\ARM_GCC_541\Debug\cymetadata.o
LOAD .\CortexM3\ARM_GCC_541\Debug\Cm3Start.o
LOAD .\CortexM3\ARM_GCC_541\Debug\Test_01.a
LOAD C:\Program Files (x86)\Cypress\PSoC Creator\4.2\PSoC Creator\psoc\content\cycomponentlibrary\CyComponentLibrary.cylib\CortexM3\ARM_GCC_541\Debug\CyComponentLibrary.a
LOAD c:/program files (x86)/cypress/psoc creator/4.2/psoc creator/import/gnu/arm/5.4.1/bin/../lib/gcc/arm-none-eabi/5.4.1/../../../../arm-none-eabi/lib/armv7-m\libm.a
END GROUP
START GROUP
LOAD c:/program files (x86)/cypress/psoc creator/4.2/psoc creator/import/gnu/arm/5.4.1/bin/../lib/gcc/arm-none-eabi/5.4.1/armv7-m\libgcc.a
LOAD c:/program files (x86)/cypress/psoc creator/4.2/psoc creator/import/gnu/arm/5.4.1/bin/../lib/gcc/arm-none-eabi/5.4.1/../../../../arm-none-eabi/lib/armv7-m\libg_nano.a
LOAD c:/program files (x86)/cypress/psoc creator/4.2/psoc creator/import/gnu/arm/5.4.1/bin/../lib/gcc/arm-none-eabi/5.4.1/../../../../arm-none-eabi/lib/armv7-m\libc_nano.a
END GROUP
START GROUP
LOAD c:/program files (x86)/cypress/psoc creator/4.2/psoc creator/import/gnu/arm/5.4.1/bin/../lib/gcc/arm-none-eabi/5.4.1/armv7-m\libgcc.a
LOAD c:/program files (x86)/cypress/psoc creator/4.2/psoc creator/import/gnu/arm/5.4.1/bin/../lib/gcc/arm-none-eabi/5.4.1/../../../../arm-none-eabi/lib/armv7-m\libc_nano.a
END GROUP
LOAD c:/program files (x86)/cypress/psoc creator/4.2/psoc creator/import/gnu/arm/5.4.1/bin/../lib/gcc/arm-none-eabi/5.4.1/armv7-m/crtend.o
LOAD c:/program files (x86)/cypress/psoc creator/4.2/psoc creator/import/gnu/arm/5.4.1/bin/../lib/gcc/arm-none-eabi/5.4.1/armv7-m/crtn.o
START GROUP
LOAD c:/program files (x86)/cypress/psoc creator/4.2/psoc creator/import/gnu/arm/5.4.1/bin/../lib/gcc/arm-none-eabi/5.4.1/armv7-m\libgcc.a
LOAD c:/program files (x86)/cypress/psoc creator/4.2/psoc creator/import/gnu/arm/5.4.1/bin/../lib/gcc/arm-none-eabi/5.4.1/../../../../arm-none-eabi/lib/armv7-m\libc.a
LOAD c:/program files (x86)/cypress/psoc creator/4.2/psoc creator/import/gnu/arm/5.4.1/bin/../lib/gcc/arm-none-eabi/5.4.1/../../../../arm-none-eabi/lib/armv7-m\libnosys.a
END GROUP
                0x00000000                CY_APPL_ORIGIN = 0x0
                0x00000100                CY_FLASH_ROW_SIZE = 0x100
                0x00000020                CY_ECC_ROW_SIZE = 0x20
                0x00000000                CY_EE_IN_BTLDR = 0x0
                0x00000000                CY_APPL_LOADABLE = 0x0
                0x00000800                CY_EE_SIZE = 0x800
                0x00000001                CY_APPL_NUM = 0x1
                0x00000001                CY_APPL_MAX = 0x1
                0x00000040                CY_METADATA_SIZE = 0x40
                0x00000000                CY_APPL_LOADABLE = 0x0
                0x00000000                CY_CHECKSUM_EXCLUDE_SIZE = ALIGN (0x0, CY_FLASH_ROW_SIZE)
                [!provide]                PROVIDE (__cy_heap_start, _end)
                0x00000001                PROVIDE (__cy_region_num, ((__cy_regions_end - __cy_regions) / 0x10))
                0x20008000                PROVIDE (__cy_stack, (ORIGIN (ram) + LENGTH (ram)))
                [!provide]                PROVIDE (__cy_heap_end, (__cy_stack - 0x800))

.cybootloader   0x00000000        0x0
 *(.cybootloader)
                0x00000000                appl1_start = CY_APPL_ORIGIN?CY_APPL_ORIGIN:ALIGN (CY_FLASH_ROW_SIZE)
                0x0001ff00                appl2_start = (appl1_start + ALIGN ((((LENGTH (rom) - appl1_start) - (0x2 * CY_FLASH_ROW_SIZE)) / 0x2), CY_FLASH_ROW_SIZE))
                0x00000000                appl_start = (CY_APPL_NUM == 0x1)?appl1_start:appl2_start
                0x00000000                ecc_offset = ((appl_start / CY_FLASH_ROW_SIZE) * CY_ECC_ROW_SIZE)
                0x00000000                ee_offset = (CY_APPL_LOADABLE && ! (CY_EE_IN_BTLDR))?((CY_EE_SIZE / CY_APPL_MAX) * (CY_APPL_NUM - 0x1)):0x0
                0x00000800                ee_size = (CY_APPL_LOADABLE && ! (CY_EE_IN_BTLDR))?(CY_EE_SIZE / CY_APPL_MAX):CY_EE_SIZE
                [!provide]                PROVIDE (CY_ECC_OFFSET, ecc_offset)

.text           0x00000000     0x2afe
 CREATE_OBJECT_SYMBOLS
                0x00000000                PROVIDE (__cy_interrupt_vector, RomVectors)
 *(.romvectors)
 .romvectors    0x00000000       0x10 .\CortexM3\ARM_GCC_541\Debug\Cm3Start.o
                0x00000000                RomVectors
                0x00000001                ASSERT ((. != __cy_interrupt_vector), No interrupt vector)
                0x00000001                ASSERT (CY_APPL_ORIGIN?(SIZEOF (.cybootloader) <= CY_APPL_ORIGIN):0x1, Wrong image location)
                0x00000010                PROVIDE (__cy_reset, Reset)
 *(.text.Reset)
 .text.Reset    0x00000010       0x18 .\CortexM3\ARM_GCC_541\Debug\Cm3Start.o
                0x00000010                Reset
                0x00000001                ASSERT ((. != __cy_reset), No reset code)
 *(.dma_init)
                0x00000001                ASSERT ((((appl_start + .) <= 0x10000) || 0x1), DMA Init must be within the first 64k of flash)
 *(.text .text.* .gnu.linkonce.t.*)
 .text          0x00000028       0x5c c:/program files (x86)/cypress/psoc creator/4.2/psoc creator/import/gnu/arm/5.4.1/bin/../lib/gcc/arm-none-eabi/5.4.1/armv7-m/crtbegin.o
 .text.S1_handler
                0x00000084       0x60 .\CortexM3\ARM_GCC_541\Debug\main.o
                0x00000084                S1_handler
 .text.S2_handler
                0x000000e4       0x60 .\CortexM3\ARM_GCC_541\Debug\main.o
                0x000000e4                S2_handler
 .text.S3_handler
                0x00000144       0x60 .\CortexM3\ARM_GCC_541\Debug\main.o
                0x00000144                S3_handler
 .text.S4_handler
                0x000001a4       0x60 .\CortexM3\ARM_GCC_541\Debug\main.o
                0x000001a4                S4_handler
 .text.interrupt6_handler
                0x00000204       0x2c .\CortexM3\ARM_GCC_541\Debug\main.o
                0x00000204                interrupt6_handler
 .text.encode_sync
                0x00000230       0x8c .\CortexM3\ARM_GCC_541\Debug\main.o
                0x00000230                encode_sync
 .text.motorcontrl
                0x000002bc      0x220 .\CortexM3\ARM_GCC_541\Debug\main.o
                0x000002bc                motorcontrl
 .text.move_straight
                0x000004dc       0x9c .\CortexM3\ARM_GCC_541\Debug\main.o
                0x000004dc                move_straight
 .text.turn     0x00000578       0x8c .\CortexM3\ARM_GCC_541\Debug\main.o
                0x00000578                turn
 .text.wall_allignment
                0x00000604       0x74 .\CortexM3\ARM_GCC_541\Debug\main.o
                0x00000604                wall_allignment
 .text.start_measure
                0x00000678       0x38 .\CortexM3\ARM_GCC_541\Debug\main.o
                0x00000678                start_measure
 .text.Initialize
                0x000006b0       0x74 .\CortexM3\ARM_GCC_541\Debug\main.o
                0x000006b0                Initialize
 .text.select_color
                0x00000724       0x48 .\CortexM3\ARM_GCC_541\Debug\main.o
                0x00000724                select_color
 .text.get_frequency
                0x0000076c       0x28 .\CortexM3\ARM_GCC_541\Debug\main.o
                0x0000076c                get_frequency
 .text.color_sense
                0x00000794       0x44 .\CortexM3\ARM_GCC_541\Debug\main.o
                0x00000794                color_sense
 .text.baseRoute
                0x000007d8       0x6c .\CortexM3\ARM_GCC_541\Debug\main.o
                0x000007d8                baseRoute
 .text.searchPuck
                0x00000844      0x340 .\CortexM3\ARM_GCC_541\Debug\main.o
                0x00000844                searchPuck
 .text.grabPuck
                0x00000b84       0x30 .\CortexM3\ARM_GCC_541\Debug\main.o
                0x00000b84                grabPuck
 .text.back2Base
                0x00000bb4       0xec .\CortexM3\ARM_GCC_541\Debug\main.o
                0x00000bb4                back2Base
 .text.sortPuck
                0x00000ca0       0xb8 .\CortexM3\ARM_GCC_541\Debug\main.o
                0x00000ca0                sortPuck
 .text.back2Zone
                0x00000d58       0xec .\CortexM3\ARM_GCC_541\Debug\main.o
                0x00000d58                back2Zone
 .text.main     0x00000e44       0x7c .\CortexM3\ARM_GCC_541\Debug\main.o
                0x00000e44                main
 .text.CyClockStartupError
                0x00000ec0        0x4 .\CortexM3\ARM_GCC_541\Debug\cyfitter_cfg.o
 .text.cfg_write_bytes32
                0x00000ec4       0x34 .\CortexM3\ARM_GCC_541\Debug\cyfitter_cfg.o
 .text.AnalogSetDefault
                0x00000ef8       0x28 .\CortexM3\ARM_GCC_541\Debug\cyfitter_cfg.o
 .text.CYMEMZERO
                0x00000f20        0xc .\CortexM3\ARM_GCC_541\Debug\cyfitter_cfg.o
 .text.ClockSetup
                0x00000f2c      0x104 .\CortexM3\ARM_GCC_541\Debug\cyfitter_cfg.o
 .text.CYCONFIGCPY
                0x00001030        0x8 .\CortexM3\ARM_GCC_541\Debug\cyfitter_cfg.o
 .text.cyfitter_cfg
                0x00001038      0x17c .\CortexM3\ARM_GCC_541\Debug\cyfitter_cfg.o
                0x00001038                cyfitter_cfg
 .text.IntDefaultHandler
                0x000011b4       0x10 .\CortexM3\ARM_GCC_541\Debug\Cm3Start.o
                0x000011b4                IntDefaultHandler
 .text.Start_c  0x000011c4       0x4c .\CortexM3\ARM_GCC_541\Debug\Cm3Start.o
                0x000011c4                Start_c
 .text.initialize_psoc
                0x00001210       0x68 .\CortexM3\ARM_GCC_541\Debug\Cm3Start.o
                0x00001210                initialize_psoc
 .text.QuadDec_L_Init
                0x00001278       0x24 .\CortexM3\ARM_GCC_541\Debug\Test_01.a(QuadDec_L.o)
                0x00001278                QuadDec_L_Init
 .text.QuadDec_L_GetCounter
                0x0000129c       0x2c .\CortexM3\ARM_GCC_541\Debug\Test_01.a(QuadDec_L.o)
                0x0000129c                QuadDec_L_GetCounter
 .text.QuadDec_L_SetCounter
                0x000012c8       0x28 .\CortexM3\ARM_GCC_541\Debug\Test_01.a(QuadDec_L.o)
                0x000012c8                QuadDec_L_SetCounter
 .text.QuadDec_L_GetEvents
                0x000012f0       0x10 .\CortexM3\ARM_GCC_541\Debug\Test_01.a(QuadDec_L.o)
                0x000012f0                QuadDec_L_GetEvents
 .text.QuadDec_L_SetInterruptMask
                0x00001300       0x10 .\CortexM3\ARM_GCC_541\Debug\Test_01.a(QuadDec_L.o)
                0x00001300                QuadDec_L_SetInterruptMask
 .text.QuadDec_L_Enable
                0x00001310       0x30 .\CortexM3\ARM_GCC_541\Debug\Test_01.a(QuadDec_L.o)
                0x00001310                QuadDec_L_Enable
 .text.QuadDec_L_Start
                0x00001340       0x34 .\CortexM3\ARM_GCC_541\Debug\Test_01.a(QuadDec_L.o)
                0x00001340                QuadDec_L_Start
 .text.QuadDec_L_ISR
                0x00001374       0x40 .\CortexM3\ARM_GCC_541\Debug\Test_01.a(QuadDec_L_INT.o)
                0x00001374                QuadDec_L_ISR
 .text.QuadDec_R_Init
                0x000013b4       0x24 .\CortexM3\ARM_GCC_541\Debug\Test_01.a(QuadDec_R.o)
                0x000013b4                QuadDec_R_Init
 .text.QuadDec_R_GetCounter
                0x000013d8       0x2c .\CortexM3\ARM_GCC_541\Debug\Test_01.a(QuadDec_R.o)
                0x000013d8                QuadDec_R_GetCounter
 .text.QuadDec_R_SetCounter
                0x00001404       0x28 .\CortexM3\ARM_GCC_541\Debug\Test_01.a(QuadDec_R.o)
                0x00001404                QuadDec_R_SetCounter
 .text.QuadDec_R_GetEvents
                0x0000142c       0x10 .\CortexM3\ARM_GCC_541\Debug\Test_01.a(QuadDec_R.o)
                0x0000142c                QuadDec_R_GetEvents
 .text.QuadDec_R_SetInterruptMask
                0x0000143c       0x10 .\CortexM3\ARM_GCC_541\Debug\Test_01.a(QuadDec_R.o)
                0x0000143c                QuadDec_R_SetInterruptMask
 .text.QuadDec_R_Enable
                0x0000144c       0x30 .\CortexM3\ARM_GCC_541\Debug\Test_01.a(QuadDec_R.o)
                0x0000144c                QuadDec_R_Enable
 .text.QuadDec_R_Start
                0x0000147c       0x34 .\CortexM3\ARM_GCC_541\Debug\Test_01.a(QuadDec_R.o)
                0x0000147c                QuadDec_R_Start
 .text.QuadDec_R_ISR
                0x000014b0       0x40 .\CortexM3\ARM_GCC_541\Debug\Test_01.a(QuadDec_R_INT.o)
                0x000014b0                QuadDec_R_ISR
 .text.Forward_L_Write
                0x000014f0       0x18 .\CortexM3\ARM_GCC_541\Debug\Test_01.a(Forward_L.o)
                0x000014f0                Forward_L_Write
 .text.Backward_L_Write
                0x00001508       0x18 .\CortexM3\ARM_GCC_541\Debug\Test_01.a(Backward_L.o)
                0x00001508                Backward_L_Write
 .text.Forwad_R_Write
                0x00001520       0x18 .\CortexM3\ARM_GCC_541\Debug\Test_01.a(Forwad_R.o)
                0x00001520                Forwad_R_Write
 .text.Backward_R_Write
                0x00001538       0x18 .\CortexM3\ARM_GCC_541\Debug\Test_01.a(Backward_R.o)
                0x00001538                Backward_R_Write
 .text.limitSW_2_Read
                0x00001550       0x10 .\CortexM3\ARM_GCC_541\Debug\Test_01.a(limitSW_2.o)
                0x00001550                limitSW_2_Read
 .text.limitSW_1_Read
                0x00001560       0x10 .\CortexM3\ARM_GCC_541\Debug\Test_01.a(limitSW_1.o)
                0x00001560                limitSW_1_Read
 .text.S1_Echo_Read
                0x00001570       0x10 .\CortexM3\ARM_GCC_541\Debug\Test_01.a(S1_Echo.o)
                0x00001570                S1_Echo_Read
 .text.S1_Trigger_Write
                0x00001580       0x18 .\CortexM3\ARM_GCC_541\Debug\Test_01.a(S1_Trigger.o)
                0x00001580                S1_Trigger_Write
 .text.isr_1_SetVector
                0x00001598        0xc .\CortexM3\ARM_GCC_541\Debug\Test_01.a(isr_1.o)
                0x00001598                isr_1_SetVector
 .text.isr_1_SetPriority
                0x000015a4       0x10 .\CortexM3\ARM_GCC_541\Debug\Test_01.a(isr_1.o)
                0x000015a4                isr_1_SetPriority
 .text.isr_1_Enable
                0x000015b4        0xc .\CortexM3\ARM_GCC_541\Debug\Test_01.a(isr_1.o)
                0x000015b4                isr_1_Enable
 .text.isr_1_Disable
                0x000015c0        0xc .\CortexM3\ARM_GCC_541\Debug\Test_01.a(isr_1.o)
                0x000015c0                isr_1_Disable
 .text.isr_1_StartEx
                0x000015cc       0x1c .\CortexM3\ARM_GCC_541\Debug\Test_01.a(isr_1.o)
                0x000015cc                isr_1_StartEx
 .text.isr_2_SetVector
                0x000015e8        0xc .\CortexM3\ARM_GCC_541\Debug\Test_01.a(isr_2.o)
                0x000015e8                isr_2_SetVector
 .text.isr_2_SetPriority
                0x000015f4       0x10 .\CortexM3\ARM_GCC_541\Debug\Test_01.a(isr_2.o)
                0x000015f4                isr_2_SetPriority
 .text.isr_2_Enable
                0x00001604        0xc .\CortexM3\ARM_GCC_541\Debug\Test_01.a(isr_2.o)
                0x00001604                isr_2_Enable
 .text.isr_2_Disable
                0x00001610        0xc .\CortexM3\ARM_GCC_541\Debug\Test_01.a(isr_2.o)
                0x00001610                isr_2_Disable
 .text.isr_2_StartEx
                0x0000161c       0x1c .\CortexM3\ARM_GCC_541\Debug\Test_01.a(isr_2.o)
                0x0000161c                isr_2_StartEx
 .text.Color_Timer_Enable
                0x00001638       0x10 .\CortexM3\ARM_GCC_541\Debug\Test_01.a(Color_Timer.o)
                0x00001638                Color_Timer_Enable
 .text.Color_Timer_Stop
                0x00001648       0x10 .\CortexM3\ARM_GCC_541\Debug\Test_01.a(Color_Timer.o)
                0x00001648                Color_Timer_Stop
 .text.Color_Timer_SetInterruptMode
                0x00001658        0xc .\CortexM3\ARM_GCC_541\Debug\Test_01.a(Color_Timer.o)
                0x00001658                Color_Timer_SetInterruptMode
 .text.Color_Timer_ReadStatusRegister
                0x00001664        0xc .\CortexM3\ARM_GCC_541\Debug\Test_01.a(Color_Timer.o)
                0x00001664                Color_Timer_ReadStatusRegister
 .text.Color_Timer_WritePeriod
                0x00001670        0xc .\CortexM3\ARM_GCC_541\Debug\Test_01.a(Color_Timer.o)
                0x00001670                Color_Timer_WritePeriod
 .text.Color_Timer_ReadCapture
                0x0000167c        0xc .\CortexM3\ARM_GCC_541\Debug\Test_01.a(Color_Timer.o)
                0x0000167c                Color_Timer_ReadCapture
 .text.Color_Timer_WriteCounter
                0x00001688        0xc .\CortexM3\ARM_GCC_541\Debug\Test_01.a(Color_Timer.o)
                0x00001688                Color_Timer_WriteCounter
 .text.Color_Timer_ClearFIFO
                0x00001694       0x14 .\CortexM3\ARM_GCC_541\Debug\Test_01.a(Color_Timer.o)
                0x00001694                Color_Timer_ClearFIFO
 .text.Color_Timer_Init
                0x000016a8       0x34 .\CortexM3\ARM_GCC_541\Debug\Test_01.a(Color_Timer.o)
                0x000016a8                Color_Timer_Init
 .text.Color_Timer_Start
                0x000016dc       0x1c .\CortexM3\ARM_GCC_541\Debug\Test_01.a(Color_Timer.o)
                0x000016dc                Color_Timer_Start
 .text.Control_Reg_Color_Write
                0x000016f8        0xc .\CortexM3\ARM_GCC_541\Debug\Test_01.a(Control_Reg_Color.o)
                0x000016f8                Control_Reg_Color_Write
 .text.Color_S0_Write
                0x00001704       0x18 .\CortexM3\ARM_GCC_541\Debug\Test_01.a(Color_S0.o)
                0x00001704                Color_S0_Write
 .text.Color_S1_Write
                0x0000171c       0x18 .\CortexM3\ARM_GCC_541\Debug\Test_01.a(Color_S1.o)
                0x0000171c                Color_S1_Write
 .text.Color_S2_Write
                0x00001734       0x18 .\CortexM3\ARM_GCC_541\Debug\Test_01.a(Color_S2.o)
                0x00001734                Color_S2_Write
 .text.Color_S3_Write
                0x0000174c       0x18 .\CortexM3\ARM_GCC_541\Debug\Test_01.a(Color_S3.o)
                0x0000174c                Color_S3_Write
 .text.Color_LED_Write
                0x00001764       0x18 .\CortexM3\ARM_GCC_541\Debug\Test_01.a(Color_LED.o)
                0x00001764                Color_LED_Write
 .text.RED_LED_Write
                0x0000177c       0x18 .\CortexM3\ARM_GCC_541\Debug\Test_01.a(RED_LED.o)
                0x0000177c                RED_LED_Write
 .text.BLUE_LED_Write
                0x00001794       0x18 .\CortexM3\ARM_GCC_541\Debug\Test_01.a(BLUE_LED.o)
                0x00001794                BLUE_LED_Write
 .text.QuadDec_L_Cnt16_Enable
                0x000017ac       0x10 .\CortexM3\ARM_GCC_541\Debug\Test_01.a(QuadDec_L_Cnt16.o)
                0x000017ac                QuadDec_L_Cnt16_Enable
 .text.QuadDec_L_Cnt16_SetInterruptMode
                0x000017bc        0xc .\CortexM3\ARM_GCC_541\Debug\Test_01.a(QuadDec_L_Cnt16.o)
                0x000017bc                QuadDec_L_Cnt16_SetInterruptMode
 .text.QuadDec_L_Cnt16_ReadStatusRegister
                0x000017c8        0xc .\CortexM3\ARM_GCC_541\Debug\Test_01.a(QuadDec_L_Cnt16.o)
                0x000017c8                QuadDec_L_Cnt16_ReadStatusRegister
 .text.QuadDec_L_Cnt16_WriteCounter
                0x000017d4        0xc .\CortexM3\ARM_GCC_541\Debug\Test_01.a(QuadDec_L_Cnt16.o)
                0x000017d4                QuadDec_L_Cnt16_WriteCounter
 .text.QuadDec_L_Cnt16_ReadCounter
                0x000017e0       0x14 .\CortexM3\ARM_GCC_541\Debug\Test_01.a(QuadDec_L_Cnt16.o)
                0x000017e0                QuadDec_L_Cnt16_ReadCounter
 .text.QuadDec_L_Cnt16_ReadCapture
                0x000017f4        0xc .\CortexM3\ARM_GCC_541\Debug\Test_01.a(QuadDec_L_Cnt16.o)
                0x000017f4                QuadDec_L_Cnt16_ReadCapture
 .text.QuadDec_L_Cnt16_WritePeriod
                0x00001800        0xc .\CortexM3\ARM_GCC_541\Debug\Test_01.a(QuadDec_L_Cnt16.o)
                0x00001800                QuadDec_L_Cnt16_WritePeriod
 .text.QuadDec_L_Cnt16_WriteCompare
                0x0000180c        0xc .\CortexM3\ARM_GCC_541\Debug\Test_01.a(QuadDec_L_Cnt16.o)
                0x0000180c                QuadDec_L_Cnt16_WriteCompare
 .text.QuadDec_L_Cnt16_ClearFIFO
                0x00001818       0x14 .\CortexM3\ARM_GCC_541\Debug\Test_01.a(QuadDec_L_Cnt16.o)
                0x00001818                QuadDec_L_Cnt16_ClearFIFO
 .text.QuadDec_L_Cnt16_Init
                0x0000182c       0x58 .\CortexM3\ARM_GCC_541\Debug\Test_01.a(QuadDec_L_Cnt16.o)
                0x0000182c                QuadDec_L_Cnt16_Init
 .text.QuadDec_L_Cnt16_Start
                0x00001884       0x1c .\CortexM3\ARM_GCC_541\Debug\Test_01.a(QuadDec_L_Cnt16.o)
                0x00001884                QuadDec_L_Cnt16_Start
 .text.QuadDec_R_Cnt16_Enable
                0x000018a0       0x10 .\CortexM3\ARM_GCC_541\Debug\Test_01.a(QuadDec_R_Cnt16.o)
                0x000018a0                QuadDec_R_Cnt16_Enable
 .text.QuadDec_R_Cnt16_SetInterruptMode
                0x000018b0        0xc .\CortexM3\ARM_GCC_541\Debug\Test_01.a(QuadDec_R_Cnt16.o)
                0x000018b0                QuadDec_R_Cnt16_SetInterruptMode
 .text.QuadDec_R_Cnt16_ReadStatusRegister
                0x000018bc        0xc .\CortexM3\ARM_GCC_541\Debug\Test_01.a(QuadDec_R_Cnt16.o)
                0x000018bc                QuadDec_R_Cnt16_ReadStatusRegister
 .text.QuadDec_R_Cnt16_WriteCounter
                0x000018c8        0xc .\CortexM3\ARM_GCC_541\Debug\Test_01.a(QuadDec_R_Cnt16.o)
                0x000018c8                QuadDec_R_Cnt16_WriteCounter
 .text.QuadDec_R_Cnt16_ReadCounter
                0x000018d4       0x14 .\CortexM3\ARM_GCC_541\Debug\Test_01.a(QuadDec_R_Cnt16.o)
                0x000018d4                QuadDec_R_Cnt16_ReadCounter
 .text.QuadDec_R_Cnt16_ReadCapture
                0x000018e8        0xc .\CortexM3\ARM_GCC_541\Debug\Test_01.a(QuadDec_R_Cnt16.o)
                0x000018e8                QuadDec_R_Cnt16_ReadCapture
 .text.QuadDec_R_Cnt16_WritePeriod
                0x000018f4        0xc .\CortexM3\ARM_GCC_541\Debug\Test_01.a(QuadDec_R_Cnt16.o)
                0x000018f4                QuadDec_R_Cnt16_WritePeriod
 .text.QuadDec_R_Cnt16_WriteCompare
                0x00001900        0xc .\CortexM3\ARM_GCC_541\Debug\Test_01.a(QuadDec_R_Cnt16.o)
                0x00001900                QuadDec_R_Cnt16_WriteCompare
 .text.QuadDec_R_Cnt16_ClearFIFO
                0x0000190c       0x14 .\CortexM3\ARM_GCC_541\Debug\Test_01.a(QuadDec_R_Cnt16.o)
                0x0000190c                QuadDec_R_Cnt16_ClearFIFO
 .text.QuadDec_R_Cnt16_Init
                0x00001920       0x58 .\CortexM3\ARM_GCC_541\Debug\Test_01.a(QuadDec_R_Cnt16.o)
                0x00001920                QuadDec_R_Cnt16_Init
 .text.QuadDec_R_Cnt16_Start
                0x00001978       0x1c .\CortexM3\ARM_GCC_541\Debug\Test_01.a(QuadDec_R_Cnt16.o)
                0x00001978                QuadDec_R_Cnt16_Start
 .text.CyHalt   0x00001994        0x4 .\CortexM3\ARM_GCC_541\Debug\Test_01.a(CyLib.o)
                0x00001994                CyHalt
 .text.CyDelay  0x00001998       0x2c .\CortexM3\ARM_GCC_541\Debug\Test_01.a(CyLib.o)
                0x00001998                CyDelay
 .text.CyDelayUs
                0x000019c4       0x14 .\CortexM3\ARM_GCC_541\Debug\Test_01.a(CyLib.o)
                0x000019c4                CyDelayUs
 .text.CyIntSetVector
                0x000019d8       0x28 .\CortexM3\ARM_GCC_541\Debug\Test_01.a(CyLib.o)
                0x000019d8                CyIntSetVector
 .text.CyIntSetPriority
                0x00001a00       0x30 .\CortexM3\ARM_GCC_541\Debug\Test_01.a(CyLib.o)
                0x00001a00                CyIntSetPriority
 .text.UART_Init
                0x00001a30       0x28 .\CortexM3\ARM_GCC_541\Debug\Test_01.a(UART.o)
                0x00001a30                UART_Init
 .text.UART_Enable
                0x00001a58       0x38 .\CortexM3\ARM_GCC_541\Debug\Test_01.a(UART.o)
                0x00001a58                UART_Enable
 .text.UART_Start
                0x00001a90       0x1c .\CortexM3\ARM_GCC_541\Debug\Test_01.a(UART.o)
                0x00001a90                UART_Start
 .text.Color_Counter_Enable
                0x00001aac       0x10 .\CortexM3\ARM_GCC_541\Debug\Test_01.a(Color_Counter.o)
                0x00001aac                Color_Counter_Enable
 .text.Color_Counter_Stop
                0x00001abc       0x10 .\CortexM3\ARM_GCC_541\Debug\Test_01.a(Color_Counter.o)
                0x00001abc                Color_Counter_Stop
 .text.Color_Counter_SetInterruptMode
                0x00001acc        0xc .\CortexM3\ARM_GCC_541\Debug\Test_01.a(Color_Counter.o)
                0x00001acc                Color_Counter_SetInterruptMode
 .text.Color_Counter_ReadStatusRegister
                0x00001ad8        0xc .\CortexM3\ARM_GCC_541\Debug\Test_01.a(Color_Counter.o)
                0x00001ad8                Color_Counter_ReadStatusRegister
 .text.Color_Counter_WriteCounter
                0x00001ae4        0xc .\CortexM3\ARM_GCC_541\Debug\Test_01.a(Color_Counter.o)
                0x00001ae4                Color_Counter_WriteCounter
 .text.Color_Counter_ReadCounter
                0x00001af0       0x14 .\CortexM3\ARM_GCC_541\Debug\Test_01.a(Color_Counter.o)
                0x00001af0                Color_Counter_ReadCounter
 .text.Color_Counter_ReadCapture
                0x00001b04        0xc .\CortexM3\ARM_GCC_541\Debug\Test_01.a(Color_Counter.o)
                0x00001b04                Color_Counter_ReadCapture
 .text.Color_Counter_WritePeriod
                0x00001b10        0xc .\CortexM3\ARM_GCC_541\Debug\Test_01.a(Color_Counter.o)
                0x00001b10                Color_Counter_WritePeriod
 .text.Color_Counter_WriteCompare
                0x00001b1c        0xc .\CortexM3\ARM_GCC_541\Debug\Test_01.a(Color_Counter.o)
                0x00001b1c                Color_Counter_WriteCompare
 .text.Color_Counter_ClearFIFO
                0x00001b28       0x14 .\CortexM3\ARM_GCC_541\Debug\Test_01.a(Color_Counter.o)
                0x00001b28                Color_Counter_ClearFIFO
 .text.Color_Counter_Init
                0x00001b3c       0x5c .\CortexM3\ARM_GCC_541\Debug\Test_01.a(Color_Counter.o)
                0x00001b3c                Color_Counter_Init
 .text.Color_Counter_Start
                0x00001b98       0x1c .\CortexM3\ARM_GCC_541\Debug\Test_01.a(Color_Counter.o)
                0x00001b98                Color_Counter_Start
 .text.UART_IntClock_Start
                0x00001bb4       0x1c .\CortexM3\ARM_GCC_541\Debug\Test_01.a(UART_IntClock.o)
                0x00001bb4                UART_IntClock_Start
 .text.S1_Timer_Enable
                0x00001bd0       0x10 .\CortexM3\ARM_GCC_541\Debug\Test_01.a(S1_Timer.o)
                0x00001bd0                S1_Timer_Enable
 .text.S1_Timer_SetInterruptMode
                0x00001be0        0xc .\CortexM3\ARM_GCC_541\Debug\Test_01.a(S1_Timer.o)
                0x00001be0                S1_Timer_SetInterruptMode
 .text.S1_Timer_ReadStatusRegister
                0x00001bec        0xc .\CortexM3\ARM_GCC_541\Debug\Test_01.a(S1_Timer.o)
                0x00001bec                S1_Timer_ReadStatusRegister
 .text.S1_Timer_WritePeriod
                0x00001bf8        0xc .\CortexM3\ARM_GCC_541\Debug\Test_01.a(S1_Timer.o)
                0x00001bf8                S1_Timer_WritePeriod
 .text.S1_Timer_ReadCapture
                0x00001c04        0xc .\CortexM3\ARM_GCC_541\Debug\Test_01.a(S1_Timer.o)
                0x00001c04                S1_Timer_ReadCapture
 .text.S1_Timer_WriteCounter
                0x00001c10        0xc .\CortexM3\ARM_GCC_541\Debug\Test_01.a(S1_Timer.o)
                0x00001c10                S1_Timer_WriteCounter
 .text.S1_Timer_ReadCounter
                0x00001c1c       0x14 .\CortexM3\ARM_GCC_541\Debug\Test_01.a(S1_Timer.o)
                0x00001c1c                S1_Timer_ReadCounter
 .text.S1_Timer_SetInterruptCount
                0x00001c30       0x1c .\CortexM3\ARM_GCC_541\Debug\Test_01.a(S1_Timer.o)
                0x00001c30                S1_Timer_SetInterruptCount
 .text.S1_Timer_ClearFIFO
                0x00001c4c       0x14 .\CortexM3\ARM_GCC_541\Debug\Test_01.a(S1_Timer.o)
                0x00001c4c                S1_Timer_ClearFIFO
 .text.S1_Timer_Init
                0x00001c60       0x3c .\CortexM3\ARM_GCC_541\Debug\Test_01.a(S1_Timer.o)
                0x00001c60                S1_Timer_Init
 .text.S1_Timer_Start
                0x00001c9c       0x1c .\CortexM3\ARM_GCC_541\Debug\Test_01.a(S1_Timer.o)
                0x00001c9c                S1_Timer_Start
 .text.isr_3_SetVector
                0x00001cb8        0xc .\CortexM3\ARM_GCC_541\Debug\Test_01.a(isr_3.o)
                0x00001cb8                isr_3_SetVector
 .text.isr_3_SetPriority
                0x00001cc4       0x10 .\CortexM3\ARM_GCC_541\Debug\Test_01.a(isr_3.o)
                0x00001cc4                isr_3_SetPriority
 .text.isr_3_Enable
                0x00001cd4        0xc .\CortexM3\ARM_GCC_541\Debug\Test_01.a(isr_3.o)
                0x00001cd4                isr_3_Enable
 .text.isr_3_Disable
                0x00001ce0        0xc .\CortexM3\ARM_GCC_541\Debug\Test_01.a(isr_3.o)
                0x00001ce0                isr_3_Disable
 .text.isr_3_StartEx
                0x00001cec       0x1c .\CortexM3\ARM_GCC_541\Debug\Test_01.a(isr_3.o)
                0x00001cec                isr_3_StartEx
 .text.S2_Timer_Enable
                0x00001d08       0x10 .\CortexM3\ARM_GCC_541\Debug\Test_01.a(S2_Timer.o)
                0x00001d08                S2_Timer_Enable
 .text.S2_Timer_SetInterruptMode
                0x00001d18        0xc .\CortexM3\ARM_GCC_541\Debug\Test_01.a(S2_Timer.o)
                0x00001d18                S2_Timer_SetInterruptMode
 .text.S2_Timer_ReadStatusRegister
                0x00001d24        0xc .\CortexM3\ARM_GCC_541\Debug\Test_01.a(S2_Timer.o)
                0x00001d24                S2_Timer_ReadStatusRegister
 .text.S2_Timer_WritePeriod
                0x00001d30        0xc .\CortexM3\ARM_GCC_541\Debug\Test_01.a(S2_Timer.o)
                0x00001d30                S2_Timer_WritePeriod
 .text.S2_Timer_ReadCapture
                0x00001d3c        0xc .\CortexM3\ARM_GCC_541\Debug\Test_01.a(S2_Timer.o)
                0x00001d3c                S2_Timer_ReadCapture
 .text.S2_Timer_WriteCounter
                0x00001d48        0xc .\CortexM3\ARM_GCC_541\Debug\Test_01.a(S2_Timer.o)
                0x00001d48                S2_Timer_WriteCounter
 .text.S2_Timer_ReadCounter
                0x00001d54       0x14 .\CortexM3\ARM_GCC_541\Debug\Test_01.a(S2_Timer.o)
                0x00001d54                S2_Timer_ReadCounter
 .text.S2_Timer_SetInterruptCount
                0x00001d68       0x1c .\CortexM3\ARM_GCC_541\Debug\Test_01.a(S2_Timer.o)
                0x00001d68                S2_Timer_SetInterruptCount
 .text.S2_Timer_ClearFIFO
                0x00001d84       0x14 .\CortexM3\ARM_GCC_541\Debug\Test_01.a(S2_Timer.o)
                0x00001d84                S2_Timer_ClearFIFO
 .text.S2_Timer_Init
                0x00001d98       0x3c .\CortexM3\ARM_GCC_541\Debug\Test_01.a(S2_Timer.o)
                0x00001d98                S2_Timer_Init
 .text.S2_Timer_Start
                0x00001dd4       0x1c .\CortexM3\ARM_GCC_541\Debug\Test_01.a(S2_Timer.o)
                0x00001dd4                S2_Timer_Start
 .text.S2_Echo_Read
                0x00001df0       0x10 .\CortexM3\ARM_GCC_541\Debug\Test_01.a(S2_Echo.o)
                0x00001df0                S2_Echo_Read
 .text.S2_Trigger_Write
                0x00001e00       0x18 .\CortexM3\ARM_GCC_541\Debug\Test_01.a(S2_Trigger.o)
                0x00001e00                S2_Trigger_Write
 .text.isr_4_SetVector
                0x00001e18        0xc .\CortexM3\ARM_GCC_541\Debug\Test_01.a(isr_4.o)
                0x00001e18                isr_4_SetVector
 .text.isr_4_SetPriority
                0x00001e24       0x10 .\CortexM3\ARM_GCC_541\Debug\Test_01.a(isr_4.o)
                0x00001e24                isr_4_SetPriority
 .text.isr_4_Enable
                0x00001e34        0xc .\CortexM3\ARM_GCC_541\Debug\Test_01.a(isr_4.o)
                0x00001e34                isr_4_Enable
 .text.isr_4_Disable
                0x00001e40        0xc .\CortexM3\ARM_GCC_541\Debug\Test_01.a(isr_4.o)
                0x00001e40                isr_4_Disable
 .text.isr_4_StartEx
                0x00001e4c       0x1c .\CortexM3\ARM_GCC_541\Debug\Test_01.a(isr_4.o)
                0x00001e4c                isr_4_StartEx
 .text.S3_Timer_Enable
                0x00001e68       0x10 .\CortexM3\ARM_GCC_541\Debug\Test_01.a(S3_Timer.o)
                0x00001e68                S3_Timer_Enable
 .text.S3_Timer_SetInterruptMode
                0x00001e78        0xc .\CortexM3\ARM_GCC_541\Debug\Test_01.a(S3_Timer.o)
                0x00001e78                S3_Timer_SetInterruptMode
 .text.S3_Timer_ReadStatusRegister
                0x00001e84        0xc .\CortexM3\ARM_GCC_541\Debug\Test_01.a(S3_Timer.o)
                0x00001e84                S3_Timer_ReadStatusRegister
 .text.S3_Timer_WritePeriod
                0x00001e90        0xc .\CortexM3\ARM_GCC_541\Debug\Test_01.a(S3_Timer.o)
                0x00001e90                S3_Timer_WritePeriod
 .text.S3_Timer_ReadCapture
                0x00001e9c        0xc .\CortexM3\ARM_GCC_541\Debug\Test_01.a(S3_Timer.o)
                0x00001e9c                S3_Timer_ReadCapture
 .text.S3_Timer_WriteCounter
                0x00001ea8        0xc .\CortexM3\ARM_GCC_541\Debug\Test_01.a(S3_Timer.o)
                0x00001ea8                S3_Timer_WriteCounter
 .text.S3_Timer_ReadCounter
                0x00001eb4       0x14 .\CortexM3\ARM_GCC_541\Debug\Test_01.a(S3_Timer.o)
                0x00001eb4                S3_Timer_ReadCounter
 .text.S3_Timer_SetInterruptCount
                0x00001ec8       0x1c .\CortexM3\ARM_GCC_541\Debug\Test_01.a(S3_Timer.o)
                0x00001ec8                S3_Timer_SetInterruptCount
 .text.S3_Timer_ClearFIFO
                0x00001ee4       0x14 .\CortexM3\ARM_GCC_541\Debug\Test_01.a(S3_Timer.o)
                0x00001ee4                S3_Timer_ClearFIFO
 .text.S3_Timer_Init
                0x00001ef8       0x3c .\CortexM3\ARM_GCC_541\Debug\Test_01.a(S3_Timer.o)
                0x00001ef8                S3_Timer_Init
 .text.S3_Timer_Start
                0x00001f34       0x1c .\CortexM3\ARM_GCC_541\Debug\Test_01.a(S3_Timer.o)
                0x00001f34                S3_Timer_Start
 .text.S3_Trigger_Write
                0x00001f50       0x18 .\CortexM3\ARM_GCC_541\Debug\Test_01.a(S3_Trigger.o)
                0x00001f50                S3_Trigger_Write
 .text.S3_Echo_Read
                0x00001f68       0x10 .\CortexM3\ARM_GCC_541\Debug\Test_01.a(S3_Echo.o)
                0x00001f68                S3_Echo_Read
 .text.IR_Out_Read
                0x00001f78       0x10 .\CortexM3\ARM_GCC_541\Debug\Test_01.a(IR_Out.o)
                0x00001f78                IR_Out_Read
 .text.isr_6_SetVector
                0x00001f88        0xc .\CortexM3\ARM_GCC_541\Debug\Test_01.a(isr_6.o)
                0x00001f88                isr_6_SetVector
 .text.isr_6_SetPriority
                0x00001f94       0x10 .\CortexM3\ARM_GCC_541\Debug\Test_01.a(isr_6.o)
                0x00001f94                isr_6_SetPriority
 .text.isr_6_Enable
                0x00001fa4        0xc .\CortexM3\ARM_GCC_541\Debug\Test_01.a(isr_6.o)
                0x00001fa4                isr_6_Enable
 .text.isr_6_Disable
                0x00001fb0        0xc .\CortexM3\ARM_GCC_541\Debug\Test_01.a(isr_6.o)
                0x00001fb0                isr_6_Disable
 .text.isr_6_StartEx
                0x00001fbc       0x1c .\CortexM3\ARM_GCC_541\Debug\Test_01.a(isr_6.o)
                0x00001fbc                isr_6_StartEx
 .text.isr_6_ClearPending
                0x00001fd8        0xc .\CortexM3\ARM_GCC_541\Debug\Test_01.a(isr_6.o)
                0x00001fd8                isr_6_ClearPending
 .text.S4_Timer_Enable
                0x00001fe4       0x10 .\CortexM3\ARM_GCC_541\Debug\Test_01.a(S4_Timer.o)
                0x00001fe4                S4_Timer_Enable
 .text.S4_Timer_SetInterruptMode
                0x00001ff4        0xc .\CortexM3\ARM_GCC_541\Debug\Test_01.a(S4_Timer.o)
                0x00001ff4                S4_Timer_SetInterruptMode
 .text.S4_Timer_ReadStatusRegister
                0x00002000        0xc .\CortexM3\ARM_GCC_541\Debug\Test_01.a(S4_Timer.o)
                0x00002000                S4_Timer_ReadStatusRegister
 .text.S4_Timer_WritePeriod
                0x0000200c        0xc .\CortexM3\ARM_GCC_541\Debug\Test_01.a(S4_Timer.o)
                0x0000200c                S4_Timer_WritePeriod
 .text.S4_Timer_ReadCapture
                0x00002018        0xc .\CortexM3\ARM_GCC_541\Debug\Test_01.a(S4_Timer.o)
                0x00002018                S4_Timer_ReadCapture
 .text.S4_Timer_WriteCounter
                0x00002024        0xc .\CortexM3\ARM_GCC_541\Debug\Test_01.a(S4_Timer.o)
                0x00002024                S4_Timer_WriteCounter
 .text.S4_Timer_ReadCounter
                0x00002030       0x14 .\CortexM3\ARM_GCC_541\Debug\Test_01.a(S4_Timer.o)
                0x00002030                S4_Timer_ReadCounter
 .text.S4_Timer_SetInterruptCount
                0x00002044       0x1c .\CortexM3\ARM_GCC_541\Debug\Test_01.a(S4_Timer.o)
                0x00002044                S4_Timer_SetInterruptCount
 .text.S4_Timer_ClearFIFO
                0x00002060       0x14 .\CortexM3\ARM_GCC_541\Debug\Test_01.a(S4_Timer.o)
                0x00002060                S4_Timer_ClearFIFO
 .text.S4_Timer_Init
                0x00002074       0x3c .\CortexM3\ARM_GCC_541\Debug\Test_01.a(S4_Timer.o)
                0x00002074                S4_Timer_Init
 .text.S4_Timer_Start
                0x000020b0       0x1c .\CortexM3\ARM_GCC_541\Debug\Test_01.a(S4_Timer.o)
                0x000020b0                S4_Timer_Start
 .text.S4_Echo_Read
                0x000020cc       0x10 .\CortexM3\ARM_GCC_541\Debug\Test_01.a(S4_Echo.o)
                0x000020cc                S4_Echo_Read
 .text.S4_Trigger_Write
                0x000020dc       0x18 .\CortexM3\ARM_GCC_541\Debug\Test_01.a(S4_Trigger.o)
                0x000020dc                S4_Trigger_Write
 .text.PWM_Motor_Enable
                0x000020f4       0x10 .\CortexM3\ARM_GCC_541\Debug\Test_01.a(PWM_Motor.o)
                0x000020f4                PWM_Motor_Enable
 .text.PWM_Motor_WriteCounter
                0x00002104        0xc .\CortexM3\ARM_GCC_541\Debug\Test_01.a(PWM_Motor.o)
                0x00002104                PWM_Motor_WriteCounter
 .text.PWM_Motor_WritePeriod
                0x00002110        0xc .\CortexM3\ARM_GCC_541\Debug\Test_01.a(PWM_Motor.o)
                0x00002110                PWM_Motor_WritePeriod
 .text.PWM_Motor_WriteCompare1
                0x0000211c        0xc .\CortexM3\ARM_GCC_541\Debug\Test_01.a(PWM_Motor.o)
                0x0000211c                PWM_Motor_WriteCompare1
 .text.PWM_Motor_WriteCompare2
                0x00002128        0xc .\CortexM3\ARM_GCC_541\Debug\Test_01.a(PWM_Motor.o)
                0x00002128                PWM_Motor_WriteCompare2
 .text.PWM_Motor_SetInterruptMode
                0x00002134        0xc .\CortexM3\ARM_GCC_541\Debug\Test_01.a(PWM_Motor.o)
                0x00002134                PWM_Motor_SetInterruptMode
 .text.PWM_Motor_ReadStatusRegister
                0x00002140        0xc .\CortexM3\ARM_GCC_541\Debug\Test_01.a(PWM_Motor.o)
                0x00002140                PWM_Motor_ReadStatusRegister
 .text.PWM_Motor_ReadCapture
                0x0000214c        0xc .\CortexM3\ARM_GCC_541\Debug\Test_01.a(PWM_Motor.o)
                0x0000214c                PWM_Motor_ReadCapture
 .text.PWM_Motor_ClearFIFO
                0x00002158       0x14 .\CortexM3\ARM_GCC_541\Debug\Test_01.a(PWM_Motor.o)
                0x00002158                PWM_Motor_ClearFIFO
 .text.PWM_Motor_Init
                0x0000216c       0x60 .\CortexM3\ARM_GCC_541\Debug\Test_01.a(PWM_Motor.o)
                0x0000216c                PWM_Motor_Init
 .text.PWM_Motor_Start
                0x000021cc       0x1c .\CortexM3\ARM_GCC_541\Debug\Test_01.a(PWM_Motor.o)
                0x000021cc                PWM_Motor_Start
 .text.Flicker_Servo_Enable
                0x000021e8       0x28 .\CortexM3\ARM_GCC_541\Debug\Test_01.a(Flicker_Servo.o)
                0x000021e8                Flicker_Servo_Enable
 .text.Flicker_Servo_WritePeriod
                0x00002210        0xc .\CortexM3\ARM_GCC_541\Debug\Test_01.a(Flicker_Servo.o)
                0x00002210                Flicker_Servo_WritePeriod
 .text.Flicker_Servo_WriteCompare
                0x0000221c        0xc .\CortexM3\ARM_GCC_541\Debug\Test_01.a(Flicker_Servo.o)
                0x0000221c                Flicker_Servo_WriteCompare
 .text.Flicker_Servo_SetInterruptMode
                0x00002228        0xc .\CortexM3\ARM_GCC_541\Debug\Test_01.a(Flicker_Servo.o)
                0x00002228                Flicker_Servo_SetInterruptMode
 .text.Flicker_Servo_Init
                0x00002234       0x74 .\CortexM3\ARM_GCC_541\Debug\Test_01.a(Flicker_Servo.o)
                0x00002234                Flicker_Servo_Init
 .text.Flicker_Servo_Start
                0x000022a8       0x1c .\CortexM3\ARM_GCC_541\Debug\Test_01.a(Flicker_Servo.o)
                0x000022a8                Flicker_Servo_Start
 .text.RobotArm_Servo_Enable
                0x000022c4       0x10 .\CortexM3\ARM_GCC_541\Debug\Test_01.a(RobotArm_Servo.o)
                0x000022c4                RobotArm_Servo_Enable
 .text.RobotArm_Servo_WriteCounter
                0x000022d4        0xc .\CortexM3\ARM_GCC_541\Debug\Test_01.a(RobotArm_Servo.o)
                0x000022d4                RobotArm_Servo_WriteCounter
 .text.RobotArm_Servo_WritePeriod
                0x000022e0        0xc .\CortexM3\ARM_GCC_541\Debug\Test_01.a(RobotArm_Servo.o)
                0x000022e0                RobotArm_Servo_WritePeriod
 .text.RobotArm_Servo_WriteCompare1
                0x000022ec        0xc .\CortexM3\ARM_GCC_541\Debug\Test_01.a(RobotArm_Servo.o)
                0x000022ec                RobotArm_Servo_WriteCompare1
 .text.RobotArm_Servo_WriteCompare2
                0x000022f8        0xc .\CortexM3\ARM_GCC_541\Debug\Test_01.a(RobotArm_Servo.o)
                0x000022f8                RobotArm_Servo_WriteCompare2
 .text.RobotArm_Servo_SetInterruptMode
                0x00002304        0xc .\CortexM3\ARM_GCC_541\Debug\Test_01.a(RobotArm_Servo.o)
                0x00002304                RobotArm_Servo_SetInterruptMode
 .text.RobotArm_Servo_ReadStatusRegister
                0x00002310        0xc .\CortexM3\ARM_GCC_541\Debug\Test_01.a(RobotArm_Servo.o)
                0x00002310                RobotArm_Servo_ReadStatusRegister
 .text.RobotArm_Servo_ReadCapture
                0x0000231c        0xc .\CortexM3\ARM_GCC_541\Debug\Test_01.a(RobotArm_Servo.o)
                0x0000231c                RobotArm_Servo_ReadCapture
 .text.RobotArm_Servo_ClearFIFO
                0x00002328       0x14 .\CortexM3\ARM_GCC_541\Debug\Test_01.a(RobotArm_Servo.o)
                0x00002328                RobotArm_Servo_ClearFIFO
 .text.RobotArm_Servo_Init
                0x0000233c       0x68 .\CortexM3\ARM_GCC_541\Debug\Test_01.a(RobotArm_Servo.o)
                0x0000233c                RobotArm_Servo_Init
 .text.RobotArm_Servo_Start
                0x000023a4       0x1c .\CortexM3\ARM_GCC_541\Debug\Test_01.a(RobotArm_Servo.o)
                0x000023a4                RobotArm_Servo_Start
 .text.Base_Selector_Read
                0x000023c0       0x10 .\CortexM3\ARM_GCC_541\Debug\Test_01.a(Base_Selector.o)
                0x000023c0                Base_Selector_Read
 .text.I2C_Init
                0x000023d0       0x68 .\CortexM3\ARM_GCC_541\Debug\Test_01.a(I2C.o)
                0x000023d0                I2C_Init
 .text.I2C_Enable
                0x00002438       0x24 .\CortexM3\ARM_GCC_541\Debug\Test_01.a(I2C.o)
                0x00002438                I2C_Enable
 .text.I2C_Start
                0x0000245c       0x28 .\CortexM3\ARM_GCC_541\Debug\Test_01.a(I2C.o)
                0x0000245c                I2C_Start
 .text.I2C_ISR  0x00002484      0x2d0 .\CortexM3\ARM_GCC_541\Debug\Test_01.a(I2C_INT.o)
                0x00002484                I2C_ISR
 *fill*         0x00002754        0x4 
 .text          0x00002758       0x20 .\CortexM3\ARM_GCC_541\Debug\Test_01.a(CyBootAsmGnu.o)
                0x00002758                CyDelayCycles
                0x00002768                CyEnterCriticalSection
                0x00002770                CyExitCriticalSection
 .text          0x00002778      0x21c c:/program files (x86)/cypress/psoc creator/4.2/psoc creator/import/gnu/arm/5.4.1/bin/../lib/gcc/arm-none-eabi/5.4.1/armv7-m\libgcc.a(_arm_addsubsf3.o)
                0x00002778                __aeabi_frsub
                0x00002780                __subsf3
                0x00002780                __aeabi_fsub
                0x00002784                __aeabi_fadd
                0x00002784                __addsf3
                0x000028e4                __aeabi_ui2f
                0x000028e4                __floatunsisf
                0x000028ec                __aeabi_i2f
                0x000028ec                __floatsisf
                0x00002908                __aeabi_ul2f
                0x00002908                __floatundisf
                0x00002918                __aeabi_l2f
                0x00002918                __floatdisf
 .text          0x00002994       0xec c:/program files (x86)/cypress/psoc creator/4.2/psoc creator/import/gnu/arm/5.4.1/bin/../lib/gcc/arm-none-eabi/5.4.1/armv7-m\libgcc.a(_arm_cmpsf2.o)
                0x00002994                __gesf2
                0x00002994                __gtsf2
                0x0000299c                __lesf2
                0x0000299c                __ltsf2
                0x000029a4                __nesf2
                0x000029a4                __eqsf2
                0x000029a4                __cmpsf2
                0x00002a04                __aeabi_cfrcmple
                0x00002a0c                __aeabi_cfcmpeq
                0x00002a0c                __aeabi_cfcmple
                0x00002a1c                __aeabi_fcmpeq
                0x00002a30                __aeabi_fcmplt
                0x00002a44                __aeabi_fcmple
                0x00002a58                __aeabi_fcmpge
                0x00002a6c                __aeabi_fcmpgt
 .text.__errno  0x00002a80        0xc c:/program files (x86)/cypress/psoc creator/4.2/psoc creator/import/gnu/arm/5.4.1/bin/../lib/gcc/arm-none-eabi/5.4.1/../../../../arm-none-eabi/lib/armv7-m\libg_nano.a(lib_a-errno.o)
                0x00002a80                __errno
 .text.__libc_init_array
                0x00002a8c       0x4c c:/program files (x86)/cypress/psoc creator/4.2/psoc creator/import/gnu/arm/5.4.1/bin/../lib/gcc/arm-none-eabi/5.4.1/../../../../arm-none-eabi/lib/armv7-m\libg_nano.a(lib_a-init.o)
                0x00002a8c                __libc_init_array
 .text.memcpy   0x00002ad8       0x16 c:/program files (x86)/cypress/psoc creator/4.2/psoc creator/import/gnu/arm/5.4.1/bin/../lib/gcc/arm-none-eabi/5.4.1/../../../../arm-none-eabi/lib/armv7-m\libg_nano.a(lib_a-memcpy-stub.o)
                0x00002ad8                memcpy
 .text.memset   0x00002aee       0x10 c:/program files (x86)/cypress/psoc creator/4.2/psoc creator/import/gnu/arm/5.4.1/bin/../lib/gcc/arm-none-eabi/5.4.1/../../../../arm-none-eabi/lib/armv7-m\libg_nano.a(lib_a-memset.o)
                0x00002aee                memset
 *(.plt)
 *(.gnu.warning)
 *(.glue_7t)
 .glue_7t       0x00002afe        0x0 linker stubs
 *(.glue_7)
 .glue_7        0x00002afe        0x0 linker stubs
 *(.vfp11_veneer)
 .vfp11_veneer  0x00002afe        0x0 linker stubs
 *(.bootloader)
 *(.ARM.extab* .gnu.linkonce.armextab.*)
 *(.gcc_except_table)

.v4_bx          0x00002b00        0x0
 .v4_bx         0x00002b00        0x0 linker stubs

.iplt           0x00002b00        0x0
 .iplt          0x00002b00        0x0 c:/program files (x86)/cypress/psoc creator/4.2/psoc creator/import/gnu/arm/5.4.1/bin/../lib/gcc/arm-none-eabi/5.4.1/armv7-m/crtbegin.o

.eh_frame_hdr
 *(.eh_frame_hdr)

.eh_frame       0x00002b00        0x4
 *(.eh_frame)
 .eh_frame      0x00002b00        0x0 c:/program files (x86)/cypress/psoc creator/4.2/psoc creator/import/gnu/arm/5.4.1/bin/../lib/gcc/arm-none-eabi/5.4.1/armv7-m/crtbegin.o
 .eh_frame      0x00002b00        0x4 c:/program files (x86)/cypress/psoc creator/4.2/psoc creator/import/gnu/arm/5.4.1/bin/../lib/gcc/arm-none-eabi/5.4.1/armv7-m/crtend.o
                [!provide]                PROVIDE (__exidx_start, .)

.ARM.exidx
 *(.ARM.exidx* .gnu.linkonce.armexidx.*)
                0x00002b04                __exidx_end = .

.rodata         0x00002b04       0xbc
 *(.rodata .rodata.* .gnu.linkonce.r.*)
 .rodata        0x00002b04       0x82 .\CortexM3\ARM_GCC_541\Debug\cyfitter_cfg.o
 .rodata.str1.1
                0x00002b86        0x2 c:/program files (x86)/cypress/psoc creator/4.2/psoc creator/import/gnu/arm/5.4.1/bin/../lib/gcc/arm-none-eabi/5.4.1/../../../../arm-none-eabi/lib/armv7-m\libg_nano.a(lib_a-impure.o)
                0x00002b88                . = ALIGN (0x4)
 *(.init)
 .init          0x00002b88        0x4 c:/program files (x86)/cypress/psoc creator/4.2/psoc creator/import/gnu/arm/5.4.1/bin/../lib/gcc/arm-none-eabi/5.4.1/armv7-m/crti.o
                0x00002b88                _init
 .init          0x00002b8c        0x8 c:/program files (x86)/cypress/psoc creator/4.2/psoc creator/import/gnu/arm/5.4.1/bin/../lib/gcc/arm-none-eabi/5.4.1/armv7-m/crtn.o
                0x00002b94                . = ALIGN (0x4)
                0x00002b94                __preinit_array_start = .
 *(.preinit_array)
                0x00002b94                __preinit_array_end = .
                0x00002b94                . = ALIGN (0x4)
                0x00002b94                __init_array_start = .
 *(SORT(.init_array.*))
 *(.init_array)
 .init_array    0x00002b94        0x4 c:/program files (x86)/cypress/psoc creator/4.2/psoc creator/import/gnu/arm/5.4.1/bin/../lib/gcc/arm-none-eabi/5.4.1/armv7-m/crtbegin.o
 .init_array    0x00002b98        0x4 .\CortexM3\ARM_GCC_541\Debug\Cm3Start.o
                0x00002b9c                __init_array_end = .
                0x00002b9c                . = ALIGN (0x4)
 *(.fini)
 .fini          0x00002b9c        0x4 c:/program files (x86)/cypress/psoc creator/4.2/psoc creator/import/gnu/arm/5.4.1/bin/../lib/gcc/arm-none-eabi/5.4.1/armv7-m/crti.o
                0x00002b9c                _fini
 .fini          0x00002ba0        0x8 c:/program files (x86)/cypress/psoc creator/4.2/psoc creator/import/gnu/arm/5.4.1/bin/../lib/gcc/arm-none-eabi/5.4.1/armv7-m/crtn.o
                0x00002ba8                . = ALIGN (0x4)
                0x00002ba8                __fini_array_start = .
 *(.fini_array)
 .fini_array    0x00002ba8        0x4 c:/program files (x86)/cypress/psoc creator/4.2/psoc creator/import/gnu/arm/5.4.1/bin/../lib/gcc/arm-none-eabi/5.4.1/armv7-m/crtbegin.o
 *(SORT(.fini_array.*))
                0x00002bac                __fini_array_end = .
                0x00002bac                . = ALIGN (0x4)
 *crtbegin.o(.ctors)
 *(EXCLUDE_FILE(*crtend.o) .ctors)
 *(SORT(.ctors.*))
 *crtend.o(.ctors)
                0x00002bac                . = ALIGN (0x4)
 *crtbegin.o(.dtors)
 *(EXCLUDE_FILE(*crtend.o) .dtors)
 *(SORT(.dtors.*))
 *crtend.o(.dtors)
                0x00002bac                . = ALIGN (0x4)
                0x00002bac                __cy_regions = .
                0x00002bac        0x4 LONG 0x2bc0 __cy_region_init_ram
                0x00002bb0        0x4 LONG 0x1fff80c8 __cy_region_start_data
                0x00002bb4        0x4 LONG 0x88 __cy_region_init_size_ram
                0x00002bb8        0x4 LONG 0x90 __cy_region_zero_size_ram
                0x00002bbc                __cy_regions_end = .
                0x00002bc0                . = ALIGN (0x8)
 *fill*         0x00002bbc        0x4 
                0x00002bc0                _etext = .

.cy_checksum_exclude
                0x00002bc0        0x0
 *(.cy_checksum_exclude)

.ramvectors     0x1fff8000       0xc0
                0x1fff8000                __cy_region_start_ram = .
 *(.ramvectors)
 .ramvectors    0x1fff8000       0xc0 .\CortexM3\ARM_GCC_541\Debug\Cm3Start.o
                0x1fff8000                CyRamVectors

.noinit         0x1fff80c0        0x1
 *(.noinit)
 .noinit        0x1fff80c0        0x1 .\CortexM3\ARM_GCC_541\Debug\Test_01.a(CyLib.o)
                0x1fff80c0                CyResetStatus

.data           0x1fff80c8       0x88 load address 0x00002bc0
                0x1fff80c8                __cy_region_start_data = .
 *(.jcr)
 .jcr           0x1fff80c8        0x0 c:/program files (x86)/cypress/psoc creator/4.2/psoc creator/import/gnu/arm/5.4.1/bin/../lib/gcc/arm-none-eabi/5.4.1/armv7-m/crtbegin.o
 .jcr           0x1fff80c8        0x4 c:/program files (x86)/cypress/psoc creator/4.2/psoc creator/import/gnu/arm/5.4.1/bin/../lib/gcc/arm-none-eabi/5.4.1/armv7-m/crtend.o
 *(.got.plt)
 *(.got)
 *(.shdata)
 *(.data .data.* .gnu.linkonce.d.*)
 .data          0x1fff80cc       0x10 .\CortexM3\ARM_GCC_541\Debug\main.o
                0x1fff80cc                S1_distance
                0x1fff80d0                S2_distance
                0x1fff80d4                S3_distance
                0x1fff80d8                S4_distance
 .data          0x1fff80dc       0x10 .\CortexM3\ARM_GCC_541\Debug\Test_01.a(CyLib.o)
                0x1fff80dc                cydelay_32k_ms
                0x1fff80e0                cydelay_freq_khz
                0x1fff80e4                cydelay_freq_mhz
                0x1fff80e8                cydelay_freq_hz
 .data.impure_data
                0x1fff80ec       0x60 c:/program files (x86)/cypress/psoc creator/4.2/psoc creator/import/gnu/arm/5.4.1/bin/../lib/gcc/arm-none-eabi/5.4.1/../../../../arm-none-eabi/lib/armv7-m\libg_nano.a(lib_a-impure.o)
 .data._impure_ptr
                0x1fff814c        0x4 c:/program files (x86)/cypress/psoc creator/4.2/psoc creator/import/gnu/arm/5.4.1/bin/../lib/gcc/arm-none-eabi/5.4.1/../../../../arm-none-eabi/lib/armv7-m\libg_nano.a(lib_a-impure.o)
                0x1fff814c                _impure_ptr
                0x1fff8150                . = ALIGN (0x8)
 *(.ram)
                0x1fff8150                _edata = .

.igot.plt       0x1fff8150        0x0 load address 0x00002c48
 .igot.plt      0x1fff8150        0x0 c:/program files (x86)/cypress/psoc creator/4.2/psoc creator/import/gnu/arm/5.4.1/bin/../lib/gcc/arm-none-eabi/5.4.1/armv7-m/crtbegin.o

.bss            0x1fff8150       0x90 load address 0x00002c48
                0x1fff8150                PROVIDE (__bss_start__, .)
 *(.shbss)
 *(.bss .bss.* .gnu.linkonce.b.*)
 .bss           0x1fff8150       0x1c c:/program files (x86)/cypress/psoc creator/4.2/psoc creator/import/gnu/arm/5.4.1/bin/../lib/gcc/arm-none-eabi/5.4.1/armv7-m/crtbegin.o
 .bss           0x1fff816c       0x14 .\CortexM3\ARM_GCC_541\Debug\main.o
                0x1fff816c                obstacle1
                0x1fff816d                obstacle2
                0x1fff816e                obstacle3
                0x1fff816f                obstacle4
                0x1fff8170                iFreq
                0x1fff8174                dataReady
                0x1fff8178                state
                0x1fff817c                position
 .bss           0x1fff8180        0x1 .\CortexM3\ARM_GCC_541\Debug\Test_01.a(QuadDec_L.o)
                0x1fff8180                QuadDec_L_initVar
 *fill*         0x1fff8181        0x3 
 .bss           0x1fff8184        0x4 .\CortexM3\ARM_GCC_541\Debug\Test_01.a(QuadDec_L_INT.o)
                0x1fff8184                QuadDec_L_count32SoftPart
 .bss           0x1fff8188        0x1 .\CortexM3\ARM_GCC_541\Debug\Test_01.a(QuadDec_R.o)
                0x1fff8188                QuadDec_R_initVar
 *fill*         0x1fff8189        0x3 
 .bss           0x1fff818c        0x4 .\CortexM3\ARM_GCC_541\Debug\Test_01.a(QuadDec_R_INT.o)
                0x1fff818c                QuadDec_R_count32SoftPart
 .bss           0x1fff8190        0x1 .\CortexM3\ARM_GCC_541\Debug\Test_01.a(Color_Timer.o)
                0x1fff8190                Color_Timer_initVar
 .bss           0x1fff8191        0x1 .\CortexM3\ARM_GCC_541\Debug\Test_01.a(QuadDec_L_Cnt16.o)
                0x1fff8191                QuadDec_L_Cnt16_initVar
 .bss           0x1fff8192        0x1 .\CortexM3\ARM_GCC_541\Debug\Test_01.a(QuadDec_R_Cnt16.o)
                0x1fff8192                QuadDec_R_Cnt16_initVar
 .bss           0x1fff8193        0x2 .\CortexM3\ARM_GCC_541\Debug\Test_01.a(UART.o)
                0x1fff8193                UART_initVar
 .bss           0x1fff8195        0x1 .\CortexM3\ARM_GCC_541\Debug\Test_01.a(Color_Counter.o)
                0x1fff8195                Color_Counter_initVar
 .bss           0x1fff8196        0x1 .\CortexM3\ARM_GCC_541\Debug\Test_01.a(S1_Timer.o)
                0x1fff8196                S1_Timer_initVar
 .bss           0x1fff8197        0x1 .\CortexM3\ARM_GCC_541\Debug\Test_01.a(S2_Timer.o)
                0x1fff8197                S2_Timer_initVar
 .bss           0x1fff8198        0x1 .\CortexM3\ARM_GCC_541\Debug\Test_01.a(S3_Timer.o)
                0x1fff8198                S3_Timer_initVar
 .bss           0x1fff8199        0x1 .\CortexM3\ARM_GCC_541\Debug\Test_01.a(S4_Timer.o)
                0x1fff8199                S4_Timer_initVar
 .bss           0x1fff819a        0x1 .\CortexM3\ARM_GCC_541\Debug\Test_01.a(PWM_Motor.o)
                0x1fff819a                PWM_Motor_initVar
 .bss           0x1fff819b        0x1 .\CortexM3\ARM_GCC_541\Debug\Test_01.a(Flicker_Servo.o)
                0x1fff819b                Flicker_Servo_initVar
 .bss           0x1fff819c        0x1 .\CortexM3\ARM_GCC_541\Debug\Test_01.a(RobotArm_Servo.o)
                0x1fff819c                RobotArm_Servo_initVar
 .bss           0x1fff819d        0x1 .\CortexM3\ARM_GCC_541\Debug\Test_01.a(I2C.o)
                0x1fff819d                I2C_initVar
 *(COMMON)
 *fill*         0x1fff819e        0x2 
 COMMON         0x1fff81a0       0x28 .\CortexM3\ARM_GCC_541\Debug\main.o
                0x1fff81a0                countR
                0x1fff81a4                Base
                0x1fff81a8                string1
                0x1fff81bc                speedR
                0x1fff81c0                speedL
                0x1fff81c1                puckdetected
                0x1fff81c4                countL
 COMMON         0x1fff81c8        0x1 .\CortexM3\ARM_GCC_541\Debug\Test_01.a(I2C.o)
                0x1fff81c8                I2C_state
 *fill*         0x1fff81c9        0x3 
 COMMON         0x1fff81cc       0x10 .\CortexM3\ARM_GCC_541\Debug\Test_01.a(I2C_MASTER.o)
                0x1fff81cc                I2C_mstrWrBufIndex
                0x1fff81cd                I2C_mstrWrBufSize
                0x1fff81ce                I2C_mstrStatus
                0x1fff81d0                I2C_mstrRdBufPtr
                0x1fff81d4                I2C_mstrControl
                0x1fff81d5                I2C_mstrRdBufSize
                0x1fff81d6                I2C_mstrRdBufIndex
                0x1fff81d8                I2C_mstrWrBufPtr
                0x1fff81e0                . = ALIGN (0x8)
 *fill*         0x1fff81dc        0x4 
 *(.ram.b)
                0x1fff81e0                _end = .
                0x1fff81e0                __end = .
                0x1fff81e0                PROVIDE (end, .)
                0x1fff81e0                PROVIDE (__bss_end__, .)
                0x00002bc0                __cy_region_init_ram = LOADADDR (.data)
                0x00000088                __cy_region_init_size_ram = (_edata - ADDR (.data))
                0x00000090                __cy_region_zero_size_ram = (_end - _edata)

.heap           0x1fff81e0       0x80 load address 0x00002c48
                0x1fff81e0                . = _end
                0x1fff8260                . = (. + 0x80)
 *fill*         0x1fff81e0       0x80 
                0x1fff8260                __cy_heap_limit = .

.stack          0x20007800      0x800
                0x20007800                __cy_stack_limit = .
                0x20008000                . = (. + 0x800)
 *fill*         0x20007800      0x800 
                0x00000001                ASSERT ((__cy_stack_limit >= __cy_heap_limit), region RAM overflowed with stack)
                0x00000000                cy_checksum_exclude_size = (CY_APPL_LOADABLE == 0x1)?SIZEOF (.cy_checksum_exclude):0x0
                0x00000001                ASSERT ((cy_checksum_exclude_size <= CY_CHECKSUM_EXCLUDE_SIZE), CY_BOOT: Section .cy_checksum_exclude size exceedes specified limit.)

.cyloadermeta
 *(.cyloadermeta)

.cyloadablemeta
 *(.cyloadablemeta)

.cyconfigecc    0x80000000     0x1448
 *(.cyconfigecc)
 .cyconfigecc   0x80000000     0x1448 .\CortexM3\ARM_GCC_541\Debug\cymetadata.o
                0x80000000                cy_meta_configecc

.cycustnvl      0x90000000        0x4
 *(.cycustnvl)
 .cycustnvl     0x90000000        0x4 .\CortexM3\ARM_GCC_541\Debug\cymetadata.o
                0x90000000                cy_meta_custnvl

.cywolatch      0x90100000        0x4
 *(.cywolatch)
 .cywolatch     0x90100000        0x4 .\CortexM3\ARM_GCC_541\Debug\cymetadata.o
                0x90100000                cy_meta_wonvl

.cyeeprom       0x90200000        0x0
 *(.cyeeprom)
                0x00000001                ASSERT ((. <= ((0x90200000 + ee_offset) + ee_size)), .cyeeprom data will not fit in EEPROM)

.cyflashprotect
                0x90400000      0x100
 *(.cyflashprotect)
 .cyflashprotect
                0x90400000      0x100 .\CortexM3\ARM_GCC_541\Debug\cymetadata.o
                0x90400000                cy_meta_flashprotect

.cymeta         0x90500000        0xc
 *(.cymeta)
 .cymeta        0x90500000        0xc .\CortexM3\ARM_GCC_541\Debug\cymetadata.o
                0x90500000                cy_metadata

.rel.dyn        0x00002c48        0x0 load address 0x9050000c
 .rel.iplt      0x00002c48        0x0 c:/program files (x86)/cypress/psoc creator/4.2/psoc creator/import/gnu/arm/5.4.1/bin/../lib/gcc/arm-none-eabi/5.4.1/armv7-m/crtbegin.o

.stab
 *(.stab)

.stabstr
 *(.stabstr)

.debug
 *(.debug)

.line
 *(.line)

.debug_srcinfo
 *(.debug_srcinfo)

.debug_sfnames
 *(.debug_sfnames)

.debug_aranges  0x00000000     0x17a8
 *(.debug_aranges)
 .debug_aranges
                0x00000000       0xe0 .\CortexM3\ARM_GCC_541\Debug\main.o
 .debug_aranges
                0x000000e0       0x58 .\CortexM3\ARM_GCC_541\Debug\cyfitter_cfg.o
 .debug_aranges
                0x00000138       0x18 .\CortexM3\ARM_GCC_541\Debug\cymetadata.o
 .debug_aranges
                0x00000150       0x48 .\CortexM3\ARM_GCC_541\Debug\Cm3Start.o
 .debug_aranges
                0x00000198       0x60 .\CortexM3\ARM_GCC_541\Debug\Test_01.a(QuadDec_L.o)
 .debug_aranges
                0x000001f8       0x20 .\CortexM3\ARM_GCC_541\Debug\Test_01.a(QuadDec_L_INT.o)
 .debug_aranges
                0x00000218       0x60 .\CortexM3\ARM_GCC_541\Debug\Test_01.a(QuadDec_R.o)
 .debug_aranges
                0x00000278       0x20 .\CortexM3\ARM_GCC_541\Debug\Test_01.a(QuadDec_R_INT.o)
 .debug_aranges
                0x00000298       0x38 .\CortexM3\ARM_GCC_541\Debug\Test_01.a(Forward_L.o)
 .debug_aranges
                0x000002d0       0x38 .\CortexM3\ARM_GCC_541\Debug\Test_01.a(Backward_L.o)
 .debug_aranges
                0x00000308       0x38 .\CortexM3\ARM_GCC_541\Debug\Test_01.a(Forwad_R.o)
 .debug_aranges
                0x00000340       0x38 .\CortexM3\ARM_GCC_541\Debug\Test_01.a(Backward_R.o)
 .debug_aranges
                0x00000378       0x38 .\CortexM3\ARM_GCC_541\Debug\Test_01.a(limitSW_2.o)
 .debug_aranges
                0x000003b0       0x38 .\CortexM3\ARM_GCC_541\Debug\Test_01.a(limitSW_1.o)
 .debug_aranges
                0x000003e8       0x38 .\CortexM3\ARM_GCC_541\Debug\Test_01.a(S1_Echo.o)
 .debug_aranges
                0x00000420       0x38 .\CortexM3\ARM_GCC_541\Debug\Test_01.a(S1_Trigger.o)
 .debug_aranges
                0x00000458       0x80 .\CortexM3\ARM_GCC_541\Debug\Test_01.a(isr_1.o)
 .debug_aranges
                0x000004d8       0x80 .\CortexM3\ARM_GCC_541\Debug\Test_01.a(isr_2.o)
 .debug_aranges
                0x00000558       0x90 .\CortexM3\ARM_GCC_541\Debug\Test_01.a(Color_Timer.o)
 .debug_aranges
                0x000005e8       0x28 .\CortexM3\ARM_GCC_541\Debug\Test_01.a(Control_Reg_Color.o)
 .debug_aranges
                0x00000610       0x38 .\CortexM3\ARM_GCC_541\Debug\Test_01.a(Color_S0.o)
 .debug_aranges
                0x00000648       0x38 .\CortexM3\ARM_GCC_541\Debug\Test_01.a(Color_S1.o)
 .debug_aranges
                0x00000680       0x38 .\CortexM3\ARM_GCC_541\Debug\Test_01.a(Color_S2.o)
 .debug_aranges
                0x000006b8       0x38 .\CortexM3\ARM_GCC_541\Debug\Test_01.a(Color_S3.o)
 .debug_aranges
                0x000006f0       0x38 .\CortexM3\ARM_GCC_541\Debug\Test_01.a(Color_LED.o)
 .debug_aranges
                0x00000728       0x38 .\CortexM3\ARM_GCC_541\Debug\Test_01.a(RED_LED.o)
 .debug_aranges
                0x00000760       0x38 .\CortexM3\ARM_GCC_541\Debug\Test_01.a(BLUE_LED.o)
 .debug_aranges
                0x00000798       0x98 .\CortexM3\ARM_GCC_541\Debug\Test_01.a(QuadDec_L_Cnt16.o)
 .debug_aranges
                0x00000830       0x98 .\CortexM3\ARM_GCC_541\Debug\Test_01.a(QuadDec_R_Cnt16.o)
 .debug_aranges
                0x000008c8      0x2a0 .\CortexM3\ARM_GCC_541\Debug\Test_01.a(CyLib.o)
 .debug_aranges
                0x00000b68       0x98 .\CortexM3\ARM_GCC_541\Debug\Test_01.a(cyPm.o)
 .debug_aranges
                0x00000c00       0xf0 .\CortexM3\ARM_GCC_541\Debug\Test_01.a(UART.o)
 .debug_aranges
                0x00000cf0       0x98 .\CortexM3\ARM_GCC_541\Debug\Test_01.a(Color_Counter.o)
 .debug_aranges
                0x00000d88       0x70 .\CortexM3\ARM_GCC_541\Debug\Test_01.a(UART_IntClock.o)
 .debug_aranges
                0x00000df8       0x98 .\CortexM3\ARM_GCC_541\Debug\Test_01.a(S1_Timer.o)
 .debug_aranges
                0x00000e90       0x80 .\CortexM3\ARM_GCC_541\Debug\Test_01.a(isr_3.o)
 .debug_aranges
                0x00000f10       0x98 .\CortexM3\ARM_GCC_541\Debug\Test_01.a(S2_Timer.o)
 .debug_aranges
                0x00000fa8       0x38 .\CortexM3\ARM_GCC_541\Debug\Test_01.a(S2_Echo.o)
 .debug_aranges
                0x00000fe0       0x38 .\CortexM3\ARM_GCC_541\Debug\Test_01.a(S2_Trigger.o)
 .debug_aranges
                0x00001018       0x80 .\CortexM3\ARM_GCC_541\Debug\Test_01.a(isr_4.o)
 .debug_aranges
                0x00001098       0x98 .\CortexM3\ARM_GCC_541\Debug\Test_01.a(S3_Timer.o)
 .debug_aranges
                0x00001130       0x38 .\CortexM3\ARM_GCC_541\Debug\Test_01.a(S3_Trigger.o)
 .debug_aranges
                0x00001168       0x38 .\CortexM3\ARM_GCC_541\Debug\Test_01.a(S3_Echo.o)
 .debug_aranges
                0x000011a0       0x48 .\CortexM3\ARM_GCC_541\Debug\Test_01.a(IR_Out.o)
 .debug_aranges
                0x000011e8       0x80 .\CortexM3\ARM_GCC_541\Debug\Test_01.a(isr_6.o)
 .debug_aranges
                0x00001268       0x98 .\CortexM3\ARM_GCC_541\Debug\Test_01.a(S4_Timer.o)
 .debug_aranges
                0x00001300       0x38 .\CortexM3\ARM_GCC_541\Debug\Test_01.a(S4_Echo.o)
 .debug_aranges
                0x00001338       0x38 .\CortexM3\ARM_GCC_541\Debug\Test_01.a(S4_Trigger.o)
 .debug_aranges
                0x00001370       0xa8 .\CortexM3\ARM_GCC_541\Debug\Test_01.a(PWM_Motor.o)
 .debug_aranges
                0x00001418       0x78 .\CortexM3\ARM_GCC_541\Debug\Test_01.a(Flicker_Servo.o)
 .debug_aranges
                0x00001490       0xa8 .\CortexM3\ARM_GCC_541\Debug\Test_01.a(RobotArm_Servo.o)
 .debug_aranges
                0x00001538       0x38 .\CortexM3\ARM_GCC_541\Debug\Test_01.a(Base_Selector.o)
 .debug_aranges
                0x00001570       0x38 .\CortexM3\ARM_GCC_541\Debug\Test_01.a(I2C.o)
 .debug_aranges
                0x000015a8       0x20 .\CortexM3\ARM_GCC_541\Debug\Test_01.a(I2C_INT.o)
 .debug_aranges
                0x000015c8       0x38 .\CortexM3\ARM_GCC_541\Debug\Test_01.a(I2C_PM.o)
 .debug_aranges
                0x00001600       0x80 .\CortexM3\ARM_GCC_541\Debug\Test_01.a(I2C_MASTER.o)
 .debug_aranges
                0x00001680       0x20 .\CortexM3\ARM_GCC_541\Debug\Test_01.a(CyBootAsmGnu.o)
 .debug_aranges
                0x000016a0       0x88 .\CortexM3\ARM_GCC_541\Debug\Test_01.a(CyFlash.o)
 .debug_aranges
                0x00001728       0x80 .\CortexM3\ARM_GCC_541\Debug\Test_01.a(CySpc.o)

.debug_pubnames
 *(.debug_pubnames)

.debug_info     0x00000000     0xbe63
 *(.debug_info .gnu.linkonce.wi.*)
 .debug_info    0x00000000     0x21df .\CortexM3\ARM_GCC_541\Debug\main.o
 .debug_info    0x000021df      0x628 .\CortexM3\ARM_GCC_541\Debug\cyfitter_cfg.o
 .debug_info    0x00002807      0x139 .\CortexM3\ARM_GCC_541\Debug\cymetadata.o
 .debug_info    0x00002940      0x3bb .\CortexM3\ARM_GCC_541\Debug\Cm3Start.o
 .debug_info    0x00002cfb      0x357 .\CortexM3\ARM_GCC_541\Debug\Test_01.a(QuadDec_L.o)
 .debug_info    0x00003052       0xf3 .\CortexM3\ARM_GCC_541\Debug\Test_01.a(QuadDec_L_INT.o)
 .debug_info    0x00003145      0x357 .\CortexM3\ARM_GCC_541\Debug\Test_01.a(QuadDec_R.o)
 .debug_info    0x0000349c       0xf3 .\CortexM3\ARM_GCC_541\Debug\Test_01.a(QuadDec_R_INT.o)
 .debug_info    0x0000358f      0x11f .\CortexM3\ARM_GCC_541\Debug\Test_01.a(Forward_L.o)
 .debug_info    0x000036ae      0x11f .\CortexM3\ARM_GCC_541\Debug\Test_01.a(Backward_L.o)
 .debug_info    0x000037cd      0x11f .\CortexM3\ARM_GCC_541\Debug\Test_01.a(Forwad_R.o)
 .debug_info    0x000038ec      0x11f .\CortexM3\ARM_GCC_541\Debug\Test_01.a(Backward_R.o)
 .debug_info    0x00003a0b      0x11f .\CortexM3\ARM_GCC_541\Debug\Test_01.a(limitSW_2.o)
 .debug_info    0x00003b2a      0x11f .\CortexM3\ARM_GCC_541\Debug\Test_01.a(limitSW_1.o)
 .debug_info    0x00003c49      0x11f .\CortexM3\ARM_GCC_541\Debug\Test_01.a(S1_Echo.o)
 .debug_info    0x00003d68      0x11f .\CortexM3\ARM_GCC_541\Debug\Test_01.a(S1_Trigger.o)
 .debug_info    0x00003e87      0x2d2 .\CortexM3\ARM_GCC_541\Debug\Test_01.a(isr_1.o)
 .debug_info    0x00004159      0x2d2 .\CortexM3\ARM_GCC_541\Debug\Test_01.a(isr_2.o)
 .debug_info    0x0000442b      0x2ee .\CortexM3\ARM_GCC_541\Debug\Test_01.a(Color_Timer.o)
 .debug_info    0x00004719       0xd6 .\CortexM3\ARM_GCC_541\Debug\Test_01.a(Control_Reg_Color.o)
 .debug_info    0x000047ef      0x11f .\CortexM3\ARM_GCC_541\Debug\Test_01.a(Color_S0.o)
 .debug_info    0x0000490e      0x11f .\CortexM3\ARM_GCC_541\Debug\Test_01.a(Color_S1.o)
 .debug_info    0x00004a2d      0x11f .\CortexM3\ARM_GCC_541\Debug\Test_01.a(Color_S2.o)
 .debug_info    0x00004b4c      0x11f .\CortexM3\ARM_GCC_541\Debug\Test_01.a(Color_S3.o)
 .debug_info    0x00004c6b      0x11f .\CortexM3\ARM_GCC_541\Debug\Test_01.a(Color_LED.o)
 .debug_info    0x00004d8a      0x11f .\CortexM3\ARM_GCC_541\Debug\Test_01.a(RED_LED.o)
 .debug_info    0x00004ea9      0x11f .\CortexM3\ARM_GCC_541\Debug\Test_01.a(BLUE_LED.o)
 .debug_info    0x00004fc8      0x348 .\CortexM3\ARM_GCC_541\Debug\Test_01.a(QuadDec_L_Cnt16.o)
 .debug_info    0x00005310      0x348 .\CortexM3\ARM_GCC_541\Debug\Test_01.a(QuadDec_R_Cnt16.o)
 .debug_info    0x00005658     0x1374 .\CortexM3\ARM_GCC_541\Debug\Test_01.a(CyLib.o)
 .debug_info    0x000069cc      0xa2a .\CortexM3\ARM_GCC_541\Debug\Test_01.a(cyPm.o)
 .debug_info    0x000073f6      0x60c .\CortexM3\ARM_GCC_541\Debug\Test_01.a(UART.o)
 .debug_info    0x00007a02      0x344 .\CortexM3\ARM_GCC_541\Debug\Test_01.a(Color_Counter.o)
 .debug_info    0x00007d46      0x283 .\CortexM3\ARM_GCC_541\Debug\Test_01.a(UART_IntClock.o)
 .debug_info    0x00007fc9      0x328 .\CortexM3\ARM_GCC_541\Debug\Test_01.a(S1_Timer.o)
 .debug_info    0x000082f1      0x2d2 .\CortexM3\ARM_GCC_541\Debug\Test_01.a(isr_3.o)
 .debug_info    0x000085c3      0x328 .\CortexM3\ARM_GCC_541\Debug\Test_01.a(S2_Timer.o)
 .debug_info    0x000088eb      0x11f .\CortexM3\ARM_GCC_541\Debug\Test_01.a(S2_Echo.o)
 .debug_info    0x00008a0a      0x11f .\CortexM3\ARM_GCC_541\Debug\Test_01.a(S2_Trigger.o)
 .debug_info    0x00008b29      0x2d2 .\CortexM3\ARM_GCC_541\Debug\Test_01.a(isr_4.o)
 .debug_info    0x00008dfb      0x328 .\CortexM3\ARM_GCC_541\Debug\Test_01.a(S3_Timer.o)
 .debug_info    0x00009123      0x11f .\CortexM3\ARM_GCC_541\Debug\Test_01.a(S3_Trigger.o)
 .debug_info    0x00009242      0x11f .\CortexM3\ARM_GCC_541\Debug\Test_01.a(S3_Echo.o)
 .debug_info    0x00009361      0x172 .\CortexM3\ARM_GCC_541\Debug\Test_01.a(IR_Out.o)
 .debug_info    0x000094d3      0x2d2 .\CortexM3\ARM_GCC_541\Debug\Test_01.a(isr_6.o)
 .debug_info    0x000097a5      0x328 .\CortexM3\ARM_GCC_541\Debug\Test_01.a(S4_Timer.o)
 .debug_info    0x00009acd      0x11f .\CortexM3\ARM_GCC_541\Debug\Test_01.a(S4_Echo.o)
 .debug_info    0x00009bec      0x11f .\CortexM3\ARM_GCC_541\Debug\Test_01.a(S4_Trigger.o)
 .debug_info    0x00009d0b      0x39e .\CortexM3\ARM_GCC_541\Debug\Test_01.a(PWM_Motor.o)
 .debug_info    0x0000a0a9      0x27f .\CortexM3\ARM_GCC_541\Debug\Test_01.a(Flicker_Servo.o)
 .debug_info    0x0000a328      0x3a0 .\CortexM3\ARM_GCC_541\Debug\Test_01.a(RobotArm_Servo.o)
 .debug_info    0x0000a6c8      0x11f .\CortexM3\ARM_GCC_541\Debug\Test_01.a(Base_Selector.o)
 .debug_info    0x0000a7e7      0x2ad .\CortexM3\ARM_GCC_541\Debug\Test_01.a(I2C.o)
 .debug_info    0x0000aa94      0x184 .\CortexM3\ARM_GCC_541\Debug\Test_01.a(I2C_INT.o)
 .debug_info    0x0000ac18      0x207 .\CortexM3\ARM_GCC_541\Debug\Test_01.a(I2C_PM.o)
 .debug_info    0x0000ae1f      0x407 .\CortexM3\ARM_GCC_541\Debug\Test_01.a(I2C_MASTER.o)
 .debug_info    0x0000b226       0xa0 .\CortexM3\ARM_GCC_541\Debug\Test_01.a(CyBootAsmGnu.o)
 .debug_info    0x0000b2c6      0x64d .\CortexM3\ARM_GCC_541\Debug\Test_01.a(CyFlash.o)
 .debug_info    0x0000b913      0x550 .\CortexM3\ARM_GCC_541\Debug\Test_01.a(CySpc.o)

.debug_abbrev   0x00000000     0x396c
 *(.debug_abbrev)
 .debug_abbrev  0x00000000      0x220 .\CortexM3\ARM_GCC_541\Debug\main.o
 .debug_abbrev  0x00000220      0x20d .\CortexM3\ARM_GCC_541\Debug\cyfitter_cfg.o
 .debug_abbrev  0x0000042d       0x77 .\CortexM3\ARM_GCC_541\Debug\cymetadata.o
 .debug_abbrev  0x000004a4      0x1e8 .\CortexM3\ARM_GCC_541\Debug\Cm3Start.o
 .debug_abbrev  0x0000068c      0x128 .\CortexM3\ARM_GCC_541\Debug\Test_01.a(QuadDec_L.o)
 .debug_abbrev  0x000007b4       0x78 .\CortexM3\ARM_GCC_541\Debug\Test_01.a(QuadDec_L_INT.o)
 .debug_abbrev  0x0000082c      0x128 .\CortexM3\ARM_GCC_541\Debug\Test_01.a(QuadDec_R.o)
 .debug_abbrev  0x00000954       0x78 .\CortexM3\ARM_GCC_541\Debug\Test_01.a(QuadDec_R_INT.o)
 .debug_abbrev  0x000009cc       0x90 .\CortexM3\ARM_GCC_541\Debug\Test_01.a(Forward_L.o)
 .debug_abbrev  0x00000a5c       0x90 .\CortexM3\ARM_GCC_541\Debug\Test_01.a(Backward_L.o)
 .debug_abbrev  0x00000aec       0x90 .\CortexM3\ARM_GCC_541\Debug\Test_01.a(Forwad_R.o)
 .debug_abbrev  0x00000b7c       0x90 .\CortexM3\ARM_GCC_541\Debug\Test_01.a(Backward_R.o)
 .debug_abbrev  0x00000c0c       0x90 .\CortexM3\ARM_GCC_541\Debug\Test_01.a(limitSW_2.o)
 .debug_abbrev  0x00000c9c       0x90 .\CortexM3\ARM_GCC_541\Debug\Test_01.a(limitSW_1.o)
 .debug_abbrev  0x00000d2c       0x90 .\CortexM3\ARM_GCC_541\Debug\Test_01.a(S1_Echo.o)
 .debug_abbrev  0x00000dbc       0x90 .\CortexM3\ARM_GCC_541\Debug\Test_01.a(S1_Trigger.o)
 .debug_abbrev  0x00000e4c      0x173 .\CortexM3\ARM_GCC_541\Debug\Test_01.a(isr_1.o)
 .debug_abbrev  0x00000fbf      0x173 .\CortexM3\ARM_GCC_541\Debug\Test_01.a(isr_2.o)
 .debug_abbrev  0x00001132      0x12b .\CortexM3\ARM_GCC_541\Debug\Test_01.a(Color_Timer.o)
 .debug_abbrev  0x0000125d       0x81 .\CortexM3\ARM_GCC_541\Debug\Test_01.a(Control_Reg_Color.o)
 .debug_abbrev  0x000012de       0x90 .\CortexM3\ARM_GCC_541\Debug\Test_01.a(Color_S0.o)
 .debug_abbrev  0x0000136e       0x90 .\CortexM3\ARM_GCC_541\Debug\Test_01.a(Color_S1.o)
 .debug_abbrev  0x000013fe       0x90 .\CortexM3\ARM_GCC_541\Debug\Test_01.a(Color_S2.o)
 .debug_abbrev  0x0000148e       0x90 .\CortexM3\ARM_GCC_541\Debug\Test_01.a(Color_S3.o)
 .debug_abbrev  0x0000151e       0x90 .\CortexM3\ARM_GCC_541\Debug\Test_01.a(Color_LED.o)
 .debug_abbrev  0x000015ae       0x90 .\CortexM3\ARM_GCC_541\Debug\Test_01.a(RED_LED.o)
 .debug_abbrev  0x0000163e       0x90 .\CortexM3\ARM_GCC_541\Debug\Test_01.a(BLUE_LED.o)
 .debug_abbrev  0x000016ce      0x117 .\CortexM3\ARM_GCC_541\Debug\Test_01.a(QuadDec_L_Cnt16.o)
 .debug_abbrev  0x000017e5      0x117 .\CortexM3\ARM_GCC_541\Debug\Test_01.a(QuadDec_R_Cnt16.o)
 .debug_abbrev  0x000018fc      0x254 .\CortexM3\ARM_GCC_541\Debug\Test_01.a(CyLib.o)
 .debug_abbrev  0x00001b50      0x1ab .\CortexM3\ARM_GCC_541\Debug\Test_01.a(cyPm.o)
 .debug_abbrev  0x00001cfb      0x175 .\CortexM3\ARM_GCC_541\Debug\Test_01.a(UART.o)
 .debug_abbrev  0x00001e70      0x117 .\CortexM3\ARM_GCC_541\Debug\Test_01.a(Color_Counter.o)
 .debug_abbrev  0x00001f87      0x139 .\CortexM3\ARM_GCC_541\Debug\Test_01.a(UART_IntClock.o)
 .debug_abbrev  0x000020c0      0x13a .\CortexM3\ARM_GCC_541\Debug\Test_01.a(S1_Timer.o)
 .debug_abbrev  0x000021fa      0x173 .\CortexM3\ARM_GCC_541\Debug\Test_01.a(isr_3.o)
 .debug_abbrev  0x0000236d      0x13a .\CortexM3\ARM_GCC_541\Debug\Test_01.a(S2_Timer.o)
 .debug_abbrev  0x000024a7       0x90 .\CortexM3\ARM_GCC_541\Debug\Test_01.a(S2_Echo.o)
 .debug_abbrev  0x00002537       0x90 .\CortexM3\ARM_GCC_541\Debug\Test_01.a(S2_Trigger.o)
 .debug_abbrev  0x000025c7      0x173 .\CortexM3\ARM_GCC_541\Debug\Test_01.a(isr_4.o)
 .debug_abbrev  0x0000273a      0x13a .\CortexM3\ARM_GCC_541\Debug\Test_01.a(S3_Timer.o)
 .debug_abbrev  0x00002874       0x90 .\CortexM3\ARM_GCC_541\Debug\Test_01.a(S3_Trigger.o)
 .debug_abbrev  0x00002904       0x90 .\CortexM3\ARM_GCC_541\Debug\Test_01.a(S3_Echo.o)
 .debug_abbrev  0x00002994       0x9f .\CortexM3\ARM_GCC_541\Debug\Test_01.a(IR_Out.o)
 .debug_abbrev  0x00002a33      0x173 .\CortexM3\ARM_GCC_541\Debug\Test_01.a(isr_6.o)
 .debug_abbrev  0x00002ba6      0x13a .\CortexM3\ARM_GCC_541\Debug\Test_01.a(S4_Timer.o)
 .debug_abbrev  0x00002ce0       0x90 .\CortexM3\ARM_GCC_541\Debug\Test_01.a(S4_Echo.o)
 .debug_abbrev  0x00002d70       0x90 .\CortexM3\ARM_GCC_541\Debug\Test_01.a(S4_Trigger.o)
 .debug_abbrev  0x00002e00      0x133 .\CortexM3\ARM_GCC_541\Debug\Test_01.a(PWM_Motor.o)
 .debug_abbrev  0x00002f33      0x12d .\CortexM3\ARM_GCC_541\Debug\Test_01.a(Flicker_Servo.o)
 .debug_abbrev  0x00003060      0x133 .\CortexM3\ARM_GCC_541\Debug\Test_01.a(RobotArm_Servo.o)
 .debug_abbrev  0x00003193       0x90 .\CortexM3\ARM_GCC_541\Debug\Test_01.a(Base_Selector.o)
 .debug_abbrev  0x00003223      0x10a .\CortexM3\ARM_GCC_541\Debug\Test_01.a(I2C.o)
 .debug_abbrev  0x0000332d       0xb6 .\CortexM3\ARM_GCC_541\Debug\Test_01.a(I2C_INT.o)
 .debug_abbrev  0x000033e3       0xfe .\CortexM3\ARM_GCC_541\Debug\Test_01.a(I2C_PM.o)
 .debug_abbrev  0x000034e1      0x13c .\CortexM3\ARM_GCC_541\Debug\Test_01.a(I2C_MASTER.o)
 .debug_abbrev  0x0000361d       0x14 .\CortexM3\ARM_GCC_541\Debug\Test_01.a(CyBootAsmGnu.o)
 .debug_abbrev  0x00003631      0x1a7 .\CortexM3\ARM_GCC_541\Debug\Test_01.a(CyFlash.o)
 .debug_abbrev  0x000037d8      0x194 .\CortexM3\ARM_GCC_541\Debug\Test_01.a(CySpc.o)

.debug_line     0x00000000     0x4fcf
 *(.debug_line)
 .debug_line    0x00000000      0x8e5 .\CortexM3\ARM_GCC_541\Debug\main.o
 .debug_line    0x000008e5      0x20a .\CortexM3\ARM_GCC_541\Debug\cyfitter_cfg.o
 .debug_line    0x00000aef      0x141 .\CortexM3\ARM_GCC_541\Debug\cymetadata.o
 .debug_line    0x00000c30      0x234 .\CortexM3\ARM_GCC_541\Debug\Cm3Start.o
 .debug_line    0x00000e64      0x13d .\CortexM3\ARM_GCC_541\Debug\Test_01.a(QuadDec_L.o)
 .debug_line    0x00000fa1       0x6c .\CortexM3\ARM_GCC_541\Debug\Test_01.a(QuadDec_L_INT.o)
 .debug_line    0x0000100d      0x13d .\CortexM3\ARM_GCC_541\Debug\Test_01.a(QuadDec_R.o)
 .debug_line    0x0000114a       0x6c .\CortexM3\ARM_GCC_541\Debug\Test_01.a(QuadDec_R_INT.o)
 .debug_line    0x000011b6       0x96 .\CortexM3\ARM_GCC_541\Debug\Test_01.a(Forward_L.o)
 .debug_line    0x0000124c       0x97 .\CortexM3\ARM_GCC_541\Debug\Test_01.a(Backward_L.o)
 .debug_line    0x000012e3       0x95 .\CortexM3\ARM_GCC_541\Debug\Test_01.a(Forwad_R.o)
 .debug_line    0x00001378       0x97 .\CortexM3\ARM_GCC_541\Debug\Test_01.a(Backward_R.o)
 .debug_line    0x0000140f       0x96 .\CortexM3\ARM_GCC_541\Debug\Test_01.a(limitSW_2.o)
 .debug_line    0x000014a5       0x96 .\CortexM3\ARM_GCC_541\Debug\Test_01.a(limitSW_1.o)
 .debug_line    0x0000153b       0x94 .\CortexM3\ARM_GCC_541\Debug\Test_01.a(S1_Echo.o)
 .debug_line    0x000015cf       0x97 .\CortexM3\ARM_GCC_541\Debug\Test_01.a(S1_Trigger.o)
 .debug_line    0x00001666      0x132 .\CortexM3\ARM_GCC_541\Debug\Test_01.a(isr_1.o)
 .debug_line    0x00001798      0x132 .\CortexM3\ARM_GCC_541\Debug\Test_01.a(isr_2.o)
 .debug_line    0x000018ca      0x176 .\CortexM3\ARM_GCC_541\Debug\Test_01.a(Color_Timer.o)
 .debug_line    0x00001a40       0x79 .\CortexM3\ARM_GCC_541\Debug\Test_01.a(Control_Reg_Color.o)
 .debug_line    0x00001ab9       0x95 .\CortexM3\ARM_GCC_541\Debug\Test_01.a(Color_S0.o)
 .debug_line    0x00001b4e       0x95 .\CortexM3\ARM_GCC_541\Debug\Test_01.a(Color_S1.o)
 .debug_line    0x00001be3       0x95 .\CortexM3\ARM_GCC_541\Debug\Test_01.a(Color_S2.o)
 .debug_line    0x00001c78       0x95 .\CortexM3\ARM_GCC_541\Debug\Test_01.a(Color_S3.o)
 .debug_line    0x00001d0d       0x96 .\CortexM3\ARM_GCC_541\Debug\Test_01.a(Color_LED.o)
 .debug_line    0x00001da3       0x94 .\CortexM3\ARM_GCC_541\Debug\Test_01.a(RED_LED.o)
 .debug_line    0x00001e37       0x95 .\CortexM3\ARM_GCC_541\Debug\Test_01.a(BLUE_LED.o)
 .debug_line    0x00001ecc      0x18f .\CortexM3\ARM_GCC_541\Debug\Test_01.a(QuadDec_L_Cnt16.o)
 .debug_line    0x0000205b      0x18f .\CortexM3\ARM_GCC_541\Debug\Test_01.a(QuadDec_R_Cnt16.o)
 .debug_line    0x000021ea      0x816 .\CortexM3\ARM_GCC_541\Debug\Test_01.a(CyLib.o)
 .debug_line    0x00002a00      0x367 .\CortexM3\ARM_GCC_541\Debug\Test_01.a(cyPm.o)
 .debug_line    0x00002d67      0x2bc .\CortexM3\ARM_GCC_541\Debug\Test_01.a(UART.o)
 .debug_line    0x00003023      0x18f .\CortexM3\ARM_GCC_541\Debug\Test_01.a(Color_Counter.o)
 .debug_line    0x000031b2      0x17c .\CortexM3\ARM_GCC_541\Debug\Test_01.a(UART_IntClock.o)
 .debug_line    0x0000332e      0x185 .\CortexM3\ARM_GCC_541\Debug\Test_01.a(S1_Timer.o)
 .debug_line    0x000034b3      0x132 .\CortexM3\ARM_GCC_541\Debug\Test_01.a(isr_3.o)
 .debug_line    0x000035e5      0x185 .\CortexM3\ARM_GCC_541\Debug\Test_01.a(S2_Timer.o)
 .debug_line    0x0000376a       0x94 .\CortexM3\ARM_GCC_541\Debug\Test_01.a(S2_Echo.o)
 .debug_line    0x000037fe       0x97 .\CortexM3\ARM_GCC_541\Debug\Test_01.a(S2_Trigger.o)
 .debug_line    0x00003895      0x132 .\CortexM3\ARM_GCC_541\Debug\Test_01.a(isr_4.o)
 .debug_line    0x000039c7      0x185 .\CortexM3\ARM_GCC_541\Debug\Test_01.a(S3_Timer.o)
 .debug_line    0x00003b4c       0x97 .\CortexM3\ARM_GCC_541\Debug\Test_01.a(S3_Trigger.o)
 .debug_line    0x00003be3       0x94 .\CortexM3\ARM_GCC_541\Debug\Test_01.a(S3_Echo.o)
 .debug_line    0x00003c77       0xb7 .\CortexM3\ARM_GCC_541\Debug\Test_01.a(IR_Out.o)
 .debug_line    0x00003d2e      0x132 .\CortexM3\ARM_GCC_541\Debug\Test_01.a(isr_6.o)
 .debug_line    0x00003e60      0x185 .\CortexM3\ARM_GCC_541\Debug\Test_01.a(S4_Timer.o)
 .debug_line    0x00003fe5       0x94 .\CortexM3\ARM_GCC_541\Debug\Test_01.a(S4_Echo.o)
 .debug_line    0x00004079       0x97 .\CortexM3\ARM_GCC_541\Debug\Test_01.a(S4_Trigger.o)
 .debug_line    0x00004110      0x1b0 .\CortexM3\ARM_GCC_541\Debug\Test_01.a(PWM_Motor.o)
 .debug_line    0x000042c0      0x13b .\CortexM3\ARM_GCC_541\Debug\Test_01.a(Flicker_Servo.o)
 .debug_line    0x000043fb      0x1b5 .\CortexM3\ARM_GCC_541\Debug\Test_01.a(RobotArm_Servo.o)
 .debug_line    0x000045b0       0x9a .\CortexM3\ARM_GCC_541\Debug\Test_01.a(Base_Selector.o)
 .debug_line    0x0000464a       0xd9 .\CortexM3\ARM_GCC_541\Debug\Test_01.a(I2C.o)
 .debug_line    0x00004723      0x114 .\CortexM3\ARM_GCC_541\Debug\Test_01.a(I2C_INT.o)
 .debug_line    0x00004837       0xbb .\CortexM3\ARM_GCC_541\Debug\Test_01.a(I2C_PM.o)
 .debug_line    0x000048f2      0x1fd .\CortexM3\ARM_GCC_541\Debug\Test_01.a(I2C_MASTER.o)
 .debug_line    0x00004aef       0x66 .\CortexM3\ARM_GCC_541\Debug\Test_01.a(CyBootAsmGnu.o)
 .debug_line    0x00004b55      0x21a .\CortexM3\ARM_GCC_541\Debug\Test_01.a(CyFlash.o)
 .debug_line    0x00004d6f      0x260 .\CortexM3\ARM_GCC_541\Debug\Test_01.a(CySpc.o)

.debug_frame    0x00000000     0x36f4
 *(.debug_frame)
 .debug_frame   0x00000000      0x304 .\CortexM3\ARM_GCC_541\Debug\main.o
 .debug_frame   0x00000304       0xe4 .\CortexM3\ARM_GCC_541\Debug\cyfitter_cfg.o
 .debug_frame   0x000003e8       0xb8 .\CortexM3\ARM_GCC_541\Debug\Cm3Start.o
 .debug_frame   0x000004a0       0xec .\CortexM3\ARM_GCC_541\Debug\Test_01.a(QuadDec_L.o)
 .debug_frame   0x0000058c       0x20 .\CortexM3\ARM_GCC_541\Debug\Test_01.a(QuadDec_L_INT.o)
 .debug_frame   0x000005ac       0xec .\CortexM3\ARM_GCC_541\Debug\Test_01.a(QuadDec_R.o)
 .debug_frame   0x00000698       0x20 .\CortexM3\ARM_GCC_541\Debug\Test_01.a(QuadDec_R_INT.o)
 .debug_frame   0x000006b8       0x50 .\CortexM3\ARM_GCC_541\Debug\Test_01.a(Forward_L.o)
 .debug_frame   0x00000708       0x50 .\CortexM3\ARM_GCC_541\Debug\Test_01.a(Backward_L.o)
 .debug_frame   0x00000758       0x50 .\CortexM3\ARM_GCC_541\Debug\Test_01.a(Forwad_R.o)
 .debug_frame   0x000007a8       0x50 .\CortexM3\ARM_GCC_541\Debug\Test_01.a(Backward_R.o)
 .debug_frame   0x000007f8       0x50 .\CortexM3\ARM_GCC_541\Debug\Test_01.a(limitSW_2.o)
 .debug_frame   0x00000848       0x50 .\CortexM3\ARM_GCC_541\Debug\Test_01.a(limitSW_1.o)
 .debug_frame   0x00000898       0x50 .\CortexM3\ARM_GCC_541\Debug\Test_01.a(S1_Echo.o)
 .debug_frame   0x000008e8       0x50 .\CortexM3\ARM_GCC_541\Debug\Test_01.a(S1_Trigger.o)
 .debug_frame   0x00000938      0x104 .\CortexM3\ARM_GCC_541\Debug\Test_01.a(isr_1.o)
 .debug_frame   0x00000a3c      0x104 .\CortexM3\ARM_GCC_541\Debug\Test_01.a(isr_2.o)
 .debug_frame   0x00000b40      0x124 .\CortexM3\ARM_GCC_541\Debug\Test_01.a(Color_Timer.o)
 .debug_frame   0x00000c64       0x30 .\CortexM3\ARM_GCC_541\Debug\Test_01.a(Control_Reg_Color.o)
 .debug_frame   0x00000c94       0x50 .\CortexM3\ARM_GCC_541\Debug\Test_01.a(Color_S0.o)
 .debug_frame   0x00000ce4       0x50 .\CortexM3\ARM_GCC_541\Debug\Test_01.a(Color_S1.o)
 .debug_frame   0x00000d34       0x50 .\CortexM3\ARM_GCC_541\Debug\Test_01.a(Color_S2.o)
 .debug_frame   0x00000d84       0x50 .\CortexM3\ARM_GCC_541\Debug\Test_01.a(Color_S3.o)
 .debug_frame   0x00000dd4       0x50 .\CortexM3\ARM_GCC_541\Debug\Test_01.a(Color_LED.o)
 .debug_frame   0x00000e24       0x50 .\CortexM3\ARM_GCC_541\Debug\Test_01.a(RED_LED.o)
 .debug_frame   0x00000e74       0x50 .\CortexM3\ARM_GCC_541\Debug\Test_01.a(BLUE_LED.o)
 .debug_frame   0x00000ec4      0x134 .\CortexM3\ARM_GCC_541\Debug\Test_01.a(QuadDec_L_Cnt16.o)
 .debug_frame   0x00000ff8      0x134 .\CortexM3\ARM_GCC_541\Debug\Test_01.a(QuadDec_R_Cnt16.o)
 .debug_frame   0x0000112c      0x738 .\CortexM3\ARM_GCC_541\Debug\Test_01.a(CyLib.o)
 .debug_frame   0x00001864      0x1f8 .\CortexM3\ARM_GCC_541\Debug\Test_01.a(cyPm.o)
 .debug_frame   0x00001a5c      0x250 .\CortexM3\ARM_GCC_541\Debug\Test_01.a(UART.o)
 .debug_frame   0x00001cac      0x134 .\CortexM3\ARM_GCC_541\Debug\Test_01.a(Color_Counter.o)
 .debug_frame   0x00001de0       0xe0 .\CortexM3\ARM_GCC_541\Debug\Test_01.a(UART_IntClock.o)
 .debug_frame   0x00001ec0      0x134 .\CortexM3\ARM_GCC_541\Debug\Test_01.a(S1_Timer.o)
 .debug_frame   0x00001ff4      0x104 .\CortexM3\ARM_GCC_541\Debug\Test_01.a(isr_3.o)
 .debug_frame   0x000020f8      0x134 .\CortexM3\ARM_GCC_541\Debug\Test_01.a(S2_Timer.o)
 .debug_frame   0x0000222c       0x50 .\CortexM3\ARM_GCC_541\Debug\Test_01.a(S2_Echo.o)
 .debug_frame   0x0000227c       0x50 .\CortexM3\ARM_GCC_541\Debug\Test_01.a(S2_Trigger.o)
 .debug_frame   0x000022cc      0x104 .\CortexM3\ARM_GCC_541\Debug\Test_01.a(isr_4.o)
 .debug_frame   0x000023d0      0x134 .\CortexM3\ARM_GCC_541\Debug\Test_01.a(S3_Timer.o)
 .debug_frame   0x00002504       0x50 .\CortexM3\ARM_GCC_541\Debug\Test_01.a(S3_Trigger.o)
 .debug_frame   0x00002554       0x50 .\CortexM3\ARM_GCC_541\Debug\Test_01.a(S3_Echo.o)
 .debug_frame   0x000025a4       0x70 .\CortexM3\ARM_GCC_541\Debug\Test_01.a(IR_Out.o)
 .debug_frame   0x00002614      0x104 .\CortexM3\ARM_GCC_541\Debug\Test_01.a(isr_6.o)
 .debug_frame   0x00002718      0x134 .\CortexM3\ARM_GCC_541\Debug\Test_01.a(S4_Timer.o)
 .debug_frame   0x0000284c       0x50 .\CortexM3\ARM_GCC_541\Debug\Test_01.a(S4_Echo.o)
 .debug_frame   0x0000289c       0x50 .\CortexM3\ARM_GCC_541\Debug\Test_01.a(S4_Trigger.o)
 .debug_frame   0x000028ec      0x154 .\CortexM3\ARM_GCC_541\Debug\Test_01.a(PWM_Motor.o)
 .debug_frame   0x00002a40       0xe8 .\CortexM3\ARM_GCC_541\Debug\Test_01.a(Flicker_Servo.o)
 .debug_frame   0x00002b28      0x154 .\CortexM3\ARM_GCC_541\Debug\Test_01.a(RobotArm_Servo.o)
 .debug_frame   0x00002c7c       0x50 .\CortexM3\ARM_GCC_541\Debug\Test_01.a(Base_Selector.o)
 .debug_frame   0x00002ccc       0x94 .\CortexM3\ARM_GCC_541\Debug\Test_01.a(I2C.o)
 .debug_frame   0x00002d60       0x30 .\CortexM3\ARM_GCC_541\Debug\Test_01.a(I2C_INT.o)
 .debug_frame   0x00002d90       0x74 .\CortexM3\ARM_GCC_541\Debug\Test_01.a(I2C_PM.o)
 .debug_frame   0x00002e04      0x138 .\CortexM3\ARM_GCC_541\Debug\Test_01.a(I2C_MASTER.o)
 .debug_frame   0x00002f3c      0x194 .\CortexM3\ARM_GCC_541\Debug\Test_01.a(CyFlash.o)
 .debug_frame   0x000030d0      0x180 .\CortexM3\ARM_GCC_541\Debug\Test_01.a(CySpc.o)
 .debug_frame   0x00003250       0x20 c:/program files (x86)/cypress/psoc creator/4.2/psoc creator/import/gnu/arm/5.4.1/bin/../lib/gcc/arm-none-eabi/5.4.1/../../../../arm-none-eabi/lib/armv7-m\libm.a(lib_a-w_atan2.o)
 .debug_frame   0x00003270       0x48 c:/program files (x86)/cypress/psoc creator/4.2/psoc creator/import/gnu/arm/5.4.1/bin/../lib/gcc/arm-none-eabi/5.4.1/../../../../arm-none-eabi/lib/armv7-m\libm.a(lib_a-e_atan2.o)
 .debug_frame   0x000032b8       0x38 c:/program files (x86)/cypress/psoc creator/4.2/psoc creator/import/gnu/arm/5.4.1/bin/../lib/gcc/arm-none-eabi/5.4.1/../../../../arm-none-eabi/lib/armv7-m\libm.a(lib_a-s_atan.o)
 .debug_frame   0x000032f0       0x20 c:/program files (x86)/cypress/psoc creator/4.2/psoc creator/import/gnu/arm/5.4.1/bin/../lib/gcc/arm-none-eabi/5.4.1/../../../../arm-none-eabi/lib/armv7-m\libm.a(lib_a-s_fabs.o)
 .debug_frame   0x00003310       0x20 c:/program files (x86)/cypress/psoc creator/4.2/psoc creator/import/gnu/arm/5.4.1/bin/../lib/gcc/arm-none-eabi/5.4.1/../../../../arm-none-eabi/lib/armv7-m\libg_nano.a(lib_a-errno.o)
 .debug_frame   0x00003330       0x28 c:/program files (x86)/cypress/psoc creator/4.2/psoc creator/import/gnu/arm/5.4.1/bin/../lib/gcc/arm-none-eabi/5.4.1/../../../../arm-none-eabi/lib/armv7-m\libg_nano.a(lib_a-exit.o)
 .debug_frame   0x00003358       0x2c c:/program files (x86)/cypress/psoc creator/4.2/psoc creator/import/gnu/arm/5.4.1/bin/../lib/gcc/arm-none-eabi/5.4.1/../../../../arm-none-eabi/lib/armv7-m\libg_nano.a(lib_a-init.o)
 .debug_frame   0x00003384       0x28 c:/program files (x86)/cypress/psoc creator/4.2/psoc creator/import/gnu/arm/5.4.1/bin/../lib/gcc/arm-none-eabi/5.4.1/../../../../arm-none-eabi/lib/armv7-m\libg_nano.a(lib_a-memcpy-stub.o)
 .debug_frame   0x000033ac       0x20 c:/program files (x86)/cypress/psoc creator/4.2/psoc creator/import/gnu/arm/5.4.1/bin/../lib/gcc/arm-none-eabi/5.4.1/../../../../arm-none-eabi/lib/armv7-m\libg_nano.a(lib_a-memset.o)
 .debug_frame   0x000033cc       0x70 c:/program files (x86)/cypress/psoc creator/4.2/psoc creator/import/gnu/arm/5.4.1/bin/../lib/gcc/arm-none-eabi/5.4.1/../../../../arm-none-eabi/lib/armv7-m\libg_nano.a(lib_a-sprintf.o)
 .debug_frame   0x0000343c       0x90 c:/program files (x86)/cypress/psoc creator/4.2/psoc creator/import/gnu/arm/5.4.1/bin/../lib/gcc/arm-none-eabi/5.4.1/../../../../arm-none-eabi/lib/armv7-m\libg_nano.a(lib_a-nano-svfprintf.o)
 .debug_frame   0x000034cc       0x60 c:/program files (x86)/cypress/psoc creator/4.2/psoc creator/import/gnu/arm/5.4.1/bin/../lib/gcc/arm-none-eabi/5.4.1/../../../../arm-none-eabi/lib/armv7-m\libg_nano.a(lib_a-nano-vfprintf_i.o)
 .debug_frame   0x0000352c       0x28 c:/program files (x86)/cypress/psoc creator/4.2/psoc creator/import/gnu/arm/5.4.1/bin/../lib/gcc/arm-none-eabi/5.4.1/../../../../arm-none-eabi/lib/armv7-m\libg_nano.a(lib_a-memchr-stub.o)
 .debug_frame   0x00003554       0x28 c:/program files (x86)/cypress/psoc creator/4.2/psoc creator/import/gnu/arm/5.4.1/bin/../lib/gcc/arm-none-eabi/5.4.1/../../../../arm-none-eabi/lib/armv7-m\libg_nano.a(lib_a-memmove.o)
 .debug_frame   0x0000357c       0x38 c:/program files (x86)/cypress/psoc creator/4.2/psoc creator/import/gnu/arm/5.4.1/bin/../lib/gcc/arm-none-eabi/5.4.1/../../../../arm-none-eabi/lib/armv7-m\libg_nano.a(lib_a-nano-freer.o)
 .debug_frame   0x000035b4       0x2c c:/program files (x86)/cypress/psoc creator/4.2/psoc creator/import/gnu/arm/5.4.1/bin/../lib/gcc/arm-none-eabi/5.4.1/../../../../arm-none-eabi/lib/armv7-m\libg_nano.a(lib_a-nano-mallocr.o)
 .debug_frame   0x000035e0       0x3c c:/program files (x86)/cypress/psoc creator/4.2/psoc creator/import/gnu/arm/5.4.1/bin/../lib/gcc/arm-none-eabi/5.4.1/../../../../arm-none-eabi/lib/armv7-m\libg_nano.a(lib_a-nano-reallocr.o)
 .debug_frame   0x0000361c       0x2c c:/program files (x86)/cypress/psoc creator/4.2/psoc creator/import/gnu/arm/5.4.1/bin/../lib/gcc/arm-none-eabi/5.4.1/../../../../arm-none-eabi/lib/armv7-m\libg_nano.a(lib_a-sbrkr.o)
 .debug_frame   0x00003648       0x30 c:/program files (x86)/cypress/psoc creator/4.2/psoc creator/import/gnu/arm/5.4.1/bin/../lib/gcc/arm-none-eabi/5.4.1/../../../../arm-none-eabi/lib/armv7-m\libg_nano.a(lib_a-mlock.o)
 .debug_frame   0x00003678       0x20 c:/program files (x86)/cypress/psoc creator/4.2/psoc creator/import/gnu/arm/5.4.1/bin/../lib/gcc/arm-none-eabi/5.4.1/../../../../arm-none-eabi/lib/armv7-m\libg_nano.a(lib_a-nano-msizer.o)
 .debug_frame   0x00003698       0x5c c:/program files (x86)/cypress/psoc creator/4.2/psoc creator/import/gnu/arm/5.4.1/bin/../lib/gcc/arm-none-eabi/5.4.1/../../../../arm-none-eabi/lib/armv7-m\libg_nano.a(lib_a-reent.o)

.debug_str      0x00000000     0x42d0
 *(.debug_str)
 .debug_str     0x00000000      0x903 .\CortexM3\ARM_GCC_541\Debug\main.o
                                0x984 (size before relaxing)
 .debug_str     0x00000903      0x1c2 .\CortexM3\ARM_GCC_541\Debug\cyfitter_cfg.o
                                0x35a (size before relaxing)
 .debug_str     0x00000ac5       0x7f .\CortexM3\ARM_GCC_541\Debug\cymetadata.o
                                0x1f4 (size before relaxing)
 .debug_str     0x00000b44      0x13e .\CortexM3\ARM_GCC_541\Debug\Cm3Start.o
                                0x31a (size before relaxing)
 .debug_str     0x00000c82      0x19e .\CortexM3\ARM_GCC_541\Debug\Test_01.a(QuadDec_L.o)
                                0x39a (size before relaxing)
 .debug_str     0x00000e20       0x48 .\CortexM3\ARM_GCC_541\Debug\Test_01.a(QuadDec_L_INT.o)
                                0x1fe (size before relaxing)
 .debug_str     0x00000e68      0x12c .\CortexM3\ARM_GCC_541\Debug\Test_01.a(QuadDec_R.o)
                                0x39a (size before relaxing)
 .debug_str     0x00000f94       0x48 .\CortexM3\ARM_GCC_541\Debug\Test_01.a(QuadDec_R_INT.o)
                                0x1fe (size before relaxing)
 .debug_str     0x00000fdc       0x6f .\CortexM3\ARM_GCC_541\Debug\Test_01.a(Forward_L.o)
                                0x206 (size before relaxing)
 .debug_str     0x0000104b       0x63 .\CortexM3\ARM_GCC_541\Debug\Test_01.a(Backward_L.o)
                                0x20b (size before relaxing)
 .debug_str     0x000010ae       0x5b .\CortexM3\ARM_GCC_541\Debug\Test_01.a(Forwad_R.o)
                                0x201 (size before relaxing)
 .debug_str     0x00001109       0x63 .\CortexM3\ARM_GCC_541\Debug\Test_01.a(Backward_R.o)
                                0x20b (size before relaxing)
 .debug_str     0x0000116c       0x60 .\CortexM3\ARM_GCC_541\Debug\Test_01.a(limitSW_2.o)
                                0x206 (size before relaxing)
 .debug_str     0x000011cc       0x60 .\CortexM3\ARM_GCC_541\Debug\Test_01.a(limitSW_1.o)
                                0x206 (size before relaxing)
 .debug_str     0x0000122c       0x58 .\CortexM3\ARM_GCC_541\Debug\Test_01.a(S1_Echo.o)
                                0x1fc (size before relaxing)
 .debug_str     0x00001284       0x63 .\CortexM3\ARM_GCC_541\Debug\Test_01.a(S1_Trigger.o)
                                0x20b (size before relaxing)
 .debug_str     0x000012e7       0xf0 .\CortexM3\ARM_GCC_541\Debug\Test_01.a(isr_1.o)
                                0x2b6 (size before relaxing)
 .debug_str     0x000013d7       0xd8 .\CortexM3\ARM_GCC_541\Debug\Test_01.a(isr_2.o)
                                0x2b6 (size before relaxing)
 .debug_str     0x000014af      0x19d .\CortexM3\ARM_GCC_541\Debug\Test_01.a(Color_Timer.o)
                                0x3b7 (size before relaxing)
 .debug_str     0x0000164c       0x42 .\CortexM3\ARM_GCC_541\Debug\Test_01.a(Control_Reg_Color.o)
                                0x1e3 (size before relaxing)
 .debug_str     0x0000168e       0x5b .\CortexM3\ARM_GCC_541\Debug\Test_01.a(Color_S0.o)
                                0x201 (size before relaxing)
 .debug_str     0x000016e9       0x5b .\CortexM3\ARM_GCC_541\Debug\Test_01.a(Color_S1.o)
                                0x201 (size before relaxing)
 .debug_str     0x00001744       0x5b .\CortexM3\ARM_GCC_541\Debug\Test_01.a(Color_S2.o)
                                0x201 (size before relaxing)
 .debug_str     0x0000179f       0x5b .\CortexM3\ARM_GCC_541\Debug\Test_01.a(Color_S3.o)
                                0x201 (size before relaxing)
 .debug_str     0x000017fa       0x5f .\CortexM3\ARM_GCC_541\Debug\Test_01.a(Color_LED.o)
                                0x206 (size before relaxing)
 .debug_str     0x00001859       0x57 .\CortexM3\ARM_GCC_541\Debug\Test_01.a(RED_LED.o)
                                0x1fc (size before relaxing)
 .debug_str     0x000018b0       0x5b .\CortexM3\ARM_GCC_541\Debug\Test_01.a(BLUE_LED.o)
                                0x201 (size before relaxing)
 .debug_str     0x0000190b      0x1db .\CortexM3\ARM_GCC_541\Debug\Test_01.a(QuadDec_L_Cnt16.o)
                                0x426 (size before relaxing)
 .debug_str     0x00001ae6      0x1bf .\CortexM3\ARM_GCC_541\Debug\Test_01.a(QuadDec_R_Cnt16.o)
                                0x426 (size before relaxing)
 .debug_str     0x00001ca5      0x7b9 .\CortexM3\ARM_GCC_541\Debug\Test_01.a(CyLib.o)
                                0xa57 (size before relaxing)
 .debug_str     0x0000245e      0x365 .\CortexM3\ARM_GCC_541\Debug\Test_01.a(cyPm.o)
                                0x743 (size before relaxing)
 .debug_str     0x000027c3      0x274 .\CortexM3\ARM_GCC_541\Debug\Test_01.a(UART.o)
                                0x485 (size before relaxing)
 .debug_str     0x00002a37      0x1bc .\CortexM3\ARM_GCC_541\Debug\Test_01.a(Color_Counter.o)
                                0x400 (size before relaxing)
 .debug_str     0x00002bf3      0x183 .\CortexM3\ARM_GCC_541\Debug\Test_01.a(UART_IntClock.o)
                                0x346 (size before relaxing)
 .debug_str     0x00002d76      0x176 .\CortexM3\ARM_GCC_541\Debug\Test_01.a(S1_Timer.o)
                                0x3ab (size before relaxing)
 .debug_str     0x00002eec       0xd8 .\CortexM3\ARM_GCC_541\Debug\Test_01.a(isr_3.o)
                                0x2b6 (size before relaxing)
 .debug_str     0x00002fc4      0x167 .\CortexM3\ARM_GCC_541\Debug\Test_01.a(S2_Timer.o)
                                0x3ab (size before relaxing)
 .debug_str     0x0000312b       0x58 .\CortexM3\ARM_GCC_541\Debug\Test_01.a(S2_Echo.o)
                                0x1fc (size before relaxing)
 .debug_str     0x00003183       0x63 .\CortexM3\ARM_GCC_541\Debug\Test_01.a(S2_Trigger.o)
                                0x20b (size before relaxing)
 .debug_str     0x000031e6       0xd8 .\CortexM3\ARM_GCC_541\Debug\Test_01.a(isr_4.o)
                                0x2b6 (size before relaxing)
 .debug_str     0x000032be      0x167 .\CortexM3\ARM_GCC_541\Debug\Test_01.a(S3_Timer.o)
                                0x3ab (size before relaxing)
 .debug_str     0x00003425       0x63 .\CortexM3\ARM_GCC_541\Debug\Test_01.a(S3_Trigger.o)
                                0x20b (size before relaxing)
 .debug_str     0x00003488       0x58 .\CortexM3\ARM_GCC_541\Debug\Test_01.a(S3_Echo.o)
                                0x1fc (size before relaxing)
 .debug_str     0x000034e0       0x6c .\CortexM3\ARM_GCC_541\Debug\Test_01.a(IR_Out.o)
                                0x235 (size before relaxing)
 .debug_str     0x0000354c       0xc5 .\CortexM3\ARM_GCC_541\Debug\Test_01.a(isr_6.o)
                                0x2b6 (size before relaxing)
 .debug_str     0x00003611      0x167 .\CortexM3\ARM_GCC_541\Debug\Test_01.a(S4_Timer.o)
                                0x3ab (size before relaxing)
 .debug_str     0x00003778       0x58 .\CortexM3\ARM_GCC_541\Debug\Test_01.a(S4_Echo.o)
                                0x1fc (size before relaxing)
 .debug_str     0x000037d0       0x63 .\CortexM3\ARM_GCC_541\Debug\Test_01.a(S4_Trigger.o)
                                0x20b (size before relaxing)
 .debug_str     0x00003833      0x1a9 .\CortexM3\ARM_GCC_541\Debug\Test_01.a(PWM_Motor.o)
                                0x3eb (size before relaxing)
 .debug_str     0x000039dc      0x14a .\CortexM3\ARM_GCC_541\Debug\Test_01.a(Flicker_Servo.o)
                                0x34d (size before relaxing)
 .debug_str     0x00003b26      0x1fc .\CortexM3\ARM_GCC_541\Debug\Test_01.a(RobotArm_Servo.o)
                                0x454 (size before relaxing)
 .debug_str     0x00003d22       0x70 .\CortexM3\ARM_GCC_541\Debug\Test_01.a(Base_Selector.o)
                                0x21a (size before relaxing)
 .debug_str     0x00003d92       0xd9 .\CortexM3\ARM_GCC_541\Debug\Test_01.a(I2C.o)
                                0x2f1 (size before relaxing)
 .debug_str     0x00003e6b       0x86 .\CortexM3\ARM_GCC_541\Debug\Test_01.a(I2C_INT.o)
                                0x26f (size before relaxing)
 .debug_str     0x00003ef1       0x56 .\CortexM3\ARM_GCC_541\Debug\Test_01.a(I2C_PM.o)
                                0x28d (size before relaxing)
 .debug_str     0x00003f47      0x122 .\CortexM3\ARM_GCC_541\Debug\Test_01.a(I2C_MASTER.o)
                                0x3b4 (size before relaxing)
 .debug_str     0x00004069      0x1bb .\CortexM3\ARM_GCC_541\Debug\Test_01.a(CyFlash.o)
                                0x3d0 (size before relaxing)
 .debug_str     0x00004224       0xac .\CortexM3\ARM_GCC_541\Debug\Test_01.a(CySpc.o)
                                0x348 (size before relaxing)

.debug_loc      0x00000000     0x3531
 *(.debug_loc)
 .debug_loc     0x00000000      0x65e .\CortexM3\ARM_GCC_541\Debug\main.o
 .debug_loc     0x0000065e      0x289 .\CortexM3\ARM_GCC_541\Debug\cyfitter_cfg.o
 .debug_loc     0x000008e7      0x144 .\CortexM3\ARM_GCC_541\Debug\Cm3Start.o
 .debug_loc     0x00000a2b       0xb9 .\CortexM3\ARM_GCC_541\Debug\Test_01.a(QuadDec_L.o)
 .debug_loc     0x00000ae4       0x13 .\CortexM3\ARM_GCC_541\Debug\Test_01.a(QuadDec_L_INT.o)
 .debug_loc     0x00000af7       0xb9 .\CortexM3\ARM_GCC_541\Debug\Test_01.a(QuadDec_R.o)
 .debug_loc     0x00000bb0       0x13 .\CortexM3\ARM_GCC_541\Debug\Test_01.a(QuadDec_R_INT.o)
 .debug_loc     0x00000bc3       0x42 .\CortexM3\ARM_GCC_541\Debug\Test_01.a(Forward_L.o)
 .debug_loc     0x00000c05       0x42 .\CortexM3\ARM_GCC_541\Debug\Test_01.a(Backward_L.o)
 .debug_loc     0x00000c47       0x42 .\CortexM3\ARM_GCC_541\Debug\Test_01.a(Forwad_R.o)
 .debug_loc     0x00000c89       0x42 .\CortexM3\ARM_GCC_541\Debug\Test_01.a(Backward_R.o)
 .debug_loc     0x00000ccb       0x42 .\CortexM3\ARM_GCC_541\Debug\Test_01.a(limitSW_2.o)
 .debug_loc     0x00000d0d       0x42 .\CortexM3\ARM_GCC_541\Debug\Test_01.a(limitSW_1.o)
 .debug_loc     0x00000d4f       0x42 .\CortexM3\ARM_GCC_541\Debug\Test_01.a(S1_Echo.o)
 .debug_loc     0x00000d91       0x42 .\CortexM3\ARM_GCC_541\Debug\Test_01.a(S1_Trigger.o)
 .debug_loc     0x00000dd3       0x56 .\CortexM3\ARM_GCC_541\Debug\Test_01.a(isr_1.o)
 .debug_loc     0x00000e29       0x56 .\CortexM3\ARM_GCC_541\Debug\Test_01.a(isr_2.o)
 .debug_loc     0x00000e7f       0x13 .\CortexM3\ARM_GCC_541\Debug\Test_01.a(Color_Timer.o)
 .debug_loc     0x00000e92       0x42 .\CortexM3\ARM_GCC_541\Debug\Test_01.a(Color_S0.o)
 .debug_loc     0x00000ed4       0x42 .\CortexM3\ARM_GCC_541\Debug\Test_01.a(Color_S1.o)
 .debug_loc     0x00000f16       0x42 .\CortexM3\ARM_GCC_541\Debug\Test_01.a(Color_S2.o)
 .debug_loc     0x00000f58       0x42 .\CortexM3\ARM_GCC_541\Debug\Test_01.a(Color_S3.o)
 .debug_loc     0x00000f9a       0x42 .\CortexM3\ARM_GCC_541\Debug\Test_01.a(Color_LED.o)
 .debug_loc     0x00000fdc       0x42 .\CortexM3\ARM_GCC_541\Debug\Test_01.a(RED_LED.o)
 .debug_loc     0x0000101e       0x42 .\CortexM3\ARM_GCC_541\Debug\Test_01.a(BLUE_LED.o)
 .debug_loc     0x00001060       0x3d .\CortexM3\ARM_GCC_541\Debug\Test_01.a(QuadDec_L_Cnt16.o)
 .debug_loc     0x0000109d       0x3d .\CortexM3\ARM_GCC_541\Debug\Test_01.a(QuadDec_R_Cnt16.o)
 .debug_loc     0x000010da      0xa11 .\CortexM3\ARM_GCC_541\Debug\Test_01.a(CyLib.o)
 .debug_loc     0x00001aeb      0x1e4 .\CortexM3\ARM_GCC_541\Debug\Test_01.a(cyPm.o)
 .debug_loc     0x00001ccf      0x258 .\CortexM3\ARM_GCC_541\Debug\Test_01.a(UART.o)
 .debug_loc     0x00001f27       0x31 .\CortexM3\ARM_GCC_541\Debug\Test_01.a(Color_Counter.o)
 .debug_loc     0x00001f58      0x128 .\CortexM3\ARM_GCC_541\Debug\Test_01.a(UART_IntClock.o)
 .debug_loc     0x00002080       0x31 .\CortexM3\ARM_GCC_541\Debug\Test_01.a(S1_Timer.o)
 .debug_loc     0x000020b1       0x56 .\CortexM3\ARM_GCC_541\Debug\Test_01.a(isr_3.o)
 .debug_loc     0x00002107       0x31 .\CortexM3\ARM_GCC_541\Debug\Test_01.a(S2_Timer.o)
 .debug_loc     0x00002138       0x42 .\CortexM3\ARM_GCC_541\Debug\Test_01.a(S2_Echo.o)
 .debug_loc     0x0000217a       0x42 .\CortexM3\ARM_GCC_541\Debug\Test_01.a(S2_Trigger.o)
 .debug_loc     0x000021bc       0x56 .\CortexM3\ARM_GCC_541\Debug\Test_01.a(isr_4.o)
 .debug_loc     0x00002212       0x31 .\CortexM3\ARM_GCC_541\Debug\Test_01.a(S3_Timer.o)
 .debug_loc     0x00002243       0x42 .\CortexM3\ARM_GCC_541\Debug\Test_01.a(S3_Trigger.o)
 .debug_loc     0x00002285       0x42 .\CortexM3\ARM_GCC_541\Debug\Test_01.a(S3_Echo.o)
 .debug_loc     0x000022c7       0x63 .\CortexM3\ARM_GCC_541\Debug\Test_01.a(IR_Out.o)
 .debug_loc     0x0000232a       0x56 .\CortexM3\ARM_GCC_541\Debug\Test_01.a(isr_6.o)
 .debug_loc     0x00002380       0x31 .\CortexM3\ARM_GCC_541\Debug\Test_01.a(S4_Timer.o)
 .debug_loc     0x000023b1       0x42 .\CortexM3\ARM_GCC_541\Debug\Test_01.a(S4_Echo.o)
 .debug_loc     0x000023f3       0x42 .\CortexM3\ARM_GCC_541\Debug\Test_01.a(S4_Trigger.o)
 .debug_loc     0x00002435       0x26 .\CortexM3\ARM_GCC_541\Debug\Test_01.a(PWM_Motor.o)
 .debug_loc     0x0000245b       0x13 .\CortexM3\ARM_GCC_541\Debug\Test_01.a(Flicker_Servo.o)
 .debug_loc     0x0000246e       0x26 .\CortexM3\ARM_GCC_541\Debug\Test_01.a(RobotArm_Servo.o)
 .debug_loc     0x00002494       0x42 .\CortexM3\ARM_GCC_541\Debug\Test_01.a(Base_Selector.o)
 .debug_loc     0x000024d6       0x39 .\CortexM3\ARM_GCC_541\Debug\Test_01.a(I2C.o)
 .debug_loc     0x0000250f       0x29 .\CortexM3\ARM_GCC_541\Debug\Test_01.a(I2C_INT.o)
 .debug_loc     0x00002538       0x13 .\CortexM3\ARM_GCC_541\Debug\Test_01.a(I2C_PM.o)
 .debug_loc     0x0000254b      0x52f .\CortexM3\ARM_GCC_541\Debug\Test_01.a(I2C_MASTER.o)
 .debug_loc     0x00002a7a      0x3b2 .\CortexM3\ARM_GCC_541\Debug\Test_01.a(CyFlash.o)
 .debug_loc     0x00002e2c      0x705 .\CortexM3\ARM_GCC_541\Debug\Test_01.a(CySpc.o)

.debug_macinfo
 *(.debug_macinfo)

.debug_ranges   0x00000000     0x13e0
 *(.debug_ranges)
 .debug_ranges  0x00000000       0xd0 .\CortexM3\ARM_GCC_541\Debug\main.o
 .debug_ranges  0x000000d0       0x48 .\CortexM3\ARM_GCC_541\Debug\cyfitter_cfg.o
 .debug_ranges  0x00000118       0x38 .\CortexM3\ARM_GCC_541\Debug\Cm3Start.o
 .debug_ranges  0x00000150       0x50 .\CortexM3\ARM_GCC_541\Debug\Test_01.a(QuadDec_L.o)
 .debug_ranges  0x000001a0       0x10 .\CortexM3\ARM_GCC_541\Debug\Test_01.a(QuadDec_L_INT.o)
 .debug_ranges  0x000001b0       0x50 .\CortexM3\ARM_GCC_541\Debug\Test_01.a(QuadDec_R.o)
 .debug_ranges  0x00000200       0x10 .\CortexM3\ARM_GCC_541\Debug\Test_01.a(QuadDec_R_INT.o)
 .debug_ranges  0x00000210       0x28 .\CortexM3\ARM_GCC_541\Debug\Test_01.a(Forward_L.o)
 .debug_ranges  0x00000238       0x28 .\CortexM3\ARM_GCC_541\Debug\Test_01.a(Backward_L.o)
 .debug_ranges  0x00000260       0x28 .\CortexM3\ARM_GCC_541\Debug\Test_01.a(Forwad_R.o)
 .debug_ranges  0x00000288       0x28 .\CortexM3\ARM_GCC_541\Debug\Test_01.a(Backward_R.o)
 .debug_ranges  0x000002b0       0x28 .\CortexM3\ARM_GCC_541\Debug\Test_01.a(limitSW_2.o)
 .debug_ranges  0x000002d8       0x28 .\CortexM3\ARM_GCC_541\Debug\Test_01.a(limitSW_1.o)
 .debug_ranges  0x00000300       0x28 .\CortexM3\ARM_GCC_541\Debug\Test_01.a(S1_Echo.o)
 .debug_ranges  0x00000328       0x28 .\CortexM3\ARM_GCC_541\Debug\Test_01.a(S1_Trigger.o)
 .debug_ranges  0x00000350       0x70 .\CortexM3\ARM_GCC_541\Debug\Test_01.a(isr_1.o)
 .debug_ranges  0x000003c0       0x70 .\CortexM3\ARM_GCC_541\Debug\Test_01.a(isr_2.o)
 .debug_ranges  0x00000430       0x80 .\CortexM3\ARM_GCC_541\Debug\Test_01.a(Color_Timer.o)
 .debug_ranges  0x000004b0       0x18 .\CortexM3\ARM_GCC_541\Debug\Test_01.a(Control_Reg_Color.o)
 .debug_ranges  0x000004c8       0x28 .\CortexM3\ARM_GCC_541\Debug\Test_01.a(Color_S0.o)
 .debug_ranges  0x000004f0       0x28 .\CortexM3\ARM_GCC_541\Debug\Test_01.a(Color_S1.o)
 .debug_ranges  0x00000518       0x28 .\CortexM3\ARM_GCC_541\Debug\Test_01.a(Color_S2.o)
 .debug_ranges  0x00000540       0x28 .\CortexM3\ARM_GCC_541\Debug\Test_01.a(Color_S3.o)
 .debug_ranges  0x00000568       0x28 .\CortexM3\ARM_GCC_541\Debug\Test_01.a(Color_LED.o)
 .debug_ranges  0x00000590       0x28 .\CortexM3\ARM_GCC_541\Debug\Test_01.a(RED_LED.o)
 .debug_ranges  0x000005b8       0x28 .\CortexM3\ARM_GCC_541\Debug\Test_01.a(BLUE_LED.o)
 .debug_ranges  0x000005e0       0x88 .\CortexM3\ARM_GCC_541\Debug\Test_01.a(QuadDec_L_Cnt16.o)
 .debug_ranges  0x00000668       0x88 .\CortexM3\ARM_GCC_541\Debug\Test_01.a(QuadDec_R_Cnt16.o)
 .debug_ranges  0x000006f0      0x290 .\CortexM3\ARM_GCC_541\Debug\Test_01.a(CyLib.o)
 .debug_ranges  0x00000980       0x88 .\CortexM3\ARM_GCC_541\Debug\Test_01.a(cyPm.o)
 .debug_ranges  0x00000a08       0xe0 .\CortexM3\ARM_GCC_541\Debug\Test_01.a(UART.o)
 .debug_ranges  0x00000ae8       0x88 .\CortexM3\ARM_GCC_541\Debug\Test_01.a(Color_Counter.o)
 .debug_ranges  0x00000b70       0x60 .\CortexM3\ARM_GCC_541\Debug\Test_01.a(UART_IntClock.o)
 .debug_ranges  0x00000bd0       0x88 .\CortexM3\ARM_GCC_541\Debug\Test_01.a(S1_Timer.o)
 .debug_ranges  0x00000c58       0x70 .\CortexM3\ARM_GCC_541\Debug\Test_01.a(isr_3.o)
 .debug_ranges  0x00000cc8       0x88 .\CortexM3\ARM_GCC_541\Debug\Test_01.a(S2_Timer.o)
 .debug_ranges  0x00000d50       0x28 .\CortexM3\ARM_GCC_541\Debug\Test_01.a(S2_Echo.o)
 .debug_ranges  0x00000d78       0x28 .\CortexM3\ARM_GCC_541\Debug\Test_01.a(S2_Trigger.o)
 .debug_ranges  0x00000da0       0x70 .\CortexM3\ARM_GCC_541\Debug\Test_01.a(isr_4.o)
 .debug_ranges  0x00000e10       0x88 .\CortexM3\ARM_GCC_541\Debug\Test_01.a(S3_Timer.o)
 .debug_ranges  0x00000e98       0x28 .\CortexM3\ARM_GCC_541\Debug\Test_01.a(S3_Trigger.o)
 .debug_ranges  0x00000ec0       0x28 .\CortexM3\ARM_GCC_541\Debug\Test_01.a(S3_Echo.o)
 .debug_ranges  0x00000ee8       0x38 .\CortexM3\ARM_GCC_541\Debug\Test_01.a(IR_Out.o)
 .debug_ranges  0x00000f20       0x70 .\CortexM3\ARM_GCC_541\Debug\Test_01.a(isr_6.o)
 .debug_ranges  0x00000f90       0x88 .\CortexM3\ARM_GCC_541\Debug\Test_01.a(S4_Timer.o)
 .debug_ranges  0x00001018       0x28 .\CortexM3\ARM_GCC_541\Debug\Test_01.a(S4_Echo.o)
 .debug_ranges  0x00001040       0x28 .\CortexM3\ARM_GCC_541\Debug\Test_01.a(S4_Trigger.o)
 .debug_ranges  0x00001068       0x98 .\CortexM3\ARM_GCC_541\Debug\Test_01.a(PWM_Motor.o)
 .debug_ranges  0x00001100       0x68 .\CortexM3\ARM_GCC_541\Debug\Test_01.a(Flicker_Servo.o)
 .debug_ranges  0x00001168       0x98 .\CortexM3\ARM_GCC_541\Debug\Test_01.a(RobotArm_Servo.o)
 .debug_ranges  0x00001200       0x28 .\CortexM3\ARM_GCC_541\Debug\Test_01.a(Base_Selector.o)
 .debug_ranges  0x00001228       0x28 .\CortexM3\ARM_GCC_541\Debug\Test_01.a(I2C.o)
 .debug_ranges  0x00001250       0x10 .\CortexM3\ARM_GCC_541\Debug\Test_01.a(I2C_INT.o)
 .debug_ranges  0x00001260       0x28 .\CortexM3\ARM_GCC_541\Debug\Test_01.a(I2C_PM.o)
 .debug_ranges  0x00001288       0x70 .\CortexM3\ARM_GCC_541\Debug\Test_01.a(I2C_MASTER.o)
 .debug_ranges  0x000012f8       0x78 .\CortexM3\ARM_GCC_541\Debug\Test_01.a(CyFlash.o)
 .debug_ranges  0x00001370       0x70 .\CortexM3\ARM_GCC_541\Debug\Test_01.a(CySpc.o)

.comment        0x00000000       0x6e
 .comment       0x00000000       0x6e .\CortexM3\ARM_GCC_541\Debug\main.o
                                 0x6f (size before relaxing)
 .comment       0x0000006e       0x6f .\CortexM3\ARM_GCC_541\Debug\cyfitter_cfg.o
 .comment       0x0000006e       0x6f .\CortexM3\ARM_GCC_541\Debug\cymetadata.o
 .comment       0x0000006e       0x6f .\CortexM3\ARM_GCC_541\Debug\Cm3Start.o
 .comment       0x0000006e       0x6f .\CortexM3\ARM_GCC_541\Debug\Test_01.a(QuadDec_L.o)
 .comment       0x0000006e       0x6f .\CortexM3\ARM_GCC_541\Debug\Test_01.a(QuadDec_L_INT.o)
 .comment       0x0000006e       0x6f .\CortexM3\ARM_GCC_541\Debug\Test_01.a(QuadDec_R.o)
 .comment       0x0000006e       0x6f .\CortexM3\ARM_GCC_541\Debug\Test_01.a(QuadDec_R_INT.o)
 .comment       0x0000006e       0x6f .\CortexM3\ARM_GCC_541\Debug\Test_01.a(Forward_L.o)
 .comment       0x0000006e       0x6f .\CortexM3\ARM_GCC_541\Debug\Test_01.a(Backward_L.o)
 .comment       0x0000006e       0x6f .\CortexM3\ARM_GCC_541\Debug\Test_01.a(Forwad_R.o)
 .comment       0x0000006e       0x6f .\CortexM3\ARM_GCC_541\Debug\Test_01.a(Backward_R.o)
 .comment       0x0000006e       0x6f .\CortexM3\ARM_GCC_541\Debug\Test_01.a(limitSW_2.o)
 .comment       0x0000006e       0x6f .\CortexM3\ARM_GCC_541\Debug\Test_01.a(limitSW_1.o)
 .comment       0x0000006e       0x6f .\CortexM3\ARM_GCC_541\Debug\Test_01.a(S1_Echo.o)
 .comment       0x0000006e       0x6f .\CortexM3\ARM_GCC_541\Debug\Test_01.a(S1_Trigger.o)
 .comment       0x0000006e       0x6f .\CortexM3\ARM_GCC_541\Debug\Test_01.a(isr_1.o)
 .comment       0x0000006e       0x6f .\CortexM3\ARM_GCC_541\Debug\Test_01.a(isr_2.o)
 .comment       0x0000006e       0x6f .\CortexM3\ARM_GCC_541\Debug\Test_01.a(Color_Timer.o)
 .comment       0x0000006e       0x6f .\CortexM3\ARM_GCC_541\Debug\Test_01.a(Control_Reg_Color.o)
 .comment       0x0000006e       0x6f .\CortexM3\ARM_GCC_541\Debug\Test_01.a(Color_S0.o)
 .comment       0x0000006e       0x6f .\CortexM3\ARM_GCC_541\Debug\Test_01.a(Color_S1.o)
 .comment       0x0000006e       0x6f .\CortexM3\ARM_GCC_541\Debug\Test_01.a(Color_S2.o)
 .comment       0x0000006e       0x6f .\CortexM3\ARM_GCC_541\Debug\Test_01.a(Color_S3.o)
 .comment       0x0000006e       0x6f .\CortexM3\ARM_GCC_541\Debug\Test_01.a(Color_LED.o)
 .comment       0x0000006e       0x6f .\CortexM3\ARM_GCC_541\Debug\Test_01.a(RED_LED.o)
 .comment       0x0000006e       0x6f .\CortexM3\ARM_GCC_541\Debug\Test_01.a(BLUE_LED.o)
 .comment       0x0000006e       0x6f .\CortexM3\ARM_GCC_541\Debug\Test_01.a(QuadDec_L_Cnt16.o)
 .comment       0x0000006e       0x6f .\CortexM3\ARM_GCC_541\Debug\Test_01.a(QuadDec_R_Cnt16.o)
 .comment       0x0000006e       0x6f .\CortexM3\ARM_GCC_541\Debug\Test_01.a(CyLib.o)
 .comment       0x0000006e       0x6f .\CortexM3\ARM_GCC_541\Debug\Test_01.a(cyPm.o)
 .comment       0x0000006e       0x6f .\CortexM3\ARM_GCC_541\Debug\Test_01.a(UART.o)
 .comment       0x0000006e       0x6f .\CortexM3\ARM_GCC_541\Debug\Test_01.a(Color_Counter.o)
 .comment       0x0000006e       0x6f .\CortexM3\ARM_GCC_541\Debug\Test_01.a(UART_IntClock.o)
 .comment       0x0000006e       0x6f .\CortexM3\ARM_GCC_541\Debug\Test_01.a(S1_Timer.o)
 .comment       0x0000006e       0x6f .\CortexM3\ARM_GCC_541\Debug\Test_01.a(isr_3.o)
 .comment       0x0000006e       0x6f .\CortexM3\ARM_GCC_541\Debug\Test_01.a(S2_Timer.o)
 .comment       0x0000006e       0x6f .\CortexM3\ARM_GCC_541\Debug\Test_01.a(S2_Echo.o)
 .comment       0x0000006e       0x6f .\CortexM3\ARM_GCC_541\Debug\Test_01.a(S2_Trigger.o)
 .comment       0x0000006e       0x6f .\CortexM3\ARM_GCC_541\Debug\Test_01.a(isr_4.o)
 .comment       0x0000006e       0x6f .\CortexM3\ARM_GCC_541\Debug\Test_01.a(S3_Timer.o)
 .comment       0x0000006e       0x6f .\CortexM3\ARM_GCC_541\Debug\Test_01.a(S3_Trigger.o)
 .comment       0x0000006e       0x6f .\CortexM3\ARM_GCC_541\Debug\Test_01.a(S3_Echo.o)
 .comment       0x0000006e       0x6f .\CortexM3\ARM_GCC_541\Debug\Test_01.a(IR_Out.o)
 .comment       0x0000006e       0x6f .\CortexM3\ARM_GCC_541\Debug\Test_01.a(isr_6.o)
 .comment       0x0000006e       0x6f .\CortexM3\ARM_GCC_541\Debug\Test_01.a(S4_Timer.o)
 .comment       0x0000006e       0x6f .\CortexM3\ARM_GCC_541\Debug\Test_01.a(S4_Echo.o)
 .comment       0x0000006e       0x6f .\CortexM3\ARM_GCC_541\Debug\Test_01.a(S4_Trigger.o)
 .comment       0x0000006e       0x6f .\CortexM3\ARM_GCC_541\Debug\Test_01.a(PWM_Motor.o)
 .comment       0x0000006e       0x6f .\CortexM3\ARM_GCC_541\Debug\Test_01.a(Flicker_Servo.o)
 .comment       0x0000006e       0x6f .\CortexM3\ARM_GCC_541\Debug\Test_01.a(RobotArm_Servo.o)
 .comment       0x0000006e       0x6f .\CortexM3\ARM_GCC_541\Debug\Test_01.a(Base_Selector.o)
 .comment       0x0000006e       0x6f .\CortexM3\ARM_GCC_541\Debug\Test_01.a(I2C.o)
 .comment       0x0000006e       0x6f .\CortexM3\ARM_GCC_541\Debug\Test_01.a(I2C_INT.o)
 .comment       0x0000006e       0x6f .\CortexM3\ARM_GCC_541\Debug\Test_01.a(I2C_PM.o)
 .comment       0x0000006e       0x6f .\CortexM3\ARM_GCC_541\Debug\Test_01.a(I2C_MASTER.o)
 .comment       0x0000006e       0x6f .\CortexM3\ARM_GCC_541\Debug\Test_01.a(CyFlash.o)
 .comment       0x0000006e       0x6f .\CortexM3\ARM_GCC_541\Debug\Test_01.a(CySpc.o)

.debug_weaknames
 *(.debug_weaknames)

.debug_funcnames
 *(.debug_funcnames)

.debug_typenames
 *(.debug_typenames)

.debug_varnames
 *(.debug_varnames)

.note.gnu.arm.ident
 *(.note.gnu.arm.ident)

.ARM.attributes
                0x00000000       0x29
 *(.ARM.attributes)
 .ARM.attributes
                0x00000000       0x1d c:/program files (x86)/cypress/psoc creator/4.2/psoc creator/import/gnu/arm/5.4.1/bin/../lib/gcc/arm-none-eabi/5.4.1/armv7-m/crti.o
 .ARM.attributes
                0x0000001d       0x2d c:/program files (x86)/cypress/psoc creator/4.2/psoc creator/import/gnu/arm/5.4.1/bin/../lib/gcc/arm-none-eabi/5.4.1/armv7-m/crtbegin.o
 .ARM.attributes
                0x0000004a       0x1b c:/program files (x86)/cypress/psoc creator/4.2/psoc creator/import/gnu/arm/5.4.1/bin/../lib/gcc/arm-none-eabi/5.4.1/../../../../arm-none-eabi/lib/armv7-m/crt0.o
 .ARM.attributes
                0x00000065       0x33 .\CortexM3\ARM_GCC_541\Debug\main.o
 .ARM.attributes
                0x00000098       0x33 .\CortexM3\ARM_GCC_541\Debug\cyfitter_cfg.o
 .ARM.attributes
                0x000000cb       0x33 .\CortexM3\ARM_GCC_541\Debug\cymetadata.o
 .ARM.attributes
                0x000000fe       0x33 .\CortexM3\ARM_GCC_541\Debug\Cm3Start.o
 .ARM.attributes
                0x00000131       0x33 .\CortexM3\ARM_GCC_541\Debug\Test_01.a(QuadDec_L.o)
 .ARM.attributes
                0x00000164       0x33 .\CortexM3\ARM_GCC_541\Debug\Test_01.a(QuadDec_L_INT.o)
 .ARM.attributes
                0x00000197       0x33 .\CortexM3\ARM_GCC_541\Debug\Test_01.a(QuadDec_R.o)
 .ARM.attributes
                0x000001ca       0x33 .\CortexM3\ARM_GCC_541\Debug\Test_01.a(QuadDec_R_INT.o)
 .ARM.attributes
                0x000001fd       0x33 .\CortexM3\ARM_GCC_541\Debug\Test_01.a(Forward_L.o)
 .ARM.attributes
                0x00000230       0x33 .\CortexM3\ARM_GCC_541\Debug\Test_01.a(Backward_L.o)
 .ARM.attributes
                0x00000263       0x33 .\CortexM3\ARM_GCC_541\Debug\Test_01.a(Forwad_R.o)
 .ARM.attributes
                0x00000296       0x33 .\CortexM3\ARM_GCC_541\Debug\Test_01.a(Backward_R.o)
 .ARM.attributes
                0x000002c9       0x33 .\CortexM3\ARM_GCC_541\Debug\Test_01.a(limitSW_2.o)
 .ARM.attributes
                0x000002fc       0x33 .\CortexM3\ARM_GCC_541\Debug\Test_01.a(limitSW_1.o)
 .ARM.attributes
                0x0000032f       0x33 .\CortexM3\ARM_GCC_541\Debug\Test_01.a(S1_Echo.o)
 .ARM.attributes
                0x00000362       0x33 .\CortexM3\ARM_GCC_541\Debug\Test_01.a(S1_Trigger.o)
 .ARM.attributes
                0x00000395       0x33 .\CortexM3\ARM_GCC_541\Debug\Test_01.a(isr_1.o)
 .ARM.attributes
                0x000003c8       0x33 .\CortexM3\ARM_GCC_541\Debug\Test_01.a(isr_2.o)
 .ARM.attributes
                0x000003fb       0x33 .\CortexM3\ARM_GCC_541\Debug\Test_01.a(Color_Timer.o)
 .ARM.attributes
                0x0000042e       0x33 .\CortexM3\ARM_GCC_541\Debug\Test_01.a(Control_Reg_Color.o)
 .ARM.attributes
                0x00000461       0x33 .\CortexM3\ARM_GCC_541\Debug\Test_01.a(Color_S0.o)
 .ARM.attributes
                0x00000494       0x33 .\CortexM3\ARM_GCC_541\Debug\Test_01.a(Color_S1.o)
 .ARM.attributes
                0x000004c7       0x33 .\CortexM3\ARM_GCC_541\Debug\Test_01.a(Color_S2.o)
 .ARM.attributes
                0x000004fa       0x33 .\CortexM3\ARM_GCC_541\Debug\Test_01.a(Color_S3.o)
 .ARM.attributes
                0x0000052d       0x33 .\CortexM3\ARM_GCC_541\Debug\Test_01.a(Color_LED.o)
 .ARM.attributes
                0x00000560       0x33 .\CortexM3\ARM_GCC_541\Debug\Test_01.a(RED_LED.o)
 .ARM.attributes
                0x00000593       0x33 .\CortexM3\ARM_GCC_541\Debug\Test_01.a(BLUE_LED.o)
 .ARM.attributes
                0x000005c6       0x33 .\CortexM3\ARM_GCC_541\Debug\Test_01.a(QuadDec_L_Cnt16.o)
 .ARM.attributes
                0x000005f9       0x33 .\CortexM3\ARM_GCC_541\Debug\Test_01.a(QuadDec_R_Cnt16.o)
 .ARM.attributes
                0x0000062c       0x33 .\CortexM3\ARM_GCC_541\Debug\Test_01.a(CyLib.o)
 .ARM.attributes
                0x0000065f       0x33 .\CortexM3\ARM_GCC_541\Debug\Test_01.a(cyPm.o)
 .ARM.attributes
                0x00000692       0x33 .\CortexM3\ARM_GCC_541\Debug\Test_01.a(UART.o)
 .ARM.attributes
                0x000006c5       0x33 .\CortexM3\ARM_GCC_541\Debug\Test_01.a(Color_Counter.o)
 .ARM.attributes
                0x000006f8       0x33 .\CortexM3\ARM_GCC_541\Debug\Test_01.a(UART_IntClock.o)
 .ARM.attributes
                0x0000072b       0x33 .\CortexM3\ARM_GCC_541\Debug\Test_01.a(S1_Timer.o)
 .ARM.attributes
                0x0000075e       0x33 .\CortexM3\ARM_GCC_541\Debug\Test_01.a(isr_3.o)
 .ARM.attributes
                0x00000791       0x33 .\CortexM3\ARM_GCC_541\Debug\Test_01.a(S2_Timer.o)
 .ARM.attributes
                0x000007c4       0x33 .\CortexM3\ARM_GCC_541\Debug\Test_01.a(S2_Echo.o)
 .ARM.attributes
                0x000007f7       0x33 .\CortexM3\ARM_GCC_541\Debug\Test_01.a(S2_Trigger.o)
 .ARM.attributes
                0x0000082a       0x33 .\CortexM3\ARM_GCC_541\Debug\Test_01.a(isr_4.o)
 .ARM.attributes
                0x0000085d       0x33 .\CortexM3\ARM_GCC_541\Debug\Test_01.a(S3_Timer.o)
 .ARM.attributes
                0x00000890       0x33 .\CortexM3\ARM_GCC_541\Debug\Test_01.a(S3_Trigger.o)
 .ARM.attributes
                0x000008c3       0x33 .\CortexM3\ARM_GCC_541\Debug\Test_01.a(S3_Echo.o)
 .ARM.attributes
                0x000008f6       0x33 .\CortexM3\ARM_GCC_541\Debug\Test_01.a(IR_Out.o)
 .ARM.attributes
                0x00000929       0x33 .\CortexM3\ARM_GCC_541\Debug\Test_01.a(isr_6.o)
 .ARM.attributes
                0x0000095c       0x33 .\CortexM3\ARM_GCC_541\Debug\Test_01.a(S4_Timer.o)
 .ARM.attributes
                0x0000098f       0x33 .\CortexM3\ARM_GCC_541\Debug\Test_01.a(S4_Echo.o)
 .ARM.attributes
                0x000009c2       0x33 .\CortexM3\ARM_GCC_541\Debug\Test_01.a(S4_Trigger.o)
 .ARM.attributes
                0x000009f5       0x33 .\CortexM3\ARM_GCC_541\Debug\Test_01.a(PWM_Motor.o)
 .ARM.attributes
                0x00000a28       0x33 .\CortexM3\ARM_GCC_541\Debug\Test_01.a(Flicker_Servo.o)
 .ARM.attributes
                0x00000a5b       0x33 .\CortexM3\ARM_GCC_541\Debug\Test_01.a(RobotArm_Servo.o)
 .ARM.attributes
                0x00000a8e       0x33 .\CortexM3\ARM_GCC_541\Debug\Test_01.a(Base_Selector.o)
 .ARM.attributes
                0x00000ac1       0x33 .\CortexM3\ARM_GCC_541\Debug\Test_01.a(I2C.o)
 .ARM.attributes
                0x00000af4       0x33 .\CortexM3\ARM_GCC_541\Debug\Test_01.a(I2C_INT.o)
 .ARM.attributes
                0x00000b27       0x33 .\CortexM3\ARM_GCC_541\Debug\Test_01.a(I2C_PM.o)
 .ARM.attributes
                0x00000b5a       0x33 .\CortexM3\ARM_GCC_541\Debug\Test_01.a(I2C_MASTER.o)
 .ARM.attributes
                0x00000b8d       0x21 .\CortexM3\ARM_GCC_541\Debug\Test_01.a(CyBootAsmGnu.o)
 .ARM.attributes
                0x00000bae       0x33 .\CortexM3\ARM_GCC_541\Debug\Test_01.a(CyFlash.o)
 .ARM.attributes
                0x00000be1       0x33 .\CortexM3\ARM_GCC_541\Debug\Test_01.a(CySpc.o)
 .ARM.attributes
                0x00000c14       0x2d c:/program files (x86)/cypress/psoc creator/4.2/psoc creator/import/gnu/arm/5.4.1/bin/../lib/gcc/arm-none-eabi/5.4.1/../../../../arm-none-eabi/lib/armv7-m\libm.a(lib_a-w_atan2.o)
 .ARM.attributes
                0x00000c41       0x2d c:/program files (x86)/cypress/psoc creator/4.2/psoc creator/import/gnu/arm/5.4.1/bin/../lib/gcc/arm-none-eabi/5.4.1/../../../../arm-none-eabi/lib/armv7-m\libm.a(lib_a-e_atan2.o)
 .ARM.attributes
                0x00000c6e       0x2d c:/program files (x86)/cypress/psoc creator/4.2/psoc creator/import/gnu/arm/5.4.1/bin/../lib/gcc/arm-none-eabi/5.4.1/../../../../arm-none-eabi/lib/armv7-m\libm.a(lib_a-s_atan.o)
 .ARM.attributes
                0x00000c9b       0x2d c:/program files (x86)/cypress/psoc creator/4.2/psoc creator/import/gnu/arm/5.4.1/bin/../lib/gcc/arm-none-eabi/5.4.1/../../../../arm-none-eabi/lib/armv7-m\libm.a(lib_a-s_fabs.o)
 .ARM.attributes
                0x00000cc8       0x1d c:/program files (x86)/cypress/psoc creator/4.2/psoc creator/import/gnu/arm/5.4.1/bin/../lib/gcc/arm-none-eabi/5.4.1/armv7-m\libgcc.a(_arm_addsubdf3.o)
 .ARM.attributes
                0x00000ce5       0x1d c:/program files (x86)/cypress/psoc creator/4.2/psoc creator/import/gnu/arm/5.4.1/bin/../lib/gcc/arm-none-eabi/5.4.1/armv7-m\libgcc.a(_arm_muldivdf3.o)
 .ARM.attributes
                0x00000d02       0x1d c:/program files (x86)/cypress/psoc creator/4.2/psoc creator/import/gnu/arm/5.4.1/bin/../lib/gcc/arm-none-eabi/5.4.1/armv7-m\libgcc.a(_arm_cmpdf2.o)
 .ARM.attributes
                0x00000d1f       0x1d c:/program files (x86)/cypress/psoc creator/4.2/psoc creator/import/gnu/arm/5.4.1/bin/../lib/gcc/arm-none-eabi/5.4.1/armv7-m\libgcc.a(_arm_fixdfsi.o)
 .ARM.attributes
                0x00000d3c       0x1d c:/program files (x86)/cypress/psoc creator/4.2/psoc creator/import/gnu/arm/5.4.1/bin/../lib/gcc/arm-none-eabi/5.4.1/armv7-m\libgcc.a(_arm_addsubsf3.o)
 .ARM.attributes
                0x00000d59       0x1d c:/program files (x86)/cypress/psoc creator/4.2/psoc creator/import/gnu/arm/5.4.1/bin/../lib/gcc/arm-none-eabi/5.4.1/armv7-m\libgcc.a(_arm_cmpsf2.o)
 .ARM.attributes
                0x00000d76       0x2d c:/program files (x86)/cypress/psoc creator/4.2/psoc creator/import/gnu/arm/5.4.1/bin/../lib/gcc/arm-none-eabi/5.4.1/../../../../arm-none-eabi/lib/armv7-m\libg_nano.a(lib_a-errno.o)
 .ARM.attributes
                0x00000da3       0x2d c:/program files (x86)/cypress/psoc creator/4.2/psoc creator/import/gnu/arm/5.4.1/bin/../lib/gcc/arm-none-eabi/5.4.1/../../../../arm-none-eabi/lib/armv7-m\libg_nano.a(lib_a-exit.o)
 .ARM.attributes
                0x00000dd0       0x2d c:/program files (x86)/cypress/psoc creator/4.2/psoc creator/import/gnu/arm/5.4.1/bin/../lib/gcc/arm-none-eabi/5.4.1/../../../../arm-none-eabi/lib/armv7-m\libg_nano.a(lib_a-impure.o)
 .ARM.attributes
                0x00000dfd       0x2d c:/program files (x86)/cypress/psoc creator/4.2/psoc creator/import/gnu/arm/5.4.1/bin/../lib/gcc/arm-none-eabi/5.4.1/../../../../arm-none-eabi/lib/armv7-m\libg_nano.a(lib_a-init.o)
 .ARM.attributes
                0x00000e2a       0x2d c:/program files (x86)/cypress/psoc creator/4.2/psoc creator/import/gnu/arm/5.4.1/bin/../lib/gcc/arm-none-eabi/5.4.1/../../../../arm-none-eabi/lib/armv7-m\libg_nano.a(lib_a-memcpy-stub.o)
 .ARM.attributes
                0x00000e57       0x2d c:/program files (x86)/cypress/psoc creator/4.2/psoc creator/import/gnu/arm/5.4.1/bin/../lib/gcc/arm-none-eabi/5.4.1/../../../../arm-none-eabi/lib/armv7-m\libg_nano.a(lib_a-memset.o)
 .ARM.attributes
                0x00000e84       0x2d c:/program files (x86)/cypress/psoc creator/4.2/psoc creator/import/gnu/arm/5.4.1/bin/../lib/gcc/arm-none-eabi/5.4.1/../../../../arm-none-eabi/lib/armv7-m\libg_nano.a(lib_a-sprintf.o)
 .ARM.attributes
                0x00000eb1       0x2d c:/program files (x86)/cypress/psoc creator/4.2/psoc creator/import/gnu/arm/5.4.1/bin/../lib/gcc/arm-none-eabi/5.4.1/../../../../arm-none-eabi/lib/armv7-m\libg_nano.a(lib_a-nano-svfprintf.o)
 .ARM.attributes
                0x00000ede       0x2d c:/program files (x86)/cypress/psoc creator/4.2/psoc creator/import/gnu/arm/5.4.1/bin/../lib/gcc/arm-none-eabi/5.4.1/../../../../arm-none-eabi/lib/armv7-m\libg_nano.a(lib_a-nano-vfprintf_i.o)
 .ARM.attributes
                0x00000f0b       0x2d c:/program files (x86)/cypress/psoc creator/4.2/psoc creator/import/gnu/arm/5.4.1/bin/../lib/gcc/arm-none-eabi/5.4.1/../../../../arm-none-eabi/lib/armv7-m\libg_nano.a(lib_a-memchr-stub.o)
 .ARM.attributes
                0x00000f38       0x2d c:/program files (x86)/cypress/psoc creator/4.2/psoc creator/import/gnu/arm/5.4.1/bin/../lib/gcc/arm-none-eabi/5.4.1/../../../../arm-none-eabi/lib/armv7-m\libg_nano.a(lib_a-memmove.o)
 .ARM.attributes
                0x00000f65       0x2d c:/program files (x86)/cypress/psoc creator/4.2/psoc creator/import/gnu/arm/5.4.1/bin/../lib/gcc/arm-none-eabi/5.4.1/../../../../arm-none-eabi/lib/armv7-m\libg_nano.a(lib_a-nano-freer.o)
 .ARM.attributes
                0x00000f92       0x2d c:/program files (x86)/cypress/psoc creator/4.2/psoc creator/import/gnu/arm/5.4.1/bin/../lib/gcc/arm-none-eabi/5.4.1/../../../../arm-none-eabi/lib/armv7-m\libg_nano.a(lib_a-nano-mallocr.o)
 .ARM.attributes
                0x00000fbf       0x2d c:/program files (x86)/cypress/psoc creator/4.2/psoc creator/import/gnu/arm/5.4.1/bin/../lib/gcc/arm-none-eabi/5.4.1/../../../../arm-none-eabi/lib/armv7-m\libg_nano.a(lib_a-nano-reallocr.o)
 .ARM.attributes
                0x00000fec       0x2d c:/program files (x86)/cypress/psoc creator/4.2/psoc creator/import/gnu/arm/5.4.1/bin/../lib/gcc/arm-none-eabi/5.4.1/../../../../arm-none-eabi/lib/armv7-m\libg_nano.a(lib_a-sbrkr.o)
 .ARM.attributes
                0x00001019       0x2d c:/program files (x86)/cypress/psoc creator/4.2/psoc creator/import/gnu/arm/5.4.1/bin/../lib/gcc/arm-none-eabi/5.4.1/../../../../arm-none-eabi/lib/armv7-m\libg_nano.a(lib_a-mlock.o)
 .ARM.attributes
                0x00001046       0x2d c:/program files (x86)/cypress/psoc creator/4.2/psoc creator/import/gnu/arm/5.4.1/bin/../lib/gcc/arm-none-eabi/5.4.1/../../../../arm-none-eabi/lib/armv7-m\libg_nano.a(lib_a-nano-msizer.o)
 .ARM.attributes
                0x00001073       0x2d c:/program files (x86)/cypress/psoc creator/4.2/psoc creator/import/gnu/arm/5.4.1/bin/../lib/gcc/arm-none-eabi/5.4.1/../../../../arm-none-eabi/lib/armv7-m\libg_nano.a(lib_a-reent.o)
 .ARM.attributes
                0x000010a0       0x2d c:/program files (x86)/cypress/psoc creator/4.2/psoc creator/import/gnu/arm/5.4.1/bin/../lib/gcc/arm-none-eabi/5.4.1/armv7-m/crtend.o
 .ARM.attributes
                0x000010cd       0x1d c:/program files (x86)/cypress/psoc creator/4.2/psoc creator/import/gnu/arm/5.4.1/bin/../lib/gcc/arm-none-eabi/5.4.1/armv7-m/crtn.o

/DISCARD/
 *(.note.GNU-stack)
OUTPUT(R:\Year 03\ECE3091 - Engineering Design\Codes\Version_03\Version_03\Test_01.cydsn\CortexM3\ARM_GCC_541\Debug\Test_01.elf elf32-littlearm)
